ARM GAS  /tmp/cczP4HC8.s 			page 1


   1              		.cpu cortex-m0
   2              		.eabi_attribute 20, 1
   3              		.eabi_attribute 21, 1
   4              		.eabi_attribute 23, 3
   5              		.eabi_attribute 24, 1
   6              		.eabi_attribute 25, 1
   7              		.eabi_attribute 26, 1
   8              		.eabi_attribute 30, 1
   9              		.eabi_attribute 34, 0
  10              		.eabi_attribute 18, 4
  11              		.file	"stm32f0xx_hal_tsc.c"
  12              		.text
  13              	.Ltext0:
  14              		.cfi_sections	.debug_frame
  15              		.section	.text.TSC_extract_groups,"ax",%progbits
  16              		.align	1
  17              		.arch armv6s-m
  18              		.syntax unified
  19              		.code	16
  20              		.thumb_func
  21              		.fpu softvfp
  23              	TSC_extract_groups:
  24              	.LVL0:
  25              	.LFB57:
  26              		.file 1 "Drivers/STM32F0xx_HAL_Driver/Src/stm32f0xx_hal_tsc.c"
   1:Drivers/STM32F0xx_HAL_Driver/Src/stm32f0xx_hal_tsc.c **** /**
   2:Drivers/STM32F0xx_HAL_Driver/Src/stm32f0xx_hal_tsc.c ****   ******************************************************************************
   3:Drivers/STM32F0xx_HAL_Driver/Src/stm32f0xx_hal_tsc.c ****   * @file    stm32f0xx_hal_tsc.c
   4:Drivers/STM32F0xx_HAL_Driver/Src/stm32f0xx_hal_tsc.c ****   * @author  MCD Application Team
   5:Drivers/STM32F0xx_HAL_Driver/Src/stm32f0xx_hal_tsc.c ****   * @brief   This file provides firmware functions to manage the following
   6:Drivers/STM32F0xx_HAL_Driver/Src/stm32f0xx_hal_tsc.c ****   *          functionalities of the Touch Sensing Controller (TSC) peripheral:
   7:Drivers/STM32F0xx_HAL_Driver/Src/stm32f0xx_hal_tsc.c ****   *           + Initialization and De-initialization
   8:Drivers/STM32F0xx_HAL_Driver/Src/stm32f0xx_hal_tsc.c ****   *           + Channel IOs, Shield IOs and Sampling IOs configuration
   9:Drivers/STM32F0xx_HAL_Driver/Src/stm32f0xx_hal_tsc.c ****   *           + Start and Stop an acquisition
  10:Drivers/STM32F0xx_HAL_Driver/Src/stm32f0xx_hal_tsc.c ****   *           + Read acquisition result
  11:Drivers/STM32F0xx_HAL_Driver/Src/stm32f0xx_hal_tsc.c ****   *           + Interrupts and flags management
  12:Drivers/STM32F0xx_HAL_Driver/Src/stm32f0xx_hal_tsc.c ****   *
  13:Drivers/STM32F0xx_HAL_Driver/Src/stm32f0xx_hal_tsc.c ****   @verbatim
  14:Drivers/STM32F0xx_HAL_Driver/Src/stm32f0xx_hal_tsc.c **** ================================================================================
  15:Drivers/STM32F0xx_HAL_Driver/Src/stm32f0xx_hal_tsc.c ****                        ##### TSC specific features #####
  16:Drivers/STM32F0xx_HAL_Driver/Src/stm32f0xx_hal_tsc.c **** ================================================================================
  17:Drivers/STM32F0xx_HAL_Driver/Src/stm32f0xx_hal_tsc.c ****   [..]
  18:Drivers/STM32F0xx_HAL_Driver/Src/stm32f0xx_hal_tsc.c ****   (#) Proven and robust surface charge transfer acquisition principle
  19:Drivers/STM32F0xx_HAL_Driver/Src/stm32f0xx_hal_tsc.c **** 
  20:Drivers/STM32F0xx_HAL_Driver/Src/stm32f0xx_hal_tsc.c ****   (#) Supports up to 3 capacitive sensing channels per group
  21:Drivers/STM32F0xx_HAL_Driver/Src/stm32f0xx_hal_tsc.c **** 
  22:Drivers/STM32F0xx_HAL_Driver/Src/stm32f0xx_hal_tsc.c ****   (#) Capacitive sensing channels can be acquired in parallel offering a very good
  23:Drivers/STM32F0xx_HAL_Driver/Src/stm32f0xx_hal_tsc.c ****       response time
  24:Drivers/STM32F0xx_HAL_Driver/Src/stm32f0xx_hal_tsc.c **** 
  25:Drivers/STM32F0xx_HAL_Driver/Src/stm32f0xx_hal_tsc.c ****   (#) Spread spectrum feature to improve system robustness in noisy environments
  26:Drivers/STM32F0xx_HAL_Driver/Src/stm32f0xx_hal_tsc.c **** 
  27:Drivers/STM32F0xx_HAL_Driver/Src/stm32f0xx_hal_tsc.c ****   (#) Full hardware management of the charge transfer acquisition sequence
  28:Drivers/STM32F0xx_HAL_Driver/Src/stm32f0xx_hal_tsc.c **** 
  29:Drivers/STM32F0xx_HAL_Driver/Src/stm32f0xx_hal_tsc.c ****   (#) Programmable charge transfer frequency
  30:Drivers/STM32F0xx_HAL_Driver/Src/stm32f0xx_hal_tsc.c **** 
  31:Drivers/STM32F0xx_HAL_Driver/Src/stm32f0xx_hal_tsc.c ****   (#) Programmable sampling capacitor I/O pin
  32:Drivers/STM32F0xx_HAL_Driver/Src/stm32f0xx_hal_tsc.c **** 
ARM GAS  /tmp/cczP4HC8.s 			page 2


  33:Drivers/STM32F0xx_HAL_Driver/Src/stm32f0xx_hal_tsc.c ****   (#) Programmable channel I/O pin
  34:Drivers/STM32F0xx_HAL_Driver/Src/stm32f0xx_hal_tsc.c **** 
  35:Drivers/STM32F0xx_HAL_Driver/Src/stm32f0xx_hal_tsc.c ****   (#) Programmable max count value to avoid long acquisition when a channel is faulty
  36:Drivers/STM32F0xx_HAL_Driver/Src/stm32f0xx_hal_tsc.c **** 
  37:Drivers/STM32F0xx_HAL_Driver/Src/stm32f0xx_hal_tsc.c ****   (#) Dedicated end of acquisition and max count error flags with interrupt capability
  38:Drivers/STM32F0xx_HAL_Driver/Src/stm32f0xx_hal_tsc.c **** 
  39:Drivers/STM32F0xx_HAL_Driver/Src/stm32f0xx_hal_tsc.c ****   (#) One sampling capacitor for up to 3 capacitive sensing channels to reduce the system
  40:Drivers/STM32F0xx_HAL_Driver/Src/stm32f0xx_hal_tsc.c ****       components
  41:Drivers/STM32F0xx_HAL_Driver/Src/stm32f0xx_hal_tsc.c **** 
  42:Drivers/STM32F0xx_HAL_Driver/Src/stm32f0xx_hal_tsc.c ****   (#) Compatible with proximity, touchkey, linear and rotary touch sensor implementation
  43:Drivers/STM32F0xx_HAL_Driver/Src/stm32f0xx_hal_tsc.c **** 
  44:Drivers/STM32F0xx_HAL_Driver/Src/stm32f0xx_hal_tsc.c ****                           ##### How to use this driver #####
  45:Drivers/STM32F0xx_HAL_Driver/Src/stm32f0xx_hal_tsc.c **** ================================================================================
  46:Drivers/STM32F0xx_HAL_Driver/Src/stm32f0xx_hal_tsc.c ****   [..]
  47:Drivers/STM32F0xx_HAL_Driver/Src/stm32f0xx_hal_tsc.c ****     (#) Enable the TSC interface clock using __HAL_RCC_TSC_CLK_ENABLE() macro.
  48:Drivers/STM32F0xx_HAL_Driver/Src/stm32f0xx_hal_tsc.c **** 
  49:Drivers/STM32F0xx_HAL_Driver/Src/stm32f0xx_hal_tsc.c ****     (#) GPIO pins configuration
  50:Drivers/STM32F0xx_HAL_Driver/Src/stm32f0xx_hal_tsc.c ****       (++) Enable the clock for the TSC GPIOs using __HAL_RCC_GPIOx_CLK_ENABLE() macro.
  51:Drivers/STM32F0xx_HAL_Driver/Src/stm32f0xx_hal_tsc.c ****       (++) Configure the TSC pins used as sampling IOs in alternate function output Open-Drain mode
  52:Drivers/STM32F0xx_HAL_Driver/Src/stm32f0xx_hal_tsc.c ****            and TSC pins used as channel/shield IOs in alternate function output Push-Pull mode
  53:Drivers/STM32F0xx_HAL_Driver/Src/stm32f0xx_hal_tsc.c ****            using HAL_GPIO_Init() function.
  54:Drivers/STM32F0xx_HAL_Driver/Src/stm32f0xx_hal_tsc.c **** 
  55:Drivers/STM32F0xx_HAL_Driver/Src/stm32f0xx_hal_tsc.c ****     (#) Interrupts configuration
  56:Drivers/STM32F0xx_HAL_Driver/Src/stm32f0xx_hal_tsc.c ****       (++) Configure the NVIC (if the interrupt model is used) using HAL_NVIC_SetPriority()
  57:Drivers/STM32F0xx_HAL_Driver/Src/stm32f0xx_hal_tsc.c ****            and HAL_NVIC_EnableIRQ() and function.
  58:Drivers/STM32F0xx_HAL_Driver/Src/stm32f0xx_hal_tsc.c **** 
  59:Drivers/STM32F0xx_HAL_Driver/Src/stm32f0xx_hal_tsc.c ****     (#) TSC configuration
  60:Drivers/STM32F0xx_HAL_Driver/Src/stm32f0xx_hal_tsc.c ****       (++) Configure all TSC parameters and used TSC IOs using HAL_TSC_Init() function.
  61:Drivers/STM32F0xx_HAL_Driver/Src/stm32f0xx_hal_tsc.c **** 
  62:Drivers/STM32F0xx_HAL_Driver/Src/stm32f0xx_hal_tsc.c ****  [..]   TSC peripheral alternate functions are mapped on AF9.
  63:Drivers/STM32F0xx_HAL_Driver/Src/stm32f0xx_hal_tsc.c **** 
  64:Drivers/STM32F0xx_HAL_Driver/Src/stm32f0xx_hal_tsc.c ****   *** Acquisition sequence ***
  65:Drivers/STM32F0xx_HAL_Driver/Src/stm32f0xx_hal_tsc.c ****   ===================================
  66:Drivers/STM32F0xx_HAL_Driver/Src/stm32f0xx_hal_tsc.c ****   [..]
  67:Drivers/STM32F0xx_HAL_Driver/Src/stm32f0xx_hal_tsc.c ****     (+) Discharge all IOs using HAL_TSC_IODischarge() function.
  68:Drivers/STM32F0xx_HAL_Driver/Src/stm32f0xx_hal_tsc.c ****     (+) Wait a certain time allowing a good discharge of all capacitors. This delay depends
  69:Drivers/STM32F0xx_HAL_Driver/Src/stm32f0xx_hal_tsc.c ****         of the sampling capacitor and electrodes design.
  70:Drivers/STM32F0xx_HAL_Driver/Src/stm32f0xx_hal_tsc.c ****     (+) Select the channel IOs to be acquired using HAL_TSC_IOConfig() function.
  71:Drivers/STM32F0xx_HAL_Driver/Src/stm32f0xx_hal_tsc.c ****     (+) Launch the acquisition using either HAL_TSC_Start() or HAL_TSC_Start_IT() function.
  72:Drivers/STM32F0xx_HAL_Driver/Src/stm32f0xx_hal_tsc.c ****         If the synchronized mode is selected, the acquisition will start as soon as the signal
  73:Drivers/STM32F0xx_HAL_Driver/Src/stm32f0xx_hal_tsc.c ****         is received on the synchro pin.
  74:Drivers/STM32F0xx_HAL_Driver/Src/stm32f0xx_hal_tsc.c ****     (+) Wait the end of acquisition using either HAL_TSC_PollForAcquisition() or
  75:Drivers/STM32F0xx_HAL_Driver/Src/stm32f0xx_hal_tsc.c ****         HAL_TSC_GetState() function or using WFI instruction for example.
  76:Drivers/STM32F0xx_HAL_Driver/Src/stm32f0xx_hal_tsc.c ****     (+) Check the group acquisition status using HAL_TSC_GroupGetStatus() function.
  77:Drivers/STM32F0xx_HAL_Driver/Src/stm32f0xx_hal_tsc.c ****     (+) Read the acquisition value using HAL_TSC_GroupGetValue() function.
  78:Drivers/STM32F0xx_HAL_Driver/Src/stm32f0xx_hal_tsc.c **** 
  79:Drivers/STM32F0xx_HAL_Driver/Src/stm32f0xx_hal_tsc.c ****      *** Callback registration ***
  80:Drivers/STM32F0xx_HAL_Driver/Src/stm32f0xx_hal_tsc.c ****      =============================================
  81:Drivers/STM32F0xx_HAL_Driver/Src/stm32f0xx_hal_tsc.c **** 
  82:Drivers/STM32F0xx_HAL_Driver/Src/stm32f0xx_hal_tsc.c ****   [..]
  83:Drivers/STM32F0xx_HAL_Driver/Src/stm32f0xx_hal_tsc.c ****      The compilation flag USE_HAL_TSC_REGISTER_CALLBACKS when set to 1
  84:Drivers/STM32F0xx_HAL_Driver/Src/stm32f0xx_hal_tsc.c ****      allows the user to configure dynamically the driver callbacks.
  85:Drivers/STM32F0xx_HAL_Driver/Src/stm32f0xx_hal_tsc.c ****      Use Functions @ref HAL_TSC_RegisterCallback() to register an interrupt callback.
  86:Drivers/STM32F0xx_HAL_Driver/Src/stm32f0xx_hal_tsc.c **** 
  87:Drivers/STM32F0xx_HAL_Driver/Src/stm32f0xx_hal_tsc.c ****   [..]
  88:Drivers/STM32F0xx_HAL_Driver/Src/stm32f0xx_hal_tsc.c ****      Function @ref HAL_TSC_RegisterCallback() allows to register following callbacks:
  89:Drivers/STM32F0xx_HAL_Driver/Src/stm32f0xx_hal_tsc.c ****        (+) ConvCpltCallback   : callback for conversion complete process.
ARM GAS  /tmp/cczP4HC8.s 			page 3


  90:Drivers/STM32F0xx_HAL_Driver/Src/stm32f0xx_hal_tsc.c ****        (+) ErrorCallback      : callback for error detection.
  91:Drivers/STM32F0xx_HAL_Driver/Src/stm32f0xx_hal_tsc.c ****        (+) MspInitCallback    : callback for Msp Init.
  92:Drivers/STM32F0xx_HAL_Driver/Src/stm32f0xx_hal_tsc.c ****        (+) MspDeInitCallback  : callback for Msp DeInit.
  93:Drivers/STM32F0xx_HAL_Driver/Src/stm32f0xx_hal_tsc.c ****   [..]
  94:Drivers/STM32F0xx_HAL_Driver/Src/stm32f0xx_hal_tsc.c ****      This function takes as parameters the HAL peripheral handle, the Callback ID
  95:Drivers/STM32F0xx_HAL_Driver/Src/stm32f0xx_hal_tsc.c ****      and a pointer to the user callback function.
  96:Drivers/STM32F0xx_HAL_Driver/Src/stm32f0xx_hal_tsc.c **** 
  97:Drivers/STM32F0xx_HAL_Driver/Src/stm32f0xx_hal_tsc.c ****   [..]
  98:Drivers/STM32F0xx_HAL_Driver/Src/stm32f0xx_hal_tsc.c ****      Use function @ref HAL_TSC_UnRegisterCallback to reset a callback to the default
  99:Drivers/STM32F0xx_HAL_Driver/Src/stm32f0xx_hal_tsc.c ****      weak function.
 100:Drivers/STM32F0xx_HAL_Driver/Src/stm32f0xx_hal_tsc.c ****      @ref HAL_TSC_UnRegisterCallback takes as parameters the HAL peripheral handle,
 101:Drivers/STM32F0xx_HAL_Driver/Src/stm32f0xx_hal_tsc.c ****      and the Callback ID.
 102:Drivers/STM32F0xx_HAL_Driver/Src/stm32f0xx_hal_tsc.c ****   [..]
 103:Drivers/STM32F0xx_HAL_Driver/Src/stm32f0xx_hal_tsc.c ****      This function allows to reset following callbacks:
 104:Drivers/STM32F0xx_HAL_Driver/Src/stm32f0xx_hal_tsc.c ****        (+) ConvCpltCallback   : callback for conversion complete process.
 105:Drivers/STM32F0xx_HAL_Driver/Src/stm32f0xx_hal_tsc.c ****        (+) ErrorCallback      : callback for error detection.
 106:Drivers/STM32F0xx_HAL_Driver/Src/stm32f0xx_hal_tsc.c ****        (+) MspInitCallback    : callback for Msp Init.
 107:Drivers/STM32F0xx_HAL_Driver/Src/stm32f0xx_hal_tsc.c ****        (+) MspDeInitCallback  : callback for Msp DeInit.
 108:Drivers/STM32F0xx_HAL_Driver/Src/stm32f0xx_hal_tsc.c **** 
 109:Drivers/STM32F0xx_HAL_Driver/Src/stm32f0xx_hal_tsc.c ****   [..]
 110:Drivers/STM32F0xx_HAL_Driver/Src/stm32f0xx_hal_tsc.c ****      By default, after the @ref HAL_TSC_Init() and when the state is @ref HAL_TSC_STATE_RESET
 111:Drivers/STM32F0xx_HAL_Driver/Src/stm32f0xx_hal_tsc.c ****      all callbacks are set to the corresponding weak functions:
 112:Drivers/STM32F0xx_HAL_Driver/Src/stm32f0xx_hal_tsc.c ****      examples @ref HAL_TSC_ConvCpltCallback(), @ref HAL_TSC_ErrorCallback().
 113:Drivers/STM32F0xx_HAL_Driver/Src/stm32f0xx_hal_tsc.c ****      Exception done for MspInit and MspDeInit functions that are
 114:Drivers/STM32F0xx_HAL_Driver/Src/stm32f0xx_hal_tsc.c ****      reset to the legacy weak functions in the @ref HAL_TSC_Init()/ @ref HAL_TSC_DeInit() only when
 115:Drivers/STM32F0xx_HAL_Driver/Src/stm32f0xx_hal_tsc.c ****      these callbacks are null (not registered beforehand).
 116:Drivers/STM32F0xx_HAL_Driver/Src/stm32f0xx_hal_tsc.c ****      If MspInit or MspDeInit are not null, the @ref HAL_TSC_Init()/ @ref HAL_TSC_DeInit()
 117:Drivers/STM32F0xx_HAL_Driver/Src/stm32f0xx_hal_tsc.c ****      keep and use the user MspInit/MspDeInit callbacks (registered beforehand) whatever the state.
 118:Drivers/STM32F0xx_HAL_Driver/Src/stm32f0xx_hal_tsc.c **** 
 119:Drivers/STM32F0xx_HAL_Driver/Src/stm32f0xx_hal_tsc.c ****   [..]
 120:Drivers/STM32F0xx_HAL_Driver/Src/stm32f0xx_hal_tsc.c ****      Callbacks can be registered/unregistered in @ref HAL_TSC_STATE_READY state only.
 121:Drivers/STM32F0xx_HAL_Driver/Src/stm32f0xx_hal_tsc.c ****      Exception done MspInit/MspDeInit functions that can be registered/unregistered
 122:Drivers/STM32F0xx_HAL_Driver/Src/stm32f0xx_hal_tsc.c ****      in @ref HAL_TSC_STATE_READY or @ref HAL_TSC_STATE_RESET state,
 123:Drivers/STM32F0xx_HAL_Driver/Src/stm32f0xx_hal_tsc.c ****      thus registered (user) MspInit/DeInit callbacks can be used during the Init/DeInit.
 124:Drivers/STM32F0xx_HAL_Driver/Src/stm32f0xx_hal_tsc.c ****      Then, the user first registers the MspInit/MspDeInit user callbacks
 125:Drivers/STM32F0xx_HAL_Driver/Src/stm32f0xx_hal_tsc.c ****      using @ref HAL_TSC_RegisterCallback() before calling @ref HAL_TSC_DeInit()
 126:Drivers/STM32F0xx_HAL_Driver/Src/stm32f0xx_hal_tsc.c ****      or @ref HAL_TSC_Init() function.
 127:Drivers/STM32F0xx_HAL_Driver/Src/stm32f0xx_hal_tsc.c **** 
 128:Drivers/STM32F0xx_HAL_Driver/Src/stm32f0xx_hal_tsc.c ****   [..]
 129:Drivers/STM32F0xx_HAL_Driver/Src/stm32f0xx_hal_tsc.c ****      When the compilation flag USE_HAL_TSC_REGISTER_CALLBACKS is set to 0 or
 130:Drivers/STM32F0xx_HAL_Driver/Src/stm32f0xx_hal_tsc.c ****      not defined, the callback registration feature is not available and all callbacks
 131:Drivers/STM32F0xx_HAL_Driver/Src/stm32f0xx_hal_tsc.c ****      are set to the corresponding weak functions.
 132:Drivers/STM32F0xx_HAL_Driver/Src/stm32f0xx_hal_tsc.c **** 
 133:Drivers/STM32F0xx_HAL_Driver/Src/stm32f0xx_hal_tsc.c ****   @endverbatim
 134:Drivers/STM32F0xx_HAL_Driver/Src/stm32f0xx_hal_tsc.c ****   ******************************************************************************
 135:Drivers/STM32F0xx_HAL_Driver/Src/stm32f0xx_hal_tsc.c ****   ******************************************************************************
 136:Drivers/STM32F0xx_HAL_Driver/Src/stm32f0xx_hal_tsc.c ****   * @attention
 137:Drivers/STM32F0xx_HAL_Driver/Src/stm32f0xx_hal_tsc.c ****   *
 138:Drivers/STM32F0xx_HAL_Driver/Src/stm32f0xx_hal_tsc.c ****   * <h2><center>&copy; Copyright (c) 2016 STMicroelectronics.
 139:Drivers/STM32F0xx_HAL_Driver/Src/stm32f0xx_hal_tsc.c ****   * All rights reserved.</center></h2>
 140:Drivers/STM32F0xx_HAL_Driver/Src/stm32f0xx_hal_tsc.c ****   *
 141:Drivers/STM32F0xx_HAL_Driver/Src/stm32f0xx_hal_tsc.c ****   * This software component is licensed by ST under BSD 3-Clause license,
 142:Drivers/STM32F0xx_HAL_Driver/Src/stm32f0xx_hal_tsc.c ****   * the "License"; You may not use this file except in compliance with the
 143:Drivers/STM32F0xx_HAL_Driver/Src/stm32f0xx_hal_tsc.c ****   * License. You may obtain a copy of the License at:
 144:Drivers/STM32F0xx_HAL_Driver/Src/stm32f0xx_hal_tsc.c ****   *                        opensource.org/licenses/BSD-3-Clause
 145:Drivers/STM32F0xx_HAL_Driver/Src/stm32f0xx_hal_tsc.c ****   *
 146:Drivers/STM32F0xx_HAL_Driver/Src/stm32f0xx_hal_tsc.c ****   ******************************************************************************
ARM GAS  /tmp/cczP4HC8.s 			page 4


 147:Drivers/STM32F0xx_HAL_Driver/Src/stm32f0xx_hal_tsc.c ****   */
 148:Drivers/STM32F0xx_HAL_Driver/Src/stm32f0xx_hal_tsc.c **** 
 149:Drivers/STM32F0xx_HAL_Driver/Src/stm32f0xx_hal_tsc.c **** /* Includes ------------------------------------------------------------------*/
 150:Drivers/STM32F0xx_HAL_Driver/Src/stm32f0xx_hal_tsc.c **** #include "stm32f0xx_hal.h"
 151:Drivers/STM32F0xx_HAL_Driver/Src/stm32f0xx_hal_tsc.c **** 
 152:Drivers/STM32F0xx_HAL_Driver/Src/stm32f0xx_hal_tsc.c **** #if defined(TSC)
 153:Drivers/STM32F0xx_HAL_Driver/Src/stm32f0xx_hal_tsc.c **** /** @addtogroup STM32F0xx_HAL_Driver
 154:Drivers/STM32F0xx_HAL_Driver/Src/stm32f0xx_hal_tsc.c ****   * @{
 155:Drivers/STM32F0xx_HAL_Driver/Src/stm32f0xx_hal_tsc.c ****   */
 156:Drivers/STM32F0xx_HAL_Driver/Src/stm32f0xx_hal_tsc.c **** 
 157:Drivers/STM32F0xx_HAL_Driver/Src/stm32f0xx_hal_tsc.c **** /** @defgroup TSC TSC
 158:Drivers/STM32F0xx_HAL_Driver/Src/stm32f0xx_hal_tsc.c ****   * @brief HAL TSC module driver
 159:Drivers/STM32F0xx_HAL_Driver/Src/stm32f0xx_hal_tsc.c ****   * @{
 160:Drivers/STM32F0xx_HAL_Driver/Src/stm32f0xx_hal_tsc.c ****   */
 161:Drivers/STM32F0xx_HAL_Driver/Src/stm32f0xx_hal_tsc.c **** 
 162:Drivers/STM32F0xx_HAL_Driver/Src/stm32f0xx_hal_tsc.c **** #ifdef HAL_TSC_MODULE_ENABLED
 163:Drivers/STM32F0xx_HAL_Driver/Src/stm32f0xx_hal_tsc.c **** 
 164:Drivers/STM32F0xx_HAL_Driver/Src/stm32f0xx_hal_tsc.c **** /* Private typedef -----------------------------------------------------------*/
 165:Drivers/STM32F0xx_HAL_Driver/Src/stm32f0xx_hal_tsc.c **** /* Private define ------------------------------------------------------------*/
 166:Drivers/STM32F0xx_HAL_Driver/Src/stm32f0xx_hal_tsc.c **** /* Private macro -------------------------------------------------------------*/
 167:Drivers/STM32F0xx_HAL_Driver/Src/stm32f0xx_hal_tsc.c **** /* Private variables ---------------------------------------------------------*/
 168:Drivers/STM32F0xx_HAL_Driver/Src/stm32f0xx_hal_tsc.c **** /* Private function prototypes -----------------------------------------------*/
 169:Drivers/STM32F0xx_HAL_Driver/Src/stm32f0xx_hal_tsc.c **** static uint32_t TSC_extract_groups(uint32_t iomask);
 170:Drivers/STM32F0xx_HAL_Driver/Src/stm32f0xx_hal_tsc.c **** 
 171:Drivers/STM32F0xx_HAL_Driver/Src/stm32f0xx_hal_tsc.c **** /* Exported functions --------------------------------------------------------*/
 172:Drivers/STM32F0xx_HAL_Driver/Src/stm32f0xx_hal_tsc.c **** 
 173:Drivers/STM32F0xx_HAL_Driver/Src/stm32f0xx_hal_tsc.c **** /** @defgroup TSC_Exported_Functions TSC Exported Functions
 174:Drivers/STM32F0xx_HAL_Driver/Src/stm32f0xx_hal_tsc.c ****   * @{
 175:Drivers/STM32F0xx_HAL_Driver/Src/stm32f0xx_hal_tsc.c ****   */
 176:Drivers/STM32F0xx_HAL_Driver/Src/stm32f0xx_hal_tsc.c **** 
 177:Drivers/STM32F0xx_HAL_Driver/Src/stm32f0xx_hal_tsc.c **** /** @defgroup TSC_Exported_Functions_Group1 Initialization and de-initialization functions
 178:Drivers/STM32F0xx_HAL_Driver/Src/stm32f0xx_hal_tsc.c ****  *  @brief    Initialization and Configuration functions
 179:Drivers/STM32F0xx_HAL_Driver/Src/stm32f0xx_hal_tsc.c ****  *
 180:Drivers/STM32F0xx_HAL_Driver/Src/stm32f0xx_hal_tsc.c **** @verbatim
 181:Drivers/STM32F0xx_HAL_Driver/Src/stm32f0xx_hal_tsc.c ****  ===============================================================================
 182:Drivers/STM32F0xx_HAL_Driver/Src/stm32f0xx_hal_tsc.c ****               ##### Initialization and de-initialization functions #####
 183:Drivers/STM32F0xx_HAL_Driver/Src/stm32f0xx_hal_tsc.c ****  ===============================================================================
 184:Drivers/STM32F0xx_HAL_Driver/Src/stm32f0xx_hal_tsc.c ****     [..]  This section provides functions allowing to:
 185:Drivers/STM32F0xx_HAL_Driver/Src/stm32f0xx_hal_tsc.c ****       (+) Initialize and configure the TSC.
 186:Drivers/STM32F0xx_HAL_Driver/Src/stm32f0xx_hal_tsc.c ****       (+) De-initialize the TSC.
 187:Drivers/STM32F0xx_HAL_Driver/Src/stm32f0xx_hal_tsc.c **** @endverbatim
 188:Drivers/STM32F0xx_HAL_Driver/Src/stm32f0xx_hal_tsc.c ****   * @{
 189:Drivers/STM32F0xx_HAL_Driver/Src/stm32f0xx_hal_tsc.c ****   */
 190:Drivers/STM32F0xx_HAL_Driver/Src/stm32f0xx_hal_tsc.c **** 
 191:Drivers/STM32F0xx_HAL_Driver/Src/stm32f0xx_hal_tsc.c **** /**
 192:Drivers/STM32F0xx_HAL_Driver/Src/stm32f0xx_hal_tsc.c ****   * @brief  Initialize the TSC peripheral according to the specified parameters
 193:Drivers/STM32F0xx_HAL_Driver/Src/stm32f0xx_hal_tsc.c ****   *         in the TSC_InitTypeDef structure and initialize the associated handle.
 194:Drivers/STM32F0xx_HAL_Driver/Src/stm32f0xx_hal_tsc.c ****   * @param  htsc TSC handle
 195:Drivers/STM32F0xx_HAL_Driver/Src/stm32f0xx_hal_tsc.c ****   * @retval HAL status
 196:Drivers/STM32F0xx_HAL_Driver/Src/stm32f0xx_hal_tsc.c ****   */
 197:Drivers/STM32F0xx_HAL_Driver/Src/stm32f0xx_hal_tsc.c **** HAL_StatusTypeDef HAL_TSC_Init(TSC_HandleTypeDef *htsc)
 198:Drivers/STM32F0xx_HAL_Driver/Src/stm32f0xx_hal_tsc.c **** {
 199:Drivers/STM32F0xx_HAL_Driver/Src/stm32f0xx_hal_tsc.c ****   /* Check TSC handle allocation */
 200:Drivers/STM32F0xx_HAL_Driver/Src/stm32f0xx_hal_tsc.c ****   if (htsc == NULL)
 201:Drivers/STM32F0xx_HAL_Driver/Src/stm32f0xx_hal_tsc.c ****   {
 202:Drivers/STM32F0xx_HAL_Driver/Src/stm32f0xx_hal_tsc.c ****     return HAL_ERROR;
 203:Drivers/STM32F0xx_HAL_Driver/Src/stm32f0xx_hal_tsc.c ****   }
ARM GAS  /tmp/cczP4HC8.s 			page 5


 204:Drivers/STM32F0xx_HAL_Driver/Src/stm32f0xx_hal_tsc.c **** 
 205:Drivers/STM32F0xx_HAL_Driver/Src/stm32f0xx_hal_tsc.c ****   /* Check the parameters */
 206:Drivers/STM32F0xx_HAL_Driver/Src/stm32f0xx_hal_tsc.c ****   assert_param(IS_TSC_ALL_INSTANCE(htsc->Instance));
 207:Drivers/STM32F0xx_HAL_Driver/Src/stm32f0xx_hal_tsc.c ****   assert_param(IS_TSC_CTPH(htsc->Init.CTPulseHighLength));
 208:Drivers/STM32F0xx_HAL_Driver/Src/stm32f0xx_hal_tsc.c ****   assert_param(IS_TSC_CTPL(htsc->Init.CTPulseLowLength));
 209:Drivers/STM32F0xx_HAL_Driver/Src/stm32f0xx_hal_tsc.c ****   assert_param(IS_TSC_SS(htsc->Init.SpreadSpectrum));
 210:Drivers/STM32F0xx_HAL_Driver/Src/stm32f0xx_hal_tsc.c ****   assert_param(IS_TSC_SSD(htsc->Init.SpreadSpectrumDeviation));
 211:Drivers/STM32F0xx_HAL_Driver/Src/stm32f0xx_hal_tsc.c ****   assert_param(IS_TSC_SS_PRESC(htsc->Init.SpreadSpectrumPrescaler));
 212:Drivers/STM32F0xx_HAL_Driver/Src/stm32f0xx_hal_tsc.c ****   assert_param(IS_TSC_PG_PRESC(htsc->Init.PulseGeneratorPrescaler));
 213:Drivers/STM32F0xx_HAL_Driver/Src/stm32f0xx_hal_tsc.c ****   assert_param(IS_TSC_MCV(htsc->Init.MaxCountValue));
 214:Drivers/STM32F0xx_HAL_Driver/Src/stm32f0xx_hal_tsc.c ****   assert_param(IS_TSC_IODEF(htsc->Init.IODefaultMode));
 215:Drivers/STM32F0xx_HAL_Driver/Src/stm32f0xx_hal_tsc.c ****   assert_param(IS_TSC_SYNC_POL(htsc->Init.SynchroPinPolarity));
 216:Drivers/STM32F0xx_HAL_Driver/Src/stm32f0xx_hal_tsc.c ****   assert_param(IS_TSC_ACQ_MODE(htsc->Init.AcquisitionMode));
 217:Drivers/STM32F0xx_HAL_Driver/Src/stm32f0xx_hal_tsc.c ****   assert_param(IS_TSC_MCE_IT(htsc->Init.MaxCountInterrupt));
 218:Drivers/STM32F0xx_HAL_Driver/Src/stm32f0xx_hal_tsc.c ****   assert_param(IS_TSC_GROUP(htsc->Init.ChannelIOs));
 219:Drivers/STM32F0xx_HAL_Driver/Src/stm32f0xx_hal_tsc.c ****   assert_param(IS_TSC_GROUP(htsc->Init.ShieldIOs));
 220:Drivers/STM32F0xx_HAL_Driver/Src/stm32f0xx_hal_tsc.c ****   assert_param(IS_TSC_GROUP(htsc->Init.SamplingIOs));
 221:Drivers/STM32F0xx_HAL_Driver/Src/stm32f0xx_hal_tsc.c **** 
 222:Drivers/STM32F0xx_HAL_Driver/Src/stm32f0xx_hal_tsc.c ****   if (htsc->State == HAL_TSC_STATE_RESET)
 223:Drivers/STM32F0xx_HAL_Driver/Src/stm32f0xx_hal_tsc.c ****   {
 224:Drivers/STM32F0xx_HAL_Driver/Src/stm32f0xx_hal_tsc.c ****     /* Allocate lock resource and initialize it */
 225:Drivers/STM32F0xx_HAL_Driver/Src/stm32f0xx_hal_tsc.c ****     htsc->Lock = HAL_UNLOCKED;
 226:Drivers/STM32F0xx_HAL_Driver/Src/stm32f0xx_hal_tsc.c **** 
 227:Drivers/STM32F0xx_HAL_Driver/Src/stm32f0xx_hal_tsc.c **** #if (USE_HAL_TSC_REGISTER_CALLBACKS == 1)
 228:Drivers/STM32F0xx_HAL_Driver/Src/stm32f0xx_hal_tsc.c ****     /* Init the TSC Callback settings */
 229:Drivers/STM32F0xx_HAL_Driver/Src/stm32f0xx_hal_tsc.c ****     htsc->ConvCpltCallback  = HAL_TSC_ConvCpltCallback; /* Legacy weak ConvCpltCallback     */
 230:Drivers/STM32F0xx_HAL_Driver/Src/stm32f0xx_hal_tsc.c ****     htsc->ErrorCallback     = HAL_TSC_ErrorCallback;    /* Legacy weak ErrorCallback        */
 231:Drivers/STM32F0xx_HAL_Driver/Src/stm32f0xx_hal_tsc.c **** 
 232:Drivers/STM32F0xx_HAL_Driver/Src/stm32f0xx_hal_tsc.c ****     if (htsc->MspInitCallback == NULL)
 233:Drivers/STM32F0xx_HAL_Driver/Src/stm32f0xx_hal_tsc.c ****     {
 234:Drivers/STM32F0xx_HAL_Driver/Src/stm32f0xx_hal_tsc.c ****       htsc->MspInitCallback = HAL_TSC_MspInit; /* Legacy weak MspInit  */
 235:Drivers/STM32F0xx_HAL_Driver/Src/stm32f0xx_hal_tsc.c ****     }
 236:Drivers/STM32F0xx_HAL_Driver/Src/stm32f0xx_hal_tsc.c **** 
 237:Drivers/STM32F0xx_HAL_Driver/Src/stm32f0xx_hal_tsc.c ****     /* Init the low level hardware : GPIO, CLOCK, CORTEX...etc */
 238:Drivers/STM32F0xx_HAL_Driver/Src/stm32f0xx_hal_tsc.c ****     htsc->MspInitCallback(htsc);
 239:Drivers/STM32F0xx_HAL_Driver/Src/stm32f0xx_hal_tsc.c **** #else
 240:Drivers/STM32F0xx_HAL_Driver/Src/stm32f0xx_hal_tsc.c ****     /* Init the low level hardware : GPIO, CLOCK, CORTEX */
 241:Drivers/STM32F0xx_HAL_Driver/Src/stm32f0xx_hal_tsc.c ****     HAL_TSC_MspInit(htsc);
 242:Drivers/STM32F0xx_HAL_Driver/Src/stm32f0xx_hal_tsc.c **** #endif /* USE_HAL_TSC_REGISTER_CALLBACKS */
 243:Drivers/STM32F0xx_HAL_Driver/Src/stm32f0xx_hal_tsc.c ****   }
 244:Drivers/STM32F0xx_HAL_Driver/Src/stm32f0xx_hal_tsc.c **** 
 245:Drivers/STM32F0xx_HAL_Driver/Src/stm32f0xx_hal_tsc.c ****   /* Initialize the TSC state */
 246:Drivers/STM32F0xx_HAL_Driver/Src/stm32f0xx_hal_tsc.c ****   htsc->State = HAL_TSC_STATE_BUSY;
 247:Drivers/STM32F0xx_HAL_Driver/Src/stm32f0xx_hal_tsc.c **** 
 248:Drivers/STM32F0xx_HAL_Driver/Src/stm32f0xx_hal_tsc.c ****   /*--------------------------------------------------------------------------*/
 249:Drivers/STM32F0xx_HAL_Driver/Src/stm32f0xx_hal_tsc.c ****   /* Set TSC parameters */
 250:Drivers/STM32F0xx_HAL_Driver/Src/stm32f0xx_hal_tsc.c **** 
 251:Drivers/STM32F0xx_HAL_Driver/Src/stm32f0xx_hal_tsc.c ****   /* Enable TSC */
 252:Drivers/STM32F0xx_HAL_Driver/Src/stm32f0xx_hal_tsc.c ****   htsc->Instance->CR = TSC_CR_TSCE;
 253:Drivers/STM32F0xx_HAL_Driver/Src/stm32f0xx_hal_tsc.c **** 
 254:Drivers/STM32F0xx_HAL_Driver/Src/stm32f0xx_hal_tsc.c ****   /* Set all functions */
 255:Drivers/STM32F0xx_HAL_Driver/Src/stm32f0xx_hal_tsc.c ****   htsc->Instance->CR |= (htsc->Init.CTPulseHighLength |
 256:Drivers/STM32F0xx_HAL_Driver/Src/stm32f0xx_hal_tsc.c ****                          htsc->Init.CTPulseLowLength |
 257:Drivers/STM32F0xx_HAL_Driver/Src/stm32f0xx_hal_tsc.c ****                          (htsc->Init.SpreadSpectrumDeviation << TSC_CR_SSD_Pos) |
 258:Drivers/STM32F0xx_HAL_Driver/Src/stm32f0xx_hal_tsc.c ****                          htsc->Init.SpreadSpectrumPrescaler |
 259:Drivers/STM32F0xx_HAL_Driver/Src/stm32f0xx_hal_tsc.c ****                          htsc->Init.PulseGeneratorPrescaler |
 260:Drivers/STM32F0xx_HAL_Driver/Src/stm32f0xx_hal_tsc.c ****                          htsc->Init.MaxCountValue |
ARM GAS  /tmp/cczP4HC8.s 			page 6


 261:Drivers/STM32F0xx_HAL_Driver/Src/stm32f0xx_hal_tsc.c ****                          htsc->Init.SynchroPinPolarity |
 262:Drivers/STM32F0xx_HAL_Driver/Src/stm32f0xx_hal_tsc.c ****                          htsc->Init.AcquisitionMode);
 263:Drivers/STM32F0xx_HAL_Driver/Src/stm32f0xx_hal_tsc.c **** 
 264:Drivers/STM32F0xx_HAL_Driver/Src/stm32f0xx_hal_tsc.c ****   /* Spread spectrum */
 265:Drivers/STM32F0xx_HAL_Driver/Src/stm32f0xx_hal_tsc.c ****   if (htsc->Init.SpreadSpectrum == ENABLE)
 266:Drivers/STM32F0xx_HAL_Driver/Src/stm32f0xx_hal_tsc.c ****   {
 267:Drivers/STM32F0xx_HAL_Driver/Src/stm32f0xx_hal_tsc.c ****     htsc->Instance->CR |= TSC_CR_SSE;
 268:Drivers/STM32F0xx_HAL_Driver/Src/stm32f0xx_hal_tsc.c ****   }
 269:Drivers/STM32F0xx_HAL_Driver/Src/stm32f0xx_hal_tsc.c **** 
 270:Drivers/STM32F0xx_HAL_Driver/Src/stm32f0xx_hal_tsc.c ****   /* Disable Schmitt trigger hysteresis on all used TSC IOs */
 271:Drivers/STM32F0xx_HAL_Driver/Src/stm32f0xx_hal_tsc.c ****   htsc->Instance->IOHCR = (~(htsc->Init.ChannelIOs | htsc->Init.ShieldIOs | htsc->Init.SamplingIOs)
 272:Drivers/STM32F0xx_HAL_Driver/Src/stm32f0xx_hal_tsc.c **** 
 273:Drivers/STM32F0xx_HAL_Driver/Src/stm32f0xx_hal_tsc.c ****   /* Set channel and shield IOs */
 274:Drivers/STM32F0xx_HAL_Driver/Src/stm32f0xx_hal_tsc.c ****   htsc->Instance->IOCCR = (htsc->Init.ChannelIOs | htsc->Init.ShieldIOs);
 275:Drivers/STM32F0xx_HAL_Driver/Src/stm32f0xx_hal_tsc.c **** 
 276:Drivers/STM32F0xx_HAL_Driver/Src/stm32f0xx_hal_tsc.c ****   /* Set sampling IOs */
 277:Drivers/STM32F0xx_HAL_Driver/Src/stm32f0xx_hal_tsc.c ****   htsc->Instance->IOSCR = htsc->Init.SamplingIOs;
 278:Drivers/STM32F0xx_HAL_Driver/Src/stm32f0xx_hal_tsc.c **** 
 279:Drivers/STM32F0xx_HAL_Driver/Src/stm32f0xx_hal_tsc.c ****   /* Set the groups to be acquired */
 280:Drivers/STM32F0xx_HAL_Driver/Src/stm32f0xx_hal_tsc.c ****   htsc->Instance->IOGCSR = TSC_extract_groups(htsc->Init.ChannelIOs);
 281:Drivers/STM32F0xx_HAL_Driver/Src/stm32f0xx_hal_tsc.c **** 
 282:Drivers/STM32F0xx_HAL_Driver/Src/stm32f0xx_hal_tsc.c ****   /* Disable interrupts */
 283:Drivers/STM32F0xx_HAL_Driver/Src/stm32f0xx_hal_tsc.c ****   htsc->Instance->IER &= (~(TSC_IT_EOA | TSC_IT_MCE));
 284:Drivers/STM32F0xx_HAL_Driver/Src/stm32f0xx_hal_tsc.c **** 
 285:Drivers/STM32F0xx_HAL_Driver/Src/stm32f0xx_hal_tsc.c ****   /* Clear flags */
 286:Drivers/STM32F0xx_HAL_Driver/Src/stm32f0xx_hal_tsc.c ****   htsc->Instance->ICR = (TSC_FLAG_EOA | TSC_FLAG_MCE);
 287:Drivers/STM32F0xx_HAL_Driver/Src/stm32f0xx_hal_tsc.c **** 
 288:Drivers/STM32F0xx_HAL_Driver/Src/stm32f0xx_hal_tsc.c ****   /*--------------------------------------------------------------------------*/
 289:Drivers/STM32F0xx_HAL_Driver/Src/stm32f0xx_hal_tsc.c **** 
 290:Drivers/STM32F0xx_HAL_Driver/Src/stm32f0xx_hal_tsc.c ****   /* Initialize the TSC state */
 291:Drivers/STM32F0xx_HAL_Driver/Src/stm32f0xx_hal_tsc.c ****   htsc->State = HAL_TSC_STATE_READY;
 292:Drivers/STM32F0xx_HAL_Driver/Src/stm32f0xx_hal_tsc.c **** 
 293:Drivers/STM32F0xx_HAL_Driver/Src/stm32f0xx_hal_tsc.c ****   /* Return function status */
 294:Drivers/STM32F0xx_HAL_Driver/Src/stm32f0xx_hal_tsc.c ****   return HAL_OK;
 295:Drivers/STM32F0xx_HAL_Driver/Src/stm32f0xx_hal_tsc.c **** }
 296:Drivers/STM32F0xx_HAL_Driver/Src/stm32f0xx_hal_tsc.c **** 
 297:Drivers/STM32F0xx_HAL_Driver/Src/stm32f0xx_hal_tsc.c **** /**
 298:Drivers/STM32F0xx_HAL_Driver/Src/stm32f0xx_hal_tsc.c ****   * @brief  Deinitialize the TSC peripheral registers to their default reset values.
 299:Drivers/STM32F0xx_HAL_Driver/Src/stm32f0xx_hal_tsc.c ****   * @param  htsc TSC handle
 300:Drivers/STM32F0xx_HAL_Driver/Src/stm32f0xx_hal_tsc.c ****   * @retval HAL status
 301:Drivers/STM32F0xx_HAL_Driver/Src/stm32f0xx_hal_tsc.c ****   */
 302:Drivers/STM32F0xx_HAL_Driver/Src/stm32f0xx_hal_tsc.c **** HAL_StatusTypeDef HAL_TSC_DeInit(TSC_HandleTypeDef *htsc)
 303:Drivers/STM32F0xx_HAL_Driver/Src/stm32f0xx_hal_tsc.c **** {
 304:Drivers/STM32F0xx_HAL_Driver/Src/stm32f0xx_hal_tsc.c ****   /* Check TSC handle allocation */
 305:Drivers/STM32F0xx_HAL_Driver/Src/stm32f0xx_hal_tsc.c ****   if (htsc == NULL)
 306:Drivers/STM32F0xx_HAL_Driver/Src/stm32f0xx_hal_tsc.c ****   {
 307:Drivers/STM32F0xx_HAL_Driver/Src/stm32f0xx_hal_tsc.c ****     return HAL_ERROR;
 308:Drivers/STM32F0xx_HAL_Driver/Src/stm32f0xx_hal_tsc.c ****   }
 309:Drivers/STM32F0xx_HAL_Driver/Src/stm32f0xx_hal_tsc.c **** 
 310:Drivers/STM32F0xx_HAL_Driver/Src/stm32f0xx_hal_tsc.c ****   /* Check the parameters */
 311:Drivers/STM32F0xx_HAL_Driver/Src/stm32f0xx_hal_tsc.c ****   assert_param(IS_TSC_ALL_INSTANCE(htsc->Instance));
 312:Drivers/STM32F0xx_HAL_Driver/Src/stm32f0xx_hal_tsc.c **** 
 313:Drivers/STM32F0xx_HAL_Driver/Src/stm32f0xx_hal_tsc.c ****   /* Change TSC state */
 314:Drivers/STM32F0xx_HAL_Driver/Src/stm32f0xx_hal_tsc.c ****   htsc->State = HAL_TSC_STATE_BUSY;
 315:Drivers/STM32F0xx_HAL_Driver/Src/stm32f0xx_hal_tsc.c **** 
 316:Drivers/STM32F0xx_HAL_Driver/Src/stm32f0xx_hal_tsc.c **** #if (USE_HAL_TSC_REGISTER_CALLBACKS == 1)
 317:Drivers/STM32F0xx_HAL_Driver/Src/stm32f0xx_hal_tsc.c ****   if (htsc->MspDeInitCallback == NULL)
ARM GAS  /tmp/cczP4HC8.s 			page 7


 318:Drivers/STM32F0xx_HAL_Driver/Src/stm32f0xx_hal_tsc.c ****   {
 319:Drivers/STM32F0xx_HAL_Driver/Src/stm32f0xx_hal_tsc.c ****     htsc->MspDeInitCallback = HAL_TSC_MspDeInit; /* Legacy weak MspDeInit  */
 320:Drivers/STM32F0xx_HAL_Driver/Src/stm32f0xx_hal_tsc.c ****   }
 321:Drivers/STM32F0xx_HAL_Driver/Src/stm32f0xx_hal_tsc.c **** 
 322:Drivers/STM32F0xx_HAL_Driver/Src/stm32f0xx_hal_tsc.c ****   /* DeInit the low level hardware: GPIO, CLOCK, NVIC */
 323:Drivers/STM32F0xx_HAL_Driver/Src/stm32f0xx_hal_tsc.c ****   htsc->MspDeInitCallback(htsc);
 324:Drivers/STM32F0xx_HAL_Driver/Src/stm32f0xx_hal_tsc.c **** #else
 325:Drivers/STM32F0xx_HAL_Driver/Src/stm32f0xx_hal_tsc.c ****   /* DeInit the low level hardware */
 326:Drivers/STM32F0xx_HAL_Driver/Src/stm32f0xx_hal_tsc.c ****   HAL_TSC_MspDeInit(htsc);
 327:Drivers/STM32F0xx_HAL_Driver/Src/stm32f0xx_hal_tsc.c **** #endif /* USE_HAL_TSC_REGISTER_CALLBACKS */
 328:Drivers/STM32F0xx_HAL_Driver/Src/stm32f0xx_hal_tsc.c **** 
 329:Drivers/STM32F0xx_HAL_Driver/Src/stm32f0xx_hal_tsc.c ****   /* Change TSC state */
 330:Drivers/STM32F0xx_HAL_Driver/Src/stm32f0xx_hal_tsc.c ****   htsc->State = HAL_TSC_STATE_RESET;
 331:Drivers/STM32F0xx_HAL_Driver/Src/stm32f0xx_hal_tsc.c **** 
 332:Drivers/STM32F0xx_HAL_Driver/Src/stm32f0xx_hal_tsc.c ****   /* Process unlocked */
 333:Drivers/STM32F0xx_HAL_Driver/Src/stm32f0xx_hal_tsc.c ****   __HAL_UNLOCK(htsc);
 334:Drivers/STM32F0xx_HAL_Driver/Src/stm32f0xx_hal_tsc.c **** 
 335:Drivers/STM32F0xx_HAL_Driver/Src/stm32f0xx_hal_tsc.c ****   /* Return function status */
 336:Drivers/STM32F0xx_HAL_Driver/Src/stm32f0xx_hal_tsc.c ****   return HAL_OK;
 337:Drivers/STM32F0xx_HAL_Driver/Src/stm32f0xx_hal_tsc.c **** }
 338:Drivers/STM32F0xx_HAL_Driver/Src/stm32f0xx_hal_tsc.c **** 
 339:Drivers/STM32F0xx_HAL_Driver/Src/stm32f0xx_hal_tsc.c **** /**
 340:Drivers/STM32F0xx_HAL_Driver/Src/stm32f0xx_hal_tsc.c ****   * @brief  Initialize the TSC MSP.
 341:Drivers/STM32F0xx_HAL_Driver/Src/stm32f0xx_hal_tsc.c ****   * @param  htsc Pointer to a TSC_HandleTypeDef structure that contains
 342:Drivers/STM32F0xx_HAL_Driver/Src/stm32f0xx_hal_tsc.c ****   *         the configuration information for the specified TSC.
 343:Drivers/STM32F0xx_HAL_Driver/Src/stm32f0xx_hal_tsc.c ****   * @retval None
 344:Drivers/STM32F0xx_HAL_Driver/Src/stm32f0xx_hal_tsc.c ****   */
 345:Drivers/STM32F0xx_HAL_Driver/Src/stm32f0xx_hal_tsc.c **** __weak void HAL_TSC_MspInit(TSC_HandleTypeDef *htsc)
 346:Drivers/STM32F0xx_HAL_Driver/Src/stm32f0xx_hal_tsc.c **** {
 347:Drivers/STM32F0xx_HAL_Driver/Src/stm32f0xx_hal_tsc.c ****   /* Prevent unused argument(s) compilation warning */
 348:Drivers/STM32F0xx_HAL_Driver/Src/stm32f0xx_hal_tsc.c ****   UNUSED(htsc);
 349:Drivers/STM32F0xx_HAL_Driver/Src/stm32f0xx_hal_tsc.c **** 
 350:Drivers/STM32F0xx_HAL_Driver/Src/stm32f0xx_hal_tsc.c ****   /* NOTE : This function should not be modified, when the callback is needed,
 351:Drivers/STM32F0xx_HAL_Driver/Src/stm32f0xx_hal_tsc.c ****             the HAL_TSC_MspInit could be implemented in the user file.
 352:Drivers/STM32F0xx_HAL_Driver/Src/stm32f0xx_hal_tsc.c ****    */
 353:Drivers/STM32F0xx_HAL_Driver/Src/stm32f0xx_hal_tsc.c **** }
 354:Drivers/STM32F0xx_HAL_Driver/Src/stm32f0xx_hal_tsc.c **** 
 355:Drivers/STM32F0xx_HAL_Driver/Src/stm32f0xx_hal_tsc.c **** /**
 356:Drivers/STM32F0xx_HAL_Driver/Src/stm32f0xx_hal_tsc.c ****   * @brief  DeInitialize the TSC MSP.
 357:Drivers/STM32F0xx_HAL_Driver/Src/stm32f0xx_hal_tsc.c ****   * @param  htsc Pointer to a TSC_HandleTypeDef structure that contains
 358:Drivers/STM32F0xx_HAL_Driver/Src/stm32f0xx_hal_tsc.c ****   *         the configuration information for the specified TSC.
 359:Drivers/STM32F0xx_HAL_Driver/Src/stm32f0xx_hal_tsc.c ****   * @retval None
 360:Drivers/STM32F0xx_HAL_Driver/Src/stm32f0xx_hal_tsc.c ****   */
 361:Drivers/STM32F0xx_HAL_Driver/Src/stm32f0xx_hal_tsc.c **** __weak void HAL_TSC_MspDeInit(TSC_HandleTypeDef *htsc)
 362:Drivers/STM32F0xx_HAL_Driver/Src/stm32f0xx_hal_tsc.c **** {
 363:Drivers/STM32F0xx_HAL_Driver/Src/stm32f0xx_hal_tsc.c ****   /* Prevent unused argument(s) compilation warning */
 364:Drivers/STM32F0xx_HAL_Driver/Src/stm32f0xx_hal_tsc.c ****   UNUSED(htsc);
 365:Drivers/STM32F0xx_HAL_Driver/Src/stm32f0xx_hal_tsc.c **** 
 366:Drivers/STM32F0xx_HAL_Driver/Src/stm32f0xx_hal_tsc.c ****   /* NOTE : This function should not be modified, when the callback is needed,
 367:Drivers/STM32F0xx_HAL_Driver/Src/stm32f0xx_hal_tsc.c ****             the HAL_TSC_MspDeInit could be implemented in the user file.
 368:Drivers/STM32F0xx_HAL_Driver/Src/stm32f0xx_hal_tsc.c ****    */
 369:Drivers/STM32F0xx_HAL_Driver/Src/stm32f0xx_hal_tsc.c **** }
 370:Drivers/STM32F0xx_HAL_Driver/Src/stm32f0xx_hal_tsc.c **** 
 371:Drivers/STM32F0xx_HAL_Driver/Src/stm32f0xx_hal_tsc.c **** #if (USE_HAL_TSC_REGISTER_CALLBACKS == 1)
 372:Drivers/STM32F0xx_HAL_Driver/Src/stm32f0xx_hal_tsc.c **** /**
 373:Drivers/STM32F0xx_HAL_Driver/Src/stm32f0xx_hal_tsc.c ****   * @brief  Register a User TSC Callback
 374:Drivers/STM32F0xx_HAL_Driver/Src/stm32f0xx_hal_tsc.c ****   *         To be used instead of the weak predefined callback
ARM GAS  /tmp/cczP4HC8.s 			page 8


 375:Drivers/STM32F0xx_HAL_Driver/Src/stm32f0xx_hal_tsc.c ****   * @param  htsc Pointer to a TSC_HandleTypeDef structure that contains
 376:Drivers/STM32F0xx_HAL_Driver/Src/stm32f0xx_hal_tsc.c ****   *                the configuration information for the specified TSC.
 377:Drivers/STM32F0xx_HAL_Driver/Src/stm32f0xx_hal_tsc.c ****   * @param  CallbackID ID of the callback to be registered
 378:Drivers/STM32F0xx_HAL_Driver/Src/stm32f0xx_hal_tsc.c ****   *         This parameter can be one of the following values:
 379:Drivers/STM32F0xx_HAL_Driver/Src/stm32f0xx_hal_tsc.c ****   *          @arg @ref HAL_TSC_CONV_COMPLETE_CB_ID Conversion completed callback ID
 380:Drivers/STM32F0xx_HAL_Driver/Src/stm32f0xx_hal_tsc.c ****   *          @arg @ref HAL_TSC_ERROR_CB_ID Error callback ID
 381:Drivers/STM32F0xx_HAL_Driver/Src/stm32f0xx_hal_tsc.c ****   *          @arg @ref HAL_TSC_MSPINIT_CB_ID MspInit callback ID
 382:Drivers/STM32F0xx_HAL_Driver/Src/stm32f0xx_hal_tsc.c ****   *          @arg @ref HAL_TSC_MSPDEINIT_CB_ID MspDeInit callback ID
 383:Drivers/STM32F0xx_HAL_Driver/Src/stm32f0xx_hal_tsc.c ****   * @param  pCallback pointer to the Callback function
 384:Drivers/STM32F0xx_HAL_Driver/Src/stm32f0xx_hal_tsc.c ****   * @retval HAL status
 385:Drivers/STM32F0xx_HAL_Driver/Src/stm32f0xx_hal_tsc.c ****   */
 386:Drivers/STM32F0xx_HAL_Driver/Src/stm32f0xx_hal_tsc.c **** HAL_StatusTypeDef HAL_TSC_RegisterCallback(TSC_HandleTypeDef *htsc, HAL_TSC_CallbackIDTypeDef Callb
 387:Drivers/STM32F0xx_HAL_Driver/Src/stm32f0xx_hal_tsc.c **** {
 388:Drivers/STM32F0xx_HAL_Driver/Src/stm32f0xx_hal_tsc.c ****   HAL_StatusTypeDef status = HAL_OK;
 389:Drivers/STM32F0xx_HAL_Driver/Src/stm32f0xx_hal_tsc.c **** 
 390:Drivers/STM32F0xx_HAL_Driver/Src/stm32f0xx_hal_tsc.c ****   if (pCallback == NULL)
 391:Drivers/STM32F0xx_HAL_Driver/Src/stm32f0xx_hal_tsc.c ****   {
 392:Drivers/STM32F0xx_HAL_Driver/Src/stm32f0xx_hal_tsc.c ****     /* Update the error code */
 393:Drivers/STM32F0xx_HAL_Driver/Src/stm32f0xx_hal_tsc.c ****     htsc->ErrorCode |= HAL_TSC_ERROR_INVALID_CALLBACK;
 394:Drivers/STM32F0xx_HAL_Driver/Src/stm32f0xx_hal_tsc.c **** 
 395:Drivers/STM32F0xx_HAL_Driver/Src/stm32f0xx_hal_tsc.c ****     return HAL_ERROR;
 396:Drivers/STM32F0xx_HAL_Driver/Src/stm32f0xx_hal_tsc.c ****   }
 397:Drivers/STM32F0xx_HAL_Driver/Src/stm32f0xx_hal_tsc.c ****   /* Process locked */
 398:Drivers/STM32F0xx_HAL_Driver/Src/stm32f0xx_hal_tsc.c ****   __HAL_LOCK(htsc);
 399:Drivers/STM32F0xx_HAL_Driver/Src/stm32f0xx_hal_tsc.c **** 
 400:Drivers/STM32F0xx_HAL_Driver/Src/stm32f0xx_hal_tsc.c ****   if (HAL_TSC_STATE_READY == htsc->State)
 401:Drivers/STM32F0xx_HAL_Driver/Src/stm32f0xx_hal_tsc.c ****   {
 402:Drivers/STM32F0xx_HAL_Driver/Src/stm32f0xx_hal_tsc.c ****     switch (CallbackID)
 403:Drivers/STM32F0xx_HAL_Driver/Src/stm32f0xx_hal_tsc.c ****     {
 404:Drivers/STM32F0xx_HAL_Driver/Src/stm32f0xx_hal_tsc.c ****       case HAL_TSC_CONV_COMPLETE_CB_ID :
 405:Drivers/STM32F0xx_HAL_Driver/Src/stm32f0xx_hal_tsc.c ****         htsc->ConvCpltCallback = pCallback;
 406:Drivers/STM32F0xx_HAL_Driver/Src/stm32f0xx_hal_tsc.c ****         break;
 407:Drivers/STM32F0xx_HAL_Driver/Src/stm32f0xx_hal_tsc.c **** 
 408:Drivers/STM32F0xx_HAL_Driver/Src/stm32f0xx_hal_tsc.c ****       case HAL_TSC_ERROR_CB_ID :
 409:Drivers/STM32F0xx_HAL_Driver/Src/stm32f0xx_hal_tsc.c ****         htsc->ErrorCallback = pCallback;
 410:Drivers/STM32F0xx_HAL_Driver/Src/stm32f0xx_hal_tsc.c ****         break;
 411:Drivers/STM32F0xx_HAL_Driver/Src/stm32f0xx_hal_tsc.c **** 
 412:Drivers/STM32F0xx_HAL_Driver/Src/stm32f0xx_hal_tsc.c ****       case HAL_TSC_MSPINIT_CB_ID :
 413:Drivers/STM32F0xx_HAL_Driver/Src/stm32f0xx_hal_tsc.c ****         htsc->MspInitCallback = pCallback;
 414:Drivers/STM32F0xx_HAL_Driver/Src/stm32f0xx_hal_tsc.c ****         break;
 415:Drivers/STM32F0xx_HAL_Driver/Src/stm32f0xx_hal_tsc.c **** 
 416:Drivers/STM32F0xx_HAL_Driver/Src/stm32f0xx_hal_tsc.c ****       case HAL_TSC_MSPDEINIT_CB_ID :
 417:Drivers/STM32F0xx_HAL_Driver/Src/stm32f0xx_hal_tsc.c ****         htsc->MspDeInitCallback = pCallback;
 418:Drivers/STM32F0xx_HAL_Driver/Src/stm32f0xx_hal_tsc.c ****         break;
 419:Drivers/STM32F0xx_HAL_Driver/Src/stm32f0xx_hal_tsc.c **** 
 420:Drivers/STM32F0xx_HAL_Driver/Src/stm32f0xx_hal_tsc.c ****       default :
 421:Drivers/STM32F0xx_HAL_Driver/Src/stm32f0xx_hal_tsc.c ****         /* Update the error code */
 422:Drivers/STM32F0xx_HAL_Driver/Src/stm32f0xx_hal_tsc.c ****         htsc->ErrorCode |= HAL_TSC_ERROR_INVALID_CALLBACK;
 423:Drivers/STM32F0xx_HAL_Driver/Src/stm32f0xx_hal_tsc.c **** 
 424:Drivers/STM32F0xx_HAL_Driver/Src/stm32f0xx_hal_tsc.c ****         /* Return error status */
 425:Drivers/STM32F0xx_HAL_Driver/Src/stm32f0xx_hal_tsc.c ****         status =  HAL_ERROR;
 426:Drivers/STM32F0xx_HAL_Driver/Src/stm32f0xx_hal_tsc.c ****         break;
 427:Drivers/STM32F0xx_HAL_Driver/Src/stm32f0xx_hal_tsc.c ****     }
 428:Drivers/STM32F0xx_HAL_Driver/Src/stm32f0xx_hal_tsc.c ****   }
 429:Drivers/STM32F0xx_HAL_Driver/Src/stm32f0xx_hal_tsc.c ****   else if (HAL_TSC_STATE_RESET == htsc->State)
 430:Drivers/STM32F0xx_HAL_Driver/Src/stm32f0xx_hal_tsc.c ****   {
 431:Drivers/STM32F0xx_HAL_Driver/Src/stm32f0xx_hal_tsc.c ****     switch (CallbackID)
ARM GAS  /tmp/cczP4HC8.s 			page 9


 432:Drivers/STM32F0xx_HAL_Driver/Src/stm32f0xx_hal_tsc.c ****     {
 433:Drivers/STM32F0xx_HAL_Driver/Src/stm32f0xx_hal_tsc.c ****       case HAL_TSC_MSPINIT_CB_ID :
 434:Drivers/STM32F0xx_HAL_Driver/Src/stm32f0xx_hal_tsc.c ****         htsc->MspInitCallback = pCallback;
 435:Drivers/STM32F0xx_HAL_Driver/Src/stm32f0xx_hal_tsc.c ****         break;
 436:Drivers/STM32F0xx_HAL_Driver/Src/stm32f0xx_hal_tsc.c **** 
 437:Drivers/STM32F0xx_HAL_Driver/Src/stm32f0xx_hal_tsc.c ****       case HAL_TSC_MSPDEINIT_CB_ID :
 438:Drivers/STM32F0xx_HAL_Driver/Src/stm32f0xx_hal_tsc.c ****         htsc->MspDeInitCallback = pCallback;
 439:Drivers/STM32F0xx_HAL_Driver/Src/stm32f0xx_hal_tsc.c ****         break;
 440:Drivers/STM32F0xx_HAL_Driver/Src/stm32f0xx_hal_tsc.c **** 
 441:Drivers/STM32F0xx_HAL_Driver/Src/stm32f0xx_hal_tsc.c ****       default :
 442:Drivers/STM32F0xx_HAL_Driver/Src/stm32f0xx_hal_tsc.c ****         /* Update the error code */
 443:Drivers/STM32F0xx_HAL_Driver/Src/stm32f0xx_hal_tsc.c ****         htsc->ErrorCode |= HAL_TSC_ERROR_INVALID_CALLBACK;
 444:Drivers/STM32F0xx_HAL_Driver/Src/stm32f0xx_hal_tsc.c **** 
 445:Drivers/STM32F0xx_HAL_Driver/Src/stm32f0xx_hal_tsc.c ****         /* Return error status */
 446:Drivers/STM32F0xx_HAL_Driver/Src/stm32f0xx_hal_tsc.c ****         status =  HAL_ERROR;
 447:Drivers/STM32F0xx_HAL_Driver/Src/stm32f0xx_hal_tsc.c ****         break;
 448:Drivers/STM32F0xx_HAL_Driver/Src/stm32f0xx_hal_tsc.c ****     }
 449:Drivers/STM32F0xx_HAL_Driver/Src/stm32f0xx_hal_tsc.c ****   }
 450:Drivers/STM32F0xx_HAL_Driver/Src/stm32f0xx_hal_tsc.c ****   else
 451:Drivers/STM32F0xx_HAL_Driver/Src/stm32f0xx_hal_tsc.c ****   {
 452:Drivers/STM32F0xx_HAL_Driver/Src/stm32f0xx_hal_tsc.c ****     /* Update the error code */
 453:Drivers/STM32F0xx_HAL_Driver/Src/stm32f0xx_hal_tsc.c ****     htsc->ErrorCode |= HAL_TSC_ERROR_INVALID_CALLBACK;
 454:Drivers/STM32F0xx_HAL_Driver/Src/stm32f0xx_hal_tsc.c **** 
 455:Drivers/STM32F0xx_HAL_Driver/Src/stm32f0xx_hal_tsc.c ****     /* Return error status */
 456:Drivers/STM32F0xx_HAL_Driver/Src/stm32f0xx_hal_tsc.c ****     status =  HAL_ERROR;
 457:Drivers/STM32F0xx_HAL_Driver/Src/stm32f0xx_hal_tsc.c ****   }
 458:Drivers/STM32F0xx_HAL_Driver/Src/stm32f0xx_hal_tsc.c **** 
 459:Drivers/STM32F0xx_HAL_Driver/Src/stm32f0xx_hal_tsc.c ****   /* Release Lock */
 460:Drivers/STM32F0xx_HAL_Driver/Src/stm32f0xx_hal_tsc.c ****   __HAL_UNLOCK(htsc);
 461:Drivers/STM32F0xx_HAL_Driver/Src/stm32f0xx_hal_tsc.c ****   return status;
 462:Drivers/STM32F0xx_HAL_Driver/Src/stm32f0xx_hal_tsc.c **** }
 463:Drivers/STM32F0xx_HAL_Driver/Src/stm32f0xx_hal_tsc.c **** 
 464:Drivers/STM32F0xx_HAL_Driver/Src/stm32f0xx_hal_tsc.c **** /**
 465:Drivers/STM32F0xx_HAL_Driver/Src/stm32f0xx_hal_tsc.c ****   * @brief  Unregister an TSC Callback
 466:Drivers/STM32F0xx_HAL_Driver/Src/stm32f0xx_hal_tsc.c ****   *         TSC callback is redirected to the weak predefined callback
 467:Drivers/STM32F0xx_HAL_Driver/Src/stm32f0xx_hal_tsc.c ****   * @param  htsc Pointer to a TSC_HandleTypeDef structure that contains
 468:Drivers/STM32F0xx_HAL_Driver/Src/stm32f0xx_hal_tsc.c ****   *                the configuration information for the specified TSC.
 469:Drivers/STM32F0xx_HAL_Driver/Src/stm32f0xx_hal_tsc.c ****   * @param  CallbackID ID of the callback to be unregistered
 470:Drivers/STM32F0xx_HAL_Driver/Src/stm32f0xx_hal_tsc.c ****   *         This parameter can be one of the following values:
 471:Drivers/STM32F0xx_HAL_Driver/Src/stm32f0xx_hal_tsc.c ****   *         This parameter can be one of the following values:
 472:Drivers/STM32F0xx_HAL_Driver/Src/stm32f0xx_hal_tsc.c ****   *          @arg @ref HAL_TSC_CONV_COMPLETE_CB_ID Conversion completed callback ID
 473:Drivers/STM32F0xx_HAL_Driver/Src/stm32f0xx_hal_tsc.c ****   *          @arg @ref HAL_TSC_ERROR_CB_ID Error callback ID
 474:Drivers/STM32F0xx_HAL_Driver/Src/stm32f0xx_hal_tsc.c ****   *          @arg @ref HAL_TSC_MSPINIT_CB_ID MspInit callback ID
 475:Drivers/STM32F0xx_HAL_Driver/Src/stm32f0xx_hal_tsc.c ****   *          @arg @ref HAL_TSC_MSPDEINIT_CB_ID MspDeInit callback ID
 476:Drivers/STM32F0xx_HAL_Driver/Src/stm32f0xx_hal_tsc.c ****   * @retval HAL status
 477:Drivers/STM32F0xx_HAL_Driver/Src/stm32f0xx_hal_tsc.c ****   */
 478:Drivers/STM32F0xx_HAL_Driver/Src/stm32f0xx_hal_tsc.c **** HAL_StatusTypeDef HAL_TSC_UnRegisterCallback(TSC_HandleTypeDef *htsc, HAL_TSC_CallbackIDTypeDef Cal
 479:Drivers/STM32F0xx_HAL_Driver/Src/stm32f0xx_hal_tsc.c **** {
 480:Drivers/STM32F0xx_HAL_Driver/Src/stm32f0xx_hal_tsc.c ****   HAL_StatusTypeDef status = HAL_OK;
 481:Drivers/STM32F0xx_HAL_Driver/Src/stm32f0xx_hal_tsc.c **** 
 482:Drivers/STM32F0xx_HAL_Driver/Src/stm32f0xx_hal_tsc.c ****   /* Process locked */
 483:Drivers/STM32F0xx_HAL_Driver/Src/stm32f0xx_hal_tsc.c ****   __HAL_LOCK(htsc);
 484:Drivers/STM32F0xx_HAL_Driver/Src/stm32f0xx_hal_tsc.c **** 
 485:Drivers/STM32F0xx_HAL_Driver/Src/stm32f0xx_hal_tsc.c ****   if (HAL_TSC_STATE_READY == htsc->State)
 486:Drivers/STM32F0xx_HAL_Driver/Src/stm32f0xx_hal_tsc.c ****   {
 487:Drivers/STM32F0xx_HAL_Driver/Src/stm32f0xx_hal_tsc.c ****     switch (CallbackID)
 488:Drivers/STM32F0xx_HAL_Driver/Src/stm32f0xx_hal_tsc.c ****     {
ARM GAS  /tmp/cczP4HC8.s 			page 10


 489:Drivers/STM32F0xx_HAL_Driver/Src/stm32f0xx_hal_tsc.c ****       case HAL_TSC_CONV_COMPLETE_CB_ID :
 490:Drivers/STM32F0xx_HAL_Driver/Src/stm32f0xx_hal_tsc.c ****         htsc->ConvCpltCallback = HAL_TSC_ConvCpltCallback;       /* Legacy weak ConvCpltCallback   
 491:Drivers/STM32F0xx_HAL_Driver/Src/stm32f0xx_hal_tsc.c ****         break;
 492:Drivers/STM32F0xx_HAL_Driver/Src/stm32f0xx_hal_tsc.c **** 
 493:Drivers/STM32F0xx_HAL_Driver/Src/stm32f0xx_hal_tsc.c ****       case HAL_TSC_ERROR_CB_ID :
 494:Drivers/STM32F0xx_HAL_Driver/Src/stm32f0xx_hal_tsc.c ****         htsc->ErrorCallback = HAL_TSC_ErrorCallback;               /* Legacy weak ErrorCallback    
 495:Drivers/STM32F0xx_HAL_Driver/Src/stm32f0xx_hal_tsc.c ****         break;
 496:Drivers/STM32F0xx_HAL_Driver/Src/stm32f0xx_hal_tsc.c **** 
 497:Drivers/STM32F0xx_HAL_Driver/Src/stm32f0xx_hal_tsc.c ****       case HAL_TSC_MSPINIT_CB_ID :
 498:Drivers/STM32F0xx_HAL_Driver/Src/stm32f0xx_hal_tsc.c ****         htsc->MspInitCallback = HAL_TSC_MspInit;                   /* Legacy weak MspInit          
 499:Drivers/STM32F0xx_HAL_Driver/Src/stm32f0xx_hal_tsc.c ****         break;
 500:Drivers/STM32F0xx_HAL_Driver/Src/stm32f0xx_hal_tsc.c **** 
 501:Drivers/STM32F0xx_HAL_Driver/Src/stm32f0xx_hal_tsc.c ****       case HAL_TSC_MSPDEINIT_CB_ID :
 502:Drivers/STM32F0xx_HAL_Driver/Src/stm32f0xx_hal_tsc.c ****         htsc->MspDeInitCallback = HAL_TSC_MspDeInit;               /* Legacy weak MspDeInit        
 503:Drivers/STM32F0xx_HAL_Driver/Src/stm32f0xx_hal_tsc.c ****         break;
 504:Drivers/STM32F0xx_HAL_Driver/Src/stm32f0xx_hal_tsc.c **** 
 505:Drivers/STM32F0xx_HAL_Driver/Src/stm32f0xx_hal_tsc.c ****       default :
 506:Drivers/STM32F0xx_HAL_Driver/Src/stm32f0xx_hal_tsc.c ****         /* Update the error code */
 507:Drivers/STM32F0xx_HAL_Driver/Src/stm32f0xx_hal_tsc.c ****         htsc->ErrorCode |= HAL_TSC_ERROR_INVALID_CALLBACK;
 508:Drivers/STM32F0xx_HAL_Driver/Src/stm32f0xx_hal_tsc.c **** 
 509:Drivers/STM32F0xx_HAL_Driver/Src/stm32f0xx_hal_tsc.c ****         /* Return error status */
 510:Drivers/STM32F0xx_HAL_Driver/Src/stm32f0xx_hal_tsc.c ****         status =  HAL_ERROR;
 511:Drivers/STM32F0xx_HAL_Driver/Src/stm32f0xx_hal_tsc.c ****         break;
 512:Drivers/STM32F0xx_HAL_Driver/Src/stm32f0xx_hal_tsc.c ****     }
 513:Drivers/STM32F0xx_HAL_Driver/Src/stm32f0xx_hal_tsc.c ****   }
 514:Drivers/STM32F0xx_HAL_Driver/Src/stm32f0xx_hal_tsc.c ****   else if (HAL_TSC_STATE_RESET == htsc->State)
 515:Drivers/STM32F0xx_HAL_Driver/Src/stm32f0xx_hal_tsc.c ****   {
 516:Drivers/STM32F0xx_HAL_Driver/Src/stm32f0xx_hal_tsc.c ****     switch (CallbackID)
 517:Drivers/STM32F0xx_HAL_Driver/Src/stm32f0xx_hal_tsc.c ****     {
 518:Drivers/STM32F0xx_HAL_Driver/Src/stm32f0xx_hal_tsc.c ****       case HAL_TSC_MSPINIT_CB_ID :
 519:Drivers/STM32F0xx_HAL_Driver/Src/stm32f0xx_hal_tsc.c ****         htsc->MspInitCallback = HAL_TSC_MspInit;                   /* Legacy weak MspInit          
 520:Drivers/STM32F0xx_HAL_Driver/Src/stm32f0xx_hal_tsc.c ****         break;
 521:Drivers/STM32F0xx_HAL_Driver/Src/stm32f0xx_hal_tsc.c **** 
 522:Drivers/STM32F0xx_HAL_Driver/Src/stm32f0xx_hal_tsc.c ****       case HAL_TSC_MSPDEINIT_CB_ID :
 523:Drivers/STM32F0xx_HAL_Driver/Src/stm32f0xx_hal_tsc.c ****         htsc->MspDeInitCallback = HAL_TSC_MspDeInit;               /* Legacy weak MspDeInit        
 524:Drivers/STM32F0xx_HAL_Driver/Src/stm32f0xx_hal_tsc.c ****         break;
 525:Drivers/STM32F0xx_HAL_Driver/Src/stm32f0xx_hal_tsc.c **** 
 526:Drivers/STM32F0xx_HAL_Driver/Src/stm32f0xx_hal_tsc.c ****       default :
 527:Drivers/STM32F0xx_HAL_Driver/Src/stm32f0xx_hal_tsc.c ****         /* Update the error code */
 528:Drivers/STM32F0xx_HAL_Driver/Src/stm32f0xx_hal_tsc.c ****         htsc->ErrorCode |= HAL_TSC_ERROR_INVALID_CALLBACK;
 529:Drivers/STM32F0xx_HAL_Driver/Src/stm32f0xx_hal_tsc.c **** 
 530:Drivers/STM32F0xx_HAL_Driver/Src/stm32f0xx_hal_tsc.c ****         /* Return error status */
 531:Drivers/STM32F0xx_HAL_Driver/Src/stm32f0xx_hal_tsc.c ****         status =  HAL_ERROR;
 532:Drivers/STM32F0xx_HAL_Driver/Src/stm32f0xx_hal_tsc.c ****         break;
 533:Drivers/STM32F0xx_HAL_Driver/Src/stm32f0xx_hal_tsc.c ****     }
 534:Drivers/STM32F0xx_HAL_Driver/Src/stm32f0xx_hal_tsc.c ****   }
 535:Drivers/STM32F0xx_HAL_Driver/Src/stm32f0xx_hal_tsc.c ****   else
 536:Drivers/STM32F0xx_HAL_Driver/Src/stm32f0xx_hal_tsc.c ****   {
 537:Drivers/STM32F0xx_HAL_Driver/Src/stm32f0xx_hal_tsc.c ****     /* Update the error code */
 538:Drivers/STM32F0xx_HAL_Driver/Src/stm32f0xx_hal_tsc.c ****     htsc->ErrorCode |= HAL_TSC_ERROR_INVALID_CALLBACK;
 539:Drivers/STM32F0xx_HAL_Driver/Src/stm32f0xx_hal_tsc.c **** 
 540:Drivers/STM32F0xx_HAL_Driver/Src/stm32f0xx_hal_tsc.c ****     /* Return error status */
 541:Drivers/STM32F0xx_HAL_Driver/Src/stm32f0xx_hal_tsc.c ****     status =  HAL_ERROR;
 542:Drivers/STM32F0xx_HAL_Driver/Src/stm32f0xx_hal_tsc.c ****   }
 543:Drivers/STM32F0xx_HAL_Driver/Src/stm32f0xx_hal_tsc.c **** 
 544:Drivers/STM32F0xx_HAL_Driver/Src/stm32f0xx_hal_tsc.c ****   /* Release Lock */
 545:Drivers/STM32F0xx_HAL_Driver/Src/stm32f0xx_hal_tsc.c ****   __HAL_UNLOCK(htsc);
ARM GAS  /tmp/cczP4HC8.s 			page 11


 546:Drivers/STM32F0xx_HAL_Driver/Src/stm32f0xx_hal_tsc.c ****   return status;
 547:Drivers/STM32F0xx_HAL_Driver/Src/stm32f0xx_hal_tsc.c **** }
 548:Drivers/STM32F0xx_HAL_Driver/Src/stm32f0xx_hal_tsc.c **** 
 549:Drivers/STM32F0xx_HAL_Driver/Src/stm32f0xx_hal_tsc.c **** #endif /* USE_HAL_TSC_REGISTER_CALLBACKS */
 550:Drivers/STM32F0xx_HAL_Driver/Src/stm32f0xx_hal_tsc.c **** 
 551:Drivers/STM32F0xx_HAL_Driver/Src/stm32f0xx_hal_tsc.c **** /**
 552:Drivers/STM32F0xx_HAL_Driver/Src/stm32f0xx_hal_tsc.c ****   * @}
 553:Drivers/STM32F0xx_HAL_Driver/Src/stm32f0xx_hal_tsc.c ****   */
 554:Drivers/STM32F0xx_HAL_Driver/Src/stm32f0xx_hal_tsc.c **** 
 555:Drivers/STM32F0xx_HAL_Driver/Src/stm32f0xx_hal_tsc.c **** /** @defgroup TSC_Exported_Functions_Group2 Input and Output operation functions
 556:Drivers/STM32F0xx_HAL_Driver/Src/stm32f0xx_hal_tsc.c ****  *  @brief    Input and Output operation functions
 557:Drivers/STM32F0xx_HAL_Driver/Src/stm32f0xx_hal_tsc.c ****  *
 558:Drivers/STM32F0xx_HAL_Driver/Src/stm32f0xx_hal_tsc.c **** @verbatim
 559:Drivers/STM32F0xx_HAL_Driver/Src/stm32f0xx_hal_tsc.c ****  ===============================================================================
 560:Drivers/STM32F0xx_HAL_Driver/Src/stm32f0xx_hal_tsc.c ****              ##### IO Operation functions #####
 561:Drivers/STM32F0xx_HAL_Driver/Src/stm32f0xx_hal_tsc.c ****  ===============================================================================
 562:Drivers/STM32F0xx_HAL_Driver/Src/stm32f0xx_hal_tsc.c ****     [..]  This section provides functions allowing to:
 563:Drivers/STM32F0xx_HAL_Driver/Src/stm32f0xx_hal_tsc.c ****       (+) Start acquisition in polling mode.
 564:Drivers/STM32F0xx_HAL_Driver/Src/stm32f0xx_hal_tsc.c ****       (+) Start acquisition in interrupt mode.
 565:Drivers/STM32F0xx_HAL_Driver/Src/stm32f0xx_hal_tsc.c ****       (+) Stop conversion in polling mode.
 566:Drivers/STM32F0xx_HAL_Driver/Src/stm32f0xx_hal_tsc.c ****       (+) Stop conversion in interrupt mode.
 567:Drivers/STM32F0xx_HAL_Driver/Src/stm32f0xx_hal_tsc.c ****       (+) Poll for acquisition completed.
 568:Drivers/STM32F0xx_HAL_Driver/Src/stm32f0xx_hal_tsc.c ****       (+) Get group acquisition status.
 569:Drivers/STM32F0xx_HAL_Driver/Src/stm32f0xx_hal_tsc.c ****       (+) Get group acquisition value.
 570:Drivers/STM32F0xx_HAL_Driver/Src/stm32f0xx_hal_tsc.c **** @endverbatim
 571:Drivers/STM32F0xx_HAL_Driver/Src/stm32f0xx_hal_tsc.c ****   * @{
 572:Drivers/STM32F0xx_HAL_Driver/Src/stm32f0xx_hal_tsc.c ****   */
 573:Drivers/STM32F0xx_HAL_Driver/Src/stm32f0xx_hal_tsc.c **** 
 574:Drivers/STM32F0xx_HAL_Driver/Src/stm32f0xx_hal_tsc.c **** /**
 575:Drivers/STM32F0xx_HAL_Driver/Src/stm32f0xx_hal_tsc.c ****   * @brief  Start the acquisition.
 576:Drivers/STM32F0xx_HAL_Driver/Src/stm32f0xx_hal_tsc.c ****   * @param  htsc Pointer to a TSC_HandleTypeDef structure that contains
 577:Drivers/STM32F0xx_HAL_Driver/Src/stm32f0xx_hal_tsc.c ****   *         the configuration information for the specified TSC.
 578:Drivers/STM32F0xx_HAL_Driver/Src/stm32f0xx_hal_tsc.c ****   * @retval HAL status
 579:Drivers/STM32F0xx_HAL_Driver/Src/stm32f0xx_hal_tsc.c ****   */
 580:Drivers/STM32F0xx_HAL_Driver/Src/stm32f0xx_hal_tsc.c **** HAL_StatusTypeDef HAL_TSC_Start(TSC_HandleTypeDef *htsc)
 581:Drivers/STM32F0xx_HAL_Driver/Src/stm32f0xx_hal_tsc.c **** {
 582:Drivers/STM32F0xx_HAL_Driver/Src/stm32f0xx_hal_tsc.c ****   /* Check the parameters */
 583:Drivers/STM32F0xx_HAL_Driver/Src/stm32f0xx_hal_tsc.c ****   assert_param(IS_TSC_ALL_INSTANCE(htsc->Instance));
 584:Drivers/STM32F0xx_HAL_Driver/Src/stm32f0xx_hal_tsc.c **** 
 585:Drivers/STM32F0xx_HAL_Driver/Src/stm32f0xx_hal_tsc.c ****   /* Process locked */
 586:Drivers/STM32F0xx_HAL_Driver/Src/stm32f0xx_hal_tsc.c ****   __HAL_LOCK(htsc);
 587:Drivers/STM32F0xx_HAL_Driver/Src/stm32f0xx_hal_tsc.c **** 
 588:Drivers/STM32F0xx_HAL_Driver/Src/stm32f0xx_hal_tsc.c ****   /* Change TSC state */
 589:Drivers/STM32F0xx_HAL_Driver/Src/stm32f0xx_hal_tsc.c ****   htsc->State = HAL_TSC_STATE_BUSY;
 590:Drivers/STM32F0xx_HAL_Driver/Src/stm32f0xx_hal_tsc.c **** 
 591:Drivers/STM32F0xx_HAL_Driver/Src/stm32f0xx_hal_tsc.c ****   /* Clear interrupts */
 592:Drivers/STM32F0xx_HAL_Driver/Src/stm32f0xx_hal_tsc.c ****   __HAL_TSC_DISABLE_IT(htsc, (TSC_IT_EOA | TSC_IT_MCE));
 593:Drivers/STM32F0xx_HAL_Driver/Src/stm32f0xx_hal_tsc.c **** 
 594:Drivers/STM32F0xx_HAL_Driver/Src/stm32f0xx_hal_tsc.c ****   /* Clear flags */
 595:Drivers/STM32F0xx_HAL_Driver/Src/stm32f0xx_hal_tsc.c ****   __HAL_TSC_CLEAR_FLAG(htsc, (TSC_FLAG_EOA | TSC_FLAG_MCE));
 596:Drivers/STM32F0xx_HAL_Driver/Src/stm32f0xx_hal_tsc.c **** 
 597:Drivers/STM32F0xx_HAL_Driver/Src/stm32f0xx_hal_tsc.c ****   /* Set touch sensing IOs not acquired to the specified IODefaultMode */
 598:Drivers/STM32F0xx_HAL_Driver/Src/stm32f0xx_hal_tsc.c ****   if (htsc->Init.IODefaultMode == TSC_IODEF_OUT_PP_LOW)
 599:Drivers/STM32F0xx_HAL_Driver/Src/stm32f0xx_hal_tsc.c ****   {
 600:Drivers/STM32F0xx_HAL_Driver/Src/stm32f0xx_hal_tsc.c ****     __HAL_TSC_SET_IODEF_OUTPPLOW(htsc);
 601:Drivers/STM32F0xx_HAL_Driver/Src/stm32f0xx_hal_tsc.c ****   }
 602:Drivers/STM32F0xx_HAL_Driver/Src/stm32f0xx_hal_tsc.c ****   else
ARM GAS  /tmp/cczP4HC8.s 			page 12


 603:Drivers/STM32F0xx_HAL_Driver/Src/stm32f0xx_hal_tsc.c ****   {
 604:Drivers/STM32F0xx_HAL_Driver/Src/stm32f0xx_hal_tsc.c ****     __HAL_TSC_SET_IODEF_INFLOAT(htsc);
 605:Drivers/STM32F0xx_HAL_Driver/Src/stm32f0xx_hal_tsc.c ****   }
 606:Drivers/STM32F0xx_HAL_Driver/Src/stm32f0xx_hal_tsc.c **** 
 607:Drivers/STM32F0xx_HAL_Driver/Src/stm32f0xx_hal_tsc.c ****   /* Launch the acquisition */
 608:Drivers/STM32F0xx_HAL_Driver/Src/stm32f0xx_hal_tsc.c ****   __HAL_TSC_START_ACQ(htsc);
 609:Drivers/STM32F0xx_HAL_Driver/Src/stm32f0xx_hal_tsc.c **** 
 610:Drivers/STM32F0xx_HAL_Driver/Src/stm32f0xx_hal_tsc.c ****   /* Process unlocked */
 611:Drivers/STM32F0xx_HAL_Driver/Src/stm32f0xx_hal_tsc.c ****   __HAL_UNLOCK(htsc);
 612:Drivers/STM32F0xx_HAL_Driver/Src/stm32f0xx_hal_tsc.c **** 
 613:Drivers/STM32F0xx_HAL_Driver/Src/stm32f0xx_hal_tsc.c ****   /* Return function status */
 614:Drivers/STM32F0xx_HAL_Driver/Src/stm32f0xx_hal_tsc.c ****   return HAL_OK;
 615:Drivers/STM32F0xx_HAL_Driver/Src/stm32f0xx_hal_tsc.c **** }
 616:Drivers/STM32F0xx_HAL_Driver/Src/stm32f0xx_hal_tsc.c **** 
 617:Drivers/STM32F0xx_HAL_Driver/Src/stm32f0xx_hal_tsc.c **** /**
 618:Drivers/STM32F0xx_HAL_Driver/Src/stm32f0xx_hal_tsc.c ****   * @brief  Start the acquisition in interrupt mode.
 619:Drivers/STM32F0xx_HAL_Driver/Src/stm32f0xx_hal_tsc.c ****   * @param  htsc Pointer to a TSC_HandleTypeDef structure that contains
 620:Drivers/STM32F0xx_HAL_Driver/Src/stm32f0xx_hal_tsc.c ****   *         the configuration information for the specified TSC.
 621:Drivers/STM32F0xx_HAL_Driver/Src/stm32f0xx_hal_tsc.c ****   * @retval HAL status.
 622:Drivers/STM32F0xx_HAL_Driver/Src/stm32f0xx_hal_tsc.c ****   */
 623:Drivers/STM32F0xx_HAL_Driver/Src/stm32f0xx_hal_tsc.c **** HAL_StatusTypeDef HAL_TSC_Start_IT(TSC_HandleTypeDef *htsc)
 624:Drivers/STM32F0xx_HAL_Driver/Src/stm32f0xx_hal_tsc.c **** {
 625:Drivers/STM32F0xx_HAL_Driver/Src/stm32f0xx_hal_tsc.c ****   /* Check the parameters */
 626:Drivers/STM32F0xx_HAL_Driver/Src/stm32f0xx_hal_tsc.c ****   assert_param(IS_TSC_ALL_INSTANCE(htsc->Instance));
 627:Drivers/STM32F0xx_HAL_Driver/Src/stm32f0xx_hal_tsc.c ****   assert_param(IS_TSC_MCE_IT(htsc->Init.MaxCountInterrupt));
 628:Drivers/STM32F0xx_HAL_Driver/Src/stm32f0xx_hal_tsc.c **** 
 629:Drivers/STM32F0xx_HAL_Driver/Src/stm32f0xx_hal_tsc.c ****   /* Process locked */
 630:Drivers/STM32F0xx_HAL_Driver/Src/stm32f0xx_hal_tsc.c ****   __HAL_LOCK(htsc);
 631:Drivers/STM32F0xx_HAL_Driver/Src/stm32f0xx_hal_tsc.c **** 
 632:Drivers/STM32F0xx_HAL_Driver/Src/stm32f0xx_hal_tsc.c ****   /* Change TSC state */
 633:Drivers/STM32F0xx_HAL_Driver/Src/stm32f0xx_hal_tsc.c ****   htsc->State = HAL_TSC_STATE_BUSY;
 634:Drivers/STM32F0xx_HAL_Driver/Src/stm32f0xx_hal_tsc.c **** 
 635:Drivers/STM32F0xx_HAL_Driver/Src/stm32f0xx_hal_tsc.c ****   /* Enable end of acquisition interrupt */
 636:Drivers/STM32F0xx_HAL_Driver/Src/stm32f0xx_hal_tsc.c ****   __HAL_TSC_ENABLE_IT(htsc, TSC_IT_EOA);
 637:Drivers/STM32F0xx_HAL_Driver/Src/stm32f0xx_hal_tsc.c **** 
 638:Drivers/STM32F0xx_HAL_Driver/Src/stm32f0xx_hal_tsc.c ****   /* Enable max count error interrupt (optional) */
 639:Drivers/STM32F0xx_HAL_Driver/Src/stm32f0xx_hal_tsc.c ****   if (htsc->Init.MaxCountInterrupt == ENABLE)
 640:Drivers/STM32F0xx_HAL_Driver/Src/stm32f0xx_hal_tsc.c ****   {
 641:Drivers/STM32F0xx_HAL_Driver/Src/stm32f0xx_hal_tsc.c ****     __HAL_TSC_ENABLE_IT(htsc, TSC_IT_MCE);
 642:Drivers/STM32F0xx_HAL_Driver/Src/stm32f0xx_hal_tsc.c ****   }
 643:Drivers/STM32F0xx_HAL_Driver/Src/stm32f0xx_hal_tsc.c ****   else
 644:Drivers/STM32F0xx_HAL_Driver/Src/stm32f0xx_hal_tsc.c ****   {
 645:Drivers/STM32F0xx_HAL_Driver/Src/stm32f0xx_hal_tsc.c ****     __HAL_TSC_DISABLE_IT(htsc, TSC_IT_MCE);
 646:Drivers/STM32F0xx_HAL_Driver/Src/stm32f0xx_hal_tsc.c ****   }
 647:Drivers/STM32F0xx_HAL_Driver/Src/stm32f0xx_hal_tsc.c **** 
 648:Drivers/STM32F0xx_HAL_Driver/Src/stm32f0xx_hal_tsc.c ****   /* Clear flags */
 649:Drivers/STM32F0xx_HAL_Driver/Src/stm32f0xx_hal_tsc.c ****   __HAL_TSC_CLEAR_FLAG(htsc, (TSC_FLAG_EOA | TSC_FLAG_MCE));
 650:Drivers/STM32F0xx_HAL_Driver/Src/stm32f0xx_hal_tsc.c **** 
 651:Drivers/STM32F0xx_HAL_Driver/Src/stm32f0xx_hal_tsc.c ****   /* Set touch sensing IOs not acquired to the specified IODefaultMode */
 652:Drivers/STM32F0xx_HAL_Driver/Src/stm32f0xx_hal_tsc.c ****   if (htsc->Init.IODefaultMode == TSC_IODEF_OUT_PP_LOW)
 653:Drivers/STM32F0xx_HAL_Driver/Src/stm32f0xx_hal_tsc.c ****   {
 654:Drivers/STM32F0xx_HAL_Driver/Src/stm32f0xx_hal_tsc.c ****     __HAL_TSC_SET_IODEF_OUTPPLOW(htsc);
 655:Drivers/STM32F0xx_HAL_Driver/Src/stm32f0xx_hal_tsc.c ****   }
 656:Drivers/STM32F0xx_HAL_Driver/Src/stm32f0xx_hal_tsc.c ****   else
 657:Drivers/STM32F0xx_HAL_Driver/Src/stm32f0xx_hal_tsc.c ****   {
 658:Drivers/STM32F0xx_HAL_Driver/Src/stm32f0xx_hal_tsc.c ****     __HAL_TSC_SET_IODEF_INFLOAT(htsc);
 659:Drivers/STM32F0xx_HAL_Driver/Src/stm32f0xx_hal_tsc.c ****   }
ARM GAS  /tmp/cczP4HC8.s 			page 13


 660:Drivers/STM32F0xx_HAL_Driver/Src/stm32f0xx_hal_tsc.c **** 
 661:Drivers/STM32F0xx_HAL_Driver/Src/stm32f0xx_hal_tsc.c ****   /* Launch the acquisition */
 662:Drivers/STM32F0xx_HAL_Driver/Src/stm32f0xx_hal_tsc.c ****   __HAL_TSC_START_ACQ(htsc);
 663:Drivers/STM32F0xx_HAL_Driver/Src/stm32f0xx_hal_tsc.c **** 
 664:Drivers/STM32F0xx_HAL_Driver/Src/stm32f0xx_hal_tsc.c ****   /* Process unlocked */
 665:Drivers/STM32F0xx_HAL_Driver/Src/stm32f0xx_hal_tsc.c ****   __HAL_UNLOCK(htsc);
 666:Drivers/STM32F0xx_HAL_Driver/Src/stm32f0xx_hal_tsc.c **** 
 667:Drivers/STM32F0xx_HAL_Driver/Src/stm32f0xx_hal_tsc.c ****   /* Return function status */
 668:Drivers/STM32F0xx_HAL_Driver/Src/stm32f0xx_hal_tsc.c ****   return HAL_OK;
 669:Drivers/STM32F0xx_HAL_Driver/Src/stm32f0xx_hal_tsc.c **** }
 670:Drivers/STM32F0xx_HAL_Driver/Src/stm32f0xx_hal_tsc.c **** 
 671:Drivers/STM32F0xx_HAL_Driver/Src/stm32f0xx_hal_tsc.c **** /**
 672:Drivers/STM32F0xx_HAL_Driver/Src/stm32f0xx_hal_tsc.c ****   * @brief  Stop the acquisition previously launched in polling mode.
 673:Drivers/STM32F0xx_HAL_Driver/Src/stm32f0xx_hal_tsc.c ****   * @param  htsc Pointer to a TSC_HandleTypeDef structure that contains
 674:Drivers/STM32F0xx_HAL_Driver/Src/stm32f0xx_hal_tsc.c ****   *         the configuration information for the specified TSC.
 675:Drivers/STM32F0xx_HAL_Driver/Src/stm32f0xx_hal_tsc.c ****   * @retval HAL status
 676:Drivers/STM32F0xx_HAL_Driver/Src/stm32f0xx_hal_tsc.c ****   */
 677:Drivers/STM32F0xx_HAL_Driver/Src/stm32f0xx_hal_tsc.c **** HAL_StatusTypeDef HAL_TSC_Stop(TSC_HandleTypeDef *htsc)
 678:Drivers/STM32F0xx_HAL_Driver/Src/stm32f0xx_hal_tsc.c **** {
 679:Drivers/STM32F0xx_HAL_Driver/Src/stm32f0xx_hal_tsc.c ****   /* Check the parameters */
 680:Drivers/STM32F0xx_HAL_Driver/Src/stm32f0xx_hal_tsc.c ****   assert_param(IS_TSC_ALL_INSTANCE(htsc->Instance));
 681:Drivers/STM32F0xx_HAL_Driver/Src/stm32f0xx_hal_tsc.c **** 
 682:Drivers/STM32F0xx_HAL_Driver/Src/stm32f0xx_hal_tsc.c ****   /* Process locked */
 683:Drivers/STM32F0xx_HAL_Driver/Src/stm32f0xx_hal_tsc.c ****   __HAL_LOCK(htsc);
 684:Drivers/STM32F0xx_HAL_Driver/Src/stm32f0xx_hal_tsc.c **** 
 685:Drivers/STM32F0xx_HAL_Driver/Src/stm32f0xx_hal_tsc.c ****   /* Stop the acquisition */
 686:Drivers/STM32F0xx_HAL_Driver/Src/stm32f0xx_hal_tsc.c ****   __HAL_TSC_STOP_ACQ(htsc);
 687:Drivers/STM32F0xx_HAL_Driver/Src/stm32f0xx_hal_tsc.c **** 
 688:Drivers/STM32F0xx_HAL_Driver/Src/stm32f0xx_hal_tsc.c ****   /* Set touch sensing IOs in low power mode (output push-pull) */
 689:Drivers/STM32F0xx_HAL_Driver/Src/stm32f0xx_hal_tsc.c ****   __HAL_TSC_SET_IODEF_OUTPPLOW(htsc);
 690:Drivers/STM32F0xx_HAL_Driver/Src/stm32f0xx_hal_tsc.c **** 
 691:Drivers/STM32F0xx_HAL_Driver/Src/stm32f0xx_hal_tsc.c ****   /* Clear flags */
 692:Drivers/STM32F0xx_HAL_Driver/Src/stm32f0xx_hal_tsc.c ****   __HAL_TSC_CLEAR_FLAG(htsc, (TSC_FLAG_EOA | TSC_FLAG_MCE));
 693:Drivers/STM32F0xx_HAL_Driver/Src/stm32f0xx_hal_tsc.c **** 
 694:Drivers/STM32F0xx_HAL_Driver/Src/stm32f0xx_hal_tsc.c ****   /* Change TSC state */
 695:Drivers/STM32F0xx_HAL_Driver/Src/stm32f0xx_hal_tsc.c ****   htsc->State = HAL_TSC_STATE_READY;
 696:Drivers/STM32F0xx_HAL_Driver/Src/stm32f0xx_hal_tsc.c **** 
 697:Drivers/STM32F0xx_HAL_Driver/Src/stm32f0xx_hal_tsc.c ****   /* Process unlocked */
 698:Drivers/STM32F0xx_HAL_Driver/Src/stm32f0xx_hal_tsc.c ****   __HAL_UNLOCK(htsc);
 699:Drivers/STM32F0xx_HAL_Driver/Src/stm32f0xx_hal_tsc.c **** 
 700:Drivers/STM32F0xx_HAL_Driver/Src/stm32f0xx_hal_tsc.c ****   /* Return function status */
 701:Drivers/STM32F0xx_HAL_Driver/Src/stm32f0xx_hal_tsc.c ****   return HAL_OK;
 702:Drivers/STM32F0xx_HAL_Driver/Src/stm32f0xx_hal_tsc.c **** }
 703:Drivers/STM32F0xx_HAL_Driver/Src/stm32f0xx_hal_tsc.c **** 
 704:Drivers/STM32F0xx_HAL_Driver/Src/stm32f0xx_hal_tsc.c **** /**
 705:Drivers/STM32F0xx_HAL_Driver/Src/stm32f0xx_hal_tsc.c ****   * @brief  Stop the acquisition previously launched in interrupt mode.
 706:Drivers/STM32F0xx_HAL_Driver/Src/stm32f0xx_hal_tsc.c ****   * @param  htsc Pointer to a TSC_HandleTypeDef structure that contains
 707:Drivers/STM32F0xx_HAL_Driver/Src/stm32f0xx_hal_tsc.c ****   *         the configuration information for the specified TSC.
 708:Drivers/STM32F0xx_HAL_Driver/Src/stm32f0xx_hal_tsc.c ****   * @retval HAL status
 709:Drivers/STM32F0xx_HAL_Driver/Src/stm32f0xx_hal_tsc.c ****   */
 710:Drivers/STM32F0xx_HAL_Driver/Src/stm32f0xx_hal_tsc.c **** HAL_StatusTypeDef HAL_TSC_Stop_IT(TSC_HandleTypeDef *htsc)
 711:Drivers/STM32F0xx_HAL_Driver/Src/stm32f0xx_hal_tsc.c **** {
 712:Drivers/STM32F0xx_HAL_Driver/Src/stm32f0xx_hal_tsc.c ****   /* Check the parameters */
 713:Drivers/STM32F0xx_HAL_Driver/Src/stm32f0xx_hal_tsc.c ****   assert_param(IS_TSC_ALL_INSTANCE(htsc->Instance));
 714:Drivers/STM32F0xx_HAL_Driver/Src/stm32f0xx_hal_tsc.c **** 
 715:Drivers/STM32F0xx_HAL_Driver/Src/stm32f0xx_hal_tsc.c ****   /* Process locked */
 716:Drivers/STM32F0xx_HAL_Driver/Src/stm32f0xx_hal_tsc.c ****   __HAL_LOCK(htsc);
ARM GAS  /tmp/cczP4HC8.s 			page 14


 717:Drivers/STM32F0xx_HAL_Driver/Src/stm32f0xx_hal_tsc.c **** 
 718:Drivers/STM32F0xx_HAL_Driver/Src/stm32f0xx_hal_tsc.c ****   /* Stop the acquisition */
 719:Drivers/STM32F0xx_HAL_Driver/Src/stm32f0xx_hal_tsc.c ****   __HAL_TSC_STOP_ACQ(htsc);
 720:Drivers/STM32F0xx_HAL_Driver/Src/stm32f0xx_hal_tsc.c **** 
 721:Drivers/STM32F0xx_HAL_Driver/Src/stm32f0xx_hal_tsc.c ****   /* Set touch sensing IOs in low power mode (output push-pull) */
 722:Drivers/STM32F0xx_HAL_Driver/Src/stm32f0xx_hal_tsc.c ****   __HAL_TSC_SET_IODEF_OUTPPLOW(htsc);
 723:Drivers/STM32F0xx_HAL_Driver/Src/stm32f0xx_hal_tsc.c **** 
 724:Drivers/STM32F0xx_HAL_Driver/Src/stm32f0xx_hal_tsc.c ****   /* Disable interrupts */
 725:Drivers/STM32F0xx_HAL_Driver/Src/stm32f0xx_hal_tsc.c ****   __HAL_TSC_DISABLE_IT(htsc, (TSC_IT_EOA | TSC_IT_MCE));
 726:Drivers/STM32F0xx_HAL_Driver/Src/stm32f0xx_hal_tsc.c **** 
 727:Drivers/STM32F0xx_HAL_Driver/Src/stm32f0xx_hal_tsc.c ****   /* Clear flags */
 728:Drivers/STM32F0xx_HAL_Driver/Src/stm32f0xx_hal_tsc.c ****   __HAL_TSC_CLEAR_FLAG(htsc, (TSC_FLAG_EOA | TSC_FLAG_MCE));
 729:Drivers/STM32F0xx_HAL_Driver/Src/stm32f0xx_hal_tsc.c **** 
 730:Drivers/STM32F0xx_HAL_Driver/Src/stm32f0xx_hal_tsc.c ****   /* Change TSC state */
 731:Drivers/STM32F0xx_HAL_Driver/Src/stm32f0xx_hal_tsc.c ****   htsc->State = HAL_TSC_STATE_READY;
 732:Drivers/STM32F0xx_HAL_Driver/Src/stm32f0xx_hal_tsc.c **** 
 733:Drivers/STM32F0xx_HAL_Driver/Src/stm32f0xx_hal_tsc.c ****   /* Process unlocked */
 734:Drivers/STM32F0xx_HAL_Driver/Src/stm32f0xx_hal_tsc.c ****   __HAL_UNLOCK(htsc);
 735:Drivers/STM32F0xx_HAL_Driver/Src/stm32f0xx_hal_tsc.c **** 
 736:Drivers/STM32F0xx_HAL_Driver/Src/stm32f0xx_hal_tsc.c ****   /* Return function status */
 737:Drivers/STM32F0xx_HAL_Driver/Src/stm32f0xx_hal_tsc.c ****   return HAL_OK;
 738:Drivers/STM32F0xx_HAL_Driver/Src/stm32f0xx_hal_tsc.c **** }
 739:Drivers/STM32F0xx_HAL_Driver/Src/stm32f0xx_hal_tsc.c **** 
 740:Drivers/STM32F0xx_HAL_Driver/Src/stm32f0xx_hal_tsc.c **** /**
 741:Drivers/STM32F0xx_HAL_Driver/Src/stm32f0xx_hal_tsc.c ****   * @brief  Start acquisition and wait until completion.
 742:Drivers/STM32F0xx_HAL_Driver/Src/stm32f0xx_hal_tsc.c ****   * @note   There is no need of a timeout parameter as the max count error is already
 743:Drivers/STM32F0xx_HAL_Driver/Src/stm32f0xx_hal_tsc.c ****   *         managed by the TSC peripheral.
 744:Drivers/STM32F0xx_HAL_Driver/Src/stm32f0xx_hal_tsc.c ****   * @param  htsc Pointer to a TSC_HandleTypeDef structure that contains
 745:Drivers/STM32F0xx_HAL_Driver/Src/stm32f0xx_hal_tsc.c ****   *         the configuration information for the specified TSC.
 746:Drivers/STM32F0xx_HAL_Driver/Src/stm32f0xx_hal_tsc.c ****   * @retval HAL state
 747:Drivers/STM32F0xx_HAL_Driver/Src/stm32f0xx_hal_tsc.c ****   */
 748:Drivers/STM32F0xx_HAL_Driver/Src/stm32f0xx_hal_tsc.c **** HAL_StatusTypeDef HAL_TSC_PollForAcquisition(TSC_HandleTypeDef *htsc)
 749:Drivers/STM32F0xx_HAL_Driver/Src/stm32f0xx_hal_tsc.c **** {
 750:Drivers/STM32F0xx_HAL_Driver/Src/stm32f0xx_hal_tsc.c ****   /* Check the parameters */
 751:Drivers/STM32F0xx_HAL_Driver/Src/stm32f0xx_hal_tsc.c ****   assert_param(IS_TSC_ALL_INSTANCE(htsc->Instance));
 752:Drivers/STM32F0xx_HAL_Driver/Src/stm32f0xx_hal_tsc.c **** 
 753:Drivers/STM32F0xx_HAL_Driver/Src/stm32f0xx_hal_tsc.c ****   /* Process locked */
 754:Drivers/STM32F0xx_HAL_Driver/Src/stm32f0xx_hal_tsc.c ****   __HAL_LOCK(htsc);
 755:Drivers/STM32F0xx_HAL_Driver/Src/stm32f0xx_hal_tsc.c **** 
 756:Drivers/STM32F0xx_HAL_Driver/Src/stm32f0xx_hal_tsc.c ****   /* Check end of acquisition */
 757:Drivers/STM32F0xx_HAL_Driver/Src/stm32f0xx_hal_tsc.c ****   while (HAL_TSC_GetState(htsc) == HAL_TSC_STATE_BUSY)
 758:Drivers/STM32F0xx_HAL_Driver/Src/stm32f0xx_hal_tsc.c ****   {
 759:Drivers/STM32F0xx_HAL_Driver/Src/stm32f0xx_hal_tsc.c ****     /* The timeout (max count error) is managed by the TSC peripheral itself. */
 760:Drivers/STM32F0xx_HAL_Driver/Src/stm32f0xx_hal_tsc.c ****   }
 761:Drivers/STM32F0xx_HAL_Driver/Src/stm32f0xx_hal_tsc.c **** 
 762:Drivers/STM32F0xx_HAL_Driver/Src/stm32f0xx_hal_tsc.c ****   /* Process unlocked */
 763:Drivers/STM32F0xx_HAL_Driver/Src/stm32f0xx_hal_tsc.c ****   __HAL_UNLOCK(htsc);
 764:Drivers/STM32F0xx_HAL_Driver/Src/stm32f0xx_hal_tsc.c **** 
 765:Drivers/STM32F0xx_HAL_Driver/Src/stm32f0xx_hal_tsc.c ****   return HAL_OK;
 766:Drivers/STM32F0xx_HAL_Driver/Src/stm32f0xx_hal_tsc.c **** }
 767:Drivers/STM32F0xx_HAL_Driver/Src/stm32f0xx_hal_tsc.c **** 
 768:Drivers/STM32F0xx_HAL_Driver/Src/stm32f0xx_hal_tsc.c **** /**
 769:Drivers/STM32F0xx_HAL_Driver/Src/stm32f0xx_hal_tsc.c ****   * @brief  Get the acquisition status for a group.
 770:Drivers/STM32F0xx_HAL_Driver/Src/stm32f0xx_hal_tsc.c ****   * @param  htsc Pointer to a TSC_HandleTypeDef structure that contains
 771:Drivers/STM32F0xx_HAL_Driver/Src/stm32f0xx_hal_tsc.c ****   *         the configuration information for the specified TSC.
 772:Drivers/STM32F0xx_HAL_Driver/Src/stm32f0xx_hal_tsc.c ****   * @param  gx_index Index of the group
 773:Drivers/STM32F0xx_HAL_Driver/Src/stm32f0xx_hal_tsc.c ****   * @retval Group status
ARM GAS  /tmp/cczP4HC8.s 			page 15


 774:Drivers/STM32F0xx_HAL_Driver/Src/stm32f0xx_hal_tsc.c ****   */
 775:Drivers/STM32F0xx_HAL_Driver/Src/stm32f0xx_hal_tsc.c **** TSC_GroupStatusTypeDef HAL_TSC_GroupGetStatus(TSC_HandleTypeDef *htsc, uint32_t gx_index)
 776:Drivers/STM32F0xx_HAL_Driver/Src/stm32f0xx_hal_tsc.c **** {
 777:Drivers/STM32F0xx_HAL_Driver/Src/stm32f0xx_hal_tsc.c ****   /* Check the parameters */
 778:Drivers/STM32F0xx_HAL_Driver/Src/stm32f0xx_hal_tsc.c ****   assert_param(IS_TSC_ALL_INSTANCE(htsc->Instance));
 779:Drivers/STM32F0xx_HAL_Driver/Src/stm32f0xx_hal_tsc.c ****   assert_param(IS_TSC_GROUP_INDEX(gx_index));
 780:Drivers/STM32F0xx_HAL_Driver/Src/stm32f0xx_hal_tsc.c **** 
 781:Drivers/STM32F0xx_HAL_Driver/Src/stm32f0xx_hal_tsc.c ****   /* Return the group status */
 782:Drivers/STM32F0xx_HAL_Driver/Src/stm32f0xx_hal_tsc.c ****   return (__HAL_TSC_GET_GROUP_STATUS(htsc, gx_index));
 783:Drivers/STM32F0xx_HAL_Driver/Src/stm32f0xx_hal_tsc.c **** }
 784:Drivers/STM32F0xx_HAL_Driver/Src/stm32f0xx_hal_tsc.c **** 
 785:Drivers/STM32F0xx_HAL_Driver/Src/stm32f0xx_hal_tsc.c **** /**
 786:Drivers/STM32F0xx_HAL_Driver/Src/stm32f0xx_hal_tsc.c ****   * @brief  Get the acquisition measure for a group.
 787:Drivers/STM32F0xx_HAL_Driver/Src/stm32f0xx_hal_tsc.c ****   * @param  htsc Pointer to a TSC_HandleTypeDef structure that contains
 788:Drivers/STM32F0xx_HAL_Driver/Src/stm32f0xx_hal_tsc.c ****   *         the configuration information for the specified TSC.
 789:Drivers/STM32F0xx_HAL_Driver/Src/stm32f0xx_hal_tsc.c ****   * @param  gx_index Index of the group
 790:Drivers/STM32F0xx_HAL_Driver/Src/stm32f0xx_hal_tsc.c ****   * @retval Acquisition measure
 791:Drivers/STM32F0xx_HAL_Driver/Src/stm32f0xx_hal_tsc.c ****   */
 792:Drivers/STM32F0xx_HAL_Driver/Src/stm32f0xx_hal_tsc.c **** uint32_t HAL_TSC_GroupGetValue(TSC_HandleTypeDef *htsc, uint32_t gx_index)
 793:Drivers/STM32F0xx_HAL_Driver/Src/stm32f0xx_hal_tsc.c **** {
 794:Drivers/STM32F0xx_HAL_Driver/Src/stm32f0xx_hal_tsc.c ****   /* Check the parameters */
 795:Drivers/STM32F0xx_HAL_Driver/Src/stm32f0xx_hal_tsc.c ****   assert_param(IS_TSC_ALL_INSTANCE(htsc->Instance));
 796:Drivers/STM32F0xx_HAL_Driver/Src/stm32f0xx_hal_tsc.c ****   assert_param(IS_TSC_GROUP_INDEX(gx_index));
 797:Drivers/STM32F0xx_HAL_Driver/Src/stm32f0xx_hal_tsc.c **** 
 798:Drivers/STM32F0xx_HAL_Driver/Src/stm32f0xx_hal_tsc.c ****   /* Return the group acquisition counter */
 799:Drivers/STM32F0xx_HAL_Driver/Src/stm32f0xx_hal_tsc.c ****   return htsc->Instance->IOGXCR[gx_index];
 800:Drivers/STM32F0xx_HAL_Driver/Src/stm32f0xx_hal_tsc.c **** }
 801:Drivers/STM32F0xx_HAL_Driver/Src/stm32f0xx_hal_tsc.c **** 
 802:Drivers/STM32F0xx_HAL_Driver/Src/stm32f0xx_hal_tsc.c **** /**
 803:Drivers/STM32F0xx_HAL_Driver/Src/stm32f0xx_hal_tsc.c ****   * @}
 804:Drivers/STM32F0xx_HAL_Driver/Src/stm32f0xx_hal_tsc.c ****   */
 805:Drivers/STM32F0xx_HAL_Driver/Src/stm32f0xx_hal_tsc.c **** 
 806:Drivers/STM32F0xx_HAL_Driver/Src/stm32f0xx_hal_tsc.c **** /** @defgroup TSC_Exported_Functions_Group3 Peripheral Control functions
 807:Drivers/STM32F0xx_HAL_Driver/Src/stm32f0xx_hal_tsc.c ****  *  @brief    Peripheral Control functions
 808:Drivers/STM32F0xx_HAL_Driver/Src/stm32f0xx_hal_tsc.c ****  *
 809:Drivers/STM32F0xx_HAL_Driver/Src/stm32f0xx_hal_tsc.c **** @verbatim
 810:Drivers/STM32F0xx_HAL_Driver/Src/stm32f0xx_hal_tsc.c ****  ===============================================================================
 811:Drivers/STM32F0xx_HAL_Driver/Src/stm32f0xx_hal_tsc.c ****              ##### Peripheral Control functions #####
 812:Drivers/STM32F0xx_HAL_Driver/Src/stm32f0xx_hal_tsc.c ****  ===============================================================================
 813:Drivers/STM32F0xx_HAL_Driver/Src/stm32f0xx_hal_tsc.c ****     [..]  This section provides functions allowing to:
 814:Drivers/STM32F0xx_HAL_Driver/Src/stm32f0xx_hal_tsc.c ****       (+) Configure TSC IOs
 815:Drivers/STM32F0xx_HAL_Driver/Src/stm32f0xx_hal_tsc.c ****       (+) Discharge TSC IOs
 816:Drivers/STM32F0xx_HAL_Driver/Src/stm32f0xx_hal_tsc.c **** @endverbatim
 817:Drivers/STM32F0xx_HAL_Driver/Src/stm32f0xx_hal_tsc.c ****   * @{
 818:Drivers/STM32F0xx_HAL_Driver/Src/stm32f0xx_hal_tsc.c ****   */
 819:Drivers/STM32F0xx_HAL_Driver/Src/stm32f0xx_hal_tsc.c **** 
 820:Drivers/STM32F0xx_HAL_Driver/Src/stm32f0xx_hal_tsc.c **** /**
 821:Drivers/STM32F0xx_HAL_Driver/Src/stm32f0xx_hal_tsc.c ****   * @brief  Configure TSC IOs.
 822:Drivers/STM32F0xx_HAL_Driver/Src/stm32f0xx_hal_tsc.c ****   * @param  htsc Pointer to a TSC_HandleTypeDef structure that contains
 823:Drivers/STM32F0xx_HAL_Driver/Src/stm32f0xx_hal_tsc.c ****   *         the configuration information for the specified TSC.
 824:Drivers/STM32F0xx_HAL_Driver/Src/stm32f0xx_hal_tsc.c ****   * @param  config Pointer to the configuration structure.
 825:Drivers/STM32F0xx_HAL_Driver/Src/stm32f0xx_hal_tsc.c ****   * @retval HAL status
 826:Drivers/STM32F0xx_HAL_Driver/Src/stm32f0xx_hal_tsc.c ****   */
 827:Drivers/STM32F0xx_HAL_Driver/Src/stm32f0xx_hal_tsc.c **** HAL_StatusTypeDef HAL_TSC_IOConfig(TSC_HandleTypeDef *htsc, TSC_IOConfigTypeDef *config)
 828:Drivers/STM32F0xx_HAL_Driver/Src/stm32f0xx_hal_tsc.c **** {
 829:Drivers/STM32F0xx_HAL_Driver/Src/stm32f0xx_hal_tsc.c ****   /* Check the parameters */
 830:Drivers/STM32F0xx_HAL_Driver/Src/stm32f0xx_hal_tsc.c ****   assert_param(IS_TSC_ALL_INSTANCE(htsc->Instance));
ARM GAS  /tmp/cczP4HC8.s 			page 16


 831:Drivers/STM32F0xx_HAL_Driver/Src/stm32f0xx_hal_tsc.c ****   assert_param(IS_TSC_GROUP(config->ChannelIOs));
 832:Drivers/STM32F0xx_HAL_Driver/Src/stm32f0xx_hal_tsc.c ****   assert_param(IS_TSC_GROUP(config->ShieldIOs));
 833:Drivers/STM32F0xx_HAL_Driver/Src/stm32f0xx_hal_tsc.c ****   assert_param(IS_TSC_GROUP(config->SamplingIOs));
 834:Drivers/STM32F0xx_HAL_Driver/Src/stm32f0xx_hal_tsc.c **** 
 835:Drivers/STM32F0xx_HAL_Driver/Src/stm32f0xx_hal_tsc.c ****   /* Process locked */
 836:Drivers/STM32F0xx_HAL_Driver/Src/stm32f0xx_hal_tsc.c ****   __HAL_LOCK(htsc);
 837:Drivers/STM32F0xx_HAL_Driver/Src/stm32f0xx_hal_tsc.c **** 
 838:Drivers/STM32F0xx_HAL_Driver/Src/stm32f0xx_hal_tsc.c ****   /* Stop acquisition */
 839:Drivers/STM32F0xx_HAL_Driver/Src/stm32f0xx_hal_tsc.c ****   __HAL_TSC_STOP_ACQ(htsc);
 840:Drivers/STM32F0xx_HAL_Driver/Src/stm32f0xx_hal_tsc.c **** 
 841:Drivers/STM32F0xx_HAL_Driver/Src/stm32f0xx_hal_tsc.c ****   /* Disable Schmitt trigger hysteresis on all used TSC IOs */
 842:Drivers/STM32F0xx_HAL_Driver/Src/stm32f0xx_hal_tsc.c ****   htsc->Instance->IOHCR = (~(config->ChannelIOs | config->ShieldIOs | config->SamplingIOs));
 843:Drivers/STM32F0xx_HAL_Driver/Src/stm32f0xx_hal_tsc.c **** 
 844:Drivers/STM32F0xx_HAL_Driver/Src/stm32f0xx_hal_tsc.c ****   /* Set channel and shield IOs */
 845:Drivers/STM32F0xx_HAL_Driver/Src/stm32f0xx_hal_tsc.c ****   htsc->Instance->IOCCR = (config->ChannelIOs | config->ShieldIOs);
 846:Drivers/STM32F0xx_HAL_Driver/Src/stm32f0xx_hal_tsc.c **** 
 847:Drivers/STM32F0xx_HAL_Driver/Src/stm32f0xx_hal_tsc.c ****   /* Set sampling IOs */
 848:Drivers/STM32F0xx_HAL_Driver/Src/stm32f0xx_hal_tsc.c ****   htsc->Instance->IOSCR = config->SamplingIOs;
 849:Drivers/STM32F0xx_HAL_Driver/Src/stm32f0xx_hal_tsc.c **** 
 850:Drivers/STM32F0xx_HAL_Driver/Src/stm32f0xx_hal_tsc.c ****   /* Set groups to be acquired */
 851:Drivers/STM32F0xx_HAL_Driver/Src/stm32f0xx_hal_tsc.c ****   htsc->Instance->IOGCSR = TSC_extract_groups(config->ChannelIOs);
 852:Drivers/STM32F0xx_HAL_Driver/Src/stm32f0xx_hal_tsc.c **** 
 853:Drivers/STM32F0xx_HAL_Driver/Src/stm32f0xx_hal_tsc.c ****   /* Process unlocked */
 854:Drivers/STM32F0xx_HAL_Driver/Src/stm32f0xx_hal_tsc.c ****   __HAL_UNLOCK(htsc);
 855:Drivers/STM32F0xx_HAL_Driver/Src/stm32f0xx_hal_tsc.c **** 
 856:Drivers/STM32F0xx_HAL_Driver/Src/stm32f0xx_hal_tsc.c ****   /* Return function status */
 857:Drivers/STM32F0xx_HAL_Driver/Src/stm32f0xx_hal_tsc.c ****   return HAL_OK;
 858:Drivers/STM32F0xx_HAL_Driver/Src/stm32f0xx_hal_tsc.c **** }
 859:Drivers/STM32F0xx_HAL_Driver/Src/stm32f0xx_hal_tsc.c **** 
 860:Drivers/STM32F0xx_HAL_Driver/Src/stm32f0xx_hal_tsc.c **** /**
 861:Drivers/STM32F0xx_HAL_Driver/Src/stm32f0xx_hal_tsc.c ****   * @brief  Discharge TSC IOs.
 862:Drivers/STM32F0xx_HAL_Driver/Src/stm32f0xx_hal_tsc.c ****   * @param  htsc Pointer to a TSC_HandleTypeDef structure that contains
 863:Drivers/STM32F0xx_HAL_Driver/Src/stm32f0xx_hal_tsc.c ****   *         the configuration information for the specified TSC.
 864:Drivers/STM32F0xx_HAL_Driver/Src/stm32f0xx_hal_tsc.c ****   * @param  choice This parameter can be set to ENABLE or DISABLE.
 865:Drivers/STM32F0xx_HAL_Driver/Src/stm32f0xx_hal_tsc.c ****   * @retval HAL status
 866:Drivers/STM32F0xx_HAL_Driver/Src/stm32f0xx_hal_tsc.c ****   */
 867:Drivers/STM32F0xx_HAL_Driver/Src/stm32f0xx_hal_tsc.c **** HAL_StatusTypeDef HAL_TSC_IODischarge(TSC_HandleTypeDef *htsc, FunctionalState choice)
 868:Drivers/STM32F0xx_HAL_Driver/Src/stm32f0xx_hal_tsc.c **** {
 869:Drivers/STM32F0xx_HAL_Driver/Src/stm32f0xx_hal_tsc.c ****   /* Check the parameters */
 870:Drivers/STM32F0xx_HAL_Driver/Src/stm32f0xx_hal_tsc.c ****   assert_param(IS_TSC_ALL_INSTANCE(htsc->Instance));
 871:Drivers/STM32F0xx_HAL_Driver/Src/stm32f0xx_hal_tsc.c **** 
 872:Drivers/STM32F0xx_HAL_Driver/Src/stm32f0xx_hal_tsc.c ****   /* Process locked */
 873:Drivers/STM32F0xx_HAL_Driver/Src/stm32f0xx_hal_tsc.c ****   __HAL_LOCK(htsc);
 874:Drivers/STM32F0xx_HAL_Driver/Src/stm32f0xx_hal_tsc.c **** 
 875:Drivers/STM32F0xx_HAL_Driver/Src/stm32f0xx_hal_tsc.c ****   if (choice == ENABLE)
 876:Drivers/STM32F0xx_HAL_Driver/Src/stm32f0xx_hal_tsc.c ****   {
 877:Drivers/STM32F0xx_HAL_Driver/Src/stm32f0xx_hal_tsc.c ****     __HAL_TSC_SET_IODEF_OUTPPLOW(htsc);
 878:Drivers/STM32F0xx_HAL_Driver/Src/stm32f0xx_hal_tsc.c ****   }
 879:Drivers/STM32F0xx_HAL_Driver/Src/stm32f0xx_hal_tsc.c ****   else
 880:Drivers/STM32F0xx_HAL_Driver/Src/stm32f0xx_hal_tsc.c ****   {
 881:Drivers/STM32F0xx_HAL_Driver/Src/stm32f0xx_hal_tsc.c ****     __HAL_TSC_SET_IODEF_INFLOAT(htsc);
 882:Drivers/STM32F0xx_HAL_Driver/Src/stm32f0xx_hal_tsc.c ****   }
 883:Drivers/STM32F0xx_HAL_Driver/Src/stm32f0xx_hal_tsc.c **** 
 884:Drivers/STM32F0xx_HAL_Driver/Src/stm32f0xx_hal_tsc.c ****   /* Process unlocked */
 885:Drivers/STM32F0xx_HAL_Driver/Src/stm32f0xx_hal_tsc.c ****   __HAL_UNLOCK(htsc);
 886:Drivers/STM32F0xx_HAL_Driver/Src/stm32f0xx_hal_tsc.c **** 
 887:Drivers/STM32F0xx_HAL_Driver/Src/stm32f0xx_hal_tsc.c ****   /* Return the group acquisition counter */
ARM GAS  /tmp/cczP4HC8.s 			page 17


 888:Drivers/STM32F0xx_HAL_Driver/Src/stm32f0xx_hal_tsc.c ****   return HAL_OK;
 889:Drivers/STM32F0xx_HAL_Driver/Src/stm32f0xx_hal_tsc.c **** }
 890:Drivers/STM32F0xx_HAL_Driver/Src/stm32f0xx_hal_tsc.c **** 
 891:Drivers/STM32F0xx_HAL_Driver/Src/stm32f0xx_hal_tsc.c **** /**
 892:Drivers/STM32F0xx_HAL_Driver/Src/stm32f0xx_hal_tsc.c ****   * @}
 893:Drivers/STM32F0xx_HAL_Driver/Src/stm32f0xx_hal_tsc.c ****   */
 894:Drivers/STM32F0xx_HAL_Driver/Src/stm32f0xx_hal_tsc.c **** 
 895:Drivers/STM32F0xx_HAL_Driver/Src/stm32f0xx_hal_tsc.c **** /** @defgroup TSC_Exported_Functions_Group4 Peripheral State and Errors functions
 896:Drivers/STM32F0xx_HAL_Driver/Src/stm32f0xx_hal_tsc.c ****  *  @brief   Peripheral State and Errors functions
 897:Drivers/STM32F0xx_HAL_Driver/Src/stm32f0xx_hal_tsc.c ****  *
 898:Drivers/STM32F0xx_HAL_Driver/Src/stm32f0xx_hal_tsc.c **** @verbatim
 899:Drivers/STM32F0xx_HAL_Driver/Src/stm32f0xx_hal_tsc.c ****  ===============================================================================
 900:Drivers/STM32F0xx_HAL_Driver/Src/stm32f0xx_hal_tsc.c ****             ##### State and Errors functions #####
 901:Drivers/STM32F0xx_HAL_Driver/Src/stm32f0xx_hal_tsc.c ****  ===============================================================================
 902:Drivers/STM32F0xx_HAL_Driver/Src/stm32f0xx_hal_tsc.c ****     [..]
 903:Drivers/STM32F0xx_HAL_Driver/Src/stm32f0xx_hal_tsc.c ****     This subsection provides functions allowing to
 904:Drivers/STM32F0xx_HAL_Driver/Src/stm32f0xx_hal_tsc.c ****       (+) Get TSC state.
 905:Drivers/STM32F0xx_HAL_Driver/Src/stm32f0xx_hal_tsc.c **** 
 906:Drivers/STM32F0xx_HAL_Driver/Src/stm32f0xx_hal_tsc.c **** @endverbatim
 907:Drivers/STM32F0xx_HAL_Driver/Src/stm32f0xx_hal_tsc.c ****   * @{
 908:Drivers/STM32F0xx_HAL_Driver/Src/stm32f0xx_hal_tsc.c ****   */
 909:Drivers/STM32F0xx_HAL_Driver/Src/stm32f0xx_hal_tsc.c **** 
 910:Drivers/STM32F0xx_HAL_Driver/Src/stm32f0xx_hal_tsc.c **** /**
 911:Drivers/STM32F0xx_HAL_Driver/Src/stm32f0xx_hal_tsc.c ****   * @brief  Return the TSC handle state.
 912:Drivers/STM32F0xx_HAL_Driver/Src/stm32f0xx_hal_tsc.c ****   * @param  htsc Pointer to a TSC_HandleTypeDef structure that contains
 913:Drivers/STM32F0xx_HAL_Driver/Src/stm32f0xx_hal_tsc.c ****   *         the configuration information for the specified TSC.
 914:Drivers/STM32F0xx_HAL_Driver/Src/stm32f0xx_hal_tsc.c ****   * @retval HAL state
 915:Drivers/STM32F0xx_HAL_Driver/Src/stm32f0xx_hal_tsc.c ****   */
 916:Drivers/STM32F0xx_HAL_Driver/Src/stm32f0xx_hal_tsc.c **** HAL_TSC_StateTypeDef HAL_TSC_GetState(TSC_HandleTypeDef *htsc)
 917:Drivers/STM32F0xx_HAL_Driver/Src/stm32f0xx_hal_tsc.c **** {
 918:Drivers/STM32F0xx_HAL_Driver/Src/stm32f0xx_hal_tsc.c ****   /* Check the parameters */
 919:Drivers/STM32F0xx_HAL_Driver/Src/stm32f0xx_hal_tsc.c ****   assert_param(IS_TSC_ALL_INSTANCE(htsc->Instance));
 920:Drivers/STM32F0xx_HAL_Driver/Src/stm32f0xx_hal_tsc.c **** 
 921:Drivers/STM32F0xx_HAL_Driver/Src/stm32f0xx_hal_tsc.c ****   if (htsc->State == HAL_TSC_STATE_BUSY)
 922:Drivers/STM32F0xx_HAL_Driver/Src/stm32f0xx_hal_tsc.c ****   {
 923:Drivers/STM32F0xx_HAL_Driver/Src/stm32f0xx_hal_tsc.c ****     /* Check end of acquisition flag */
 924:Drivers/STM32F0xx_HAL_Driver/Src/stm32f0xx_hal_tsc.c ****     if (__HAL_TSC_GET_FLAG(htsc, TSC_FLAG_EOA) != RESET)
 925:Drivers/STM32F0xx_HAL_Driver/Src/stm32f0xx_hal_tsc.c ****     {
 926:Drivers/STM32F0xx_HAL_Driver/Src/stm32f0xx_hal_tsc.c ****       /* Check max count error flag */
 927:Drivers/STM32F0xx_HAL_Driver/Src/stm32f0xx_hal_tsc.c ****       if (__HAL_TSC_GET_FLAG(htsc, TSC_FLAG_MCE) != RESET)
 928:Drivers/STM32F0xx_HAL_Driver/Src/stm32f0xx_hal_tsc.c ****       {
 929:Drivers/STM32F0xx_HAL_Driver/Src/stm32f0xx_hal_tsc.c ****         /* Change TSC state */
 930:Drivers/STM32F0xx_HAL_Driver/Src/stm32f0xx_hal_tsc.c ****         htsc->State = HAL_TSC_STATE_ERROR;
 931:Drivers/STM32F0xx_HAL_Driver/Src/stm32f0xx_hal_tsc.c ****       }
 932:Drivers/STM32F0xx_HAL_Driver/Src/stm32f0xx_hal_tsc.c ****       else
 933:Drivers/STM32F0xx_HAL_Driver/Src/stm32f0xx_hal_tsc.c ****       {
 934:Drivers/STM32F0xx_HAL_Driver/Src/stm32f0xx_hal_tsc.c ****         /* Change TSC state */
 935:Drivers/STM32F0xx_HAL_Driver/Src/stm32f0xx_hal_tsc.c ****         htsc->State = HAL_TSC_STATE_READY;
 936:Drivers/STM32F0xx_HAL_Driver/Src/stm32f0xx_hal_tsc.c ****       }
 937:Drivers/STM32F0xx_HAL_Driver/Src/stm32f0xx_hal_tsc.c ****     }
 938:Drivers/STM32F0xx_HAL_Driver/Src/stm32f0xx_hal_tsc.c ****   }
 939:Drivers/STM32F0xx_HAL_Driver/Src/stm32f0xx_hal_tsc.c **** 
 940:Drivers/STM32F0xx_HAL_Driver/Src/stm32f0xx_hal_tsc.c ****   /* Return TSC state */
 941:Drivers/STM32F0xx_HAL_Driver/Src/stm32f0xx_hal_tsc.c ****   return htsc->State;
 942:Drivers/STM32F0xx_HAL_Driver/Src/stm32f0xx_hal_tsc.c **** }
 943:Drivers/STM32F0xx_HAL_Driver/Src/stm32f0xx_hal_tsc.c **** 
 944:Drivers/STM32F0xx_HAL_Driver/Src/stm32f0xx_hal_tsc.c **** /**
ARM GAS  /tmp/cczP4HC8.s 			page 18


 945:Drivers/STM32F0xx_HAL_Driver/Src/stm32f0xx_hal_tsc.c ****   * @}
 946:Drivers/STM32F0xx_HAL_Driver/Src/stm32f0xx_hal_tsc.c ****   */
 947:Drivers/STM32F0xx_HAL_Driver/Src/stm32f0xx_hal_tsc.c **** 
 948:Drivers/STM32F0xx_HAL_Driver/Src/stm32f0xx_hal_tsc.c **** /** @defgroup TSC_IRQ_Handler_and_Callbacks IRQ Handler and Callbacks
 949:Drivers/STM32F0xx_HAL_Driver/Src/stm32f0xx_hal_tsc.c ****  * @{
 950:Drivers/STM32F0xx_HAL_Driver/Src/stm32f0xx_hal_tsc.c ****  */
 951:Drivers/STM32F0xx_HAL_Driver/Src/stm32f0xx_hal_tsc.c **** 
 952:Drivers/STM32F0xx_HAL_Driver/Src/stm32f0xx_hal_tsc.c **** /**
 953:Drivers/STM32F0xx_HAL_Driver/Src/stm32f0xx_hal_tsc.c ****   * @brief  Handle TSC interrupt request.
 954:Drivers/STM32F0xx_HAL_Driver/Src/stm32f0xx_hal_tsc.c ****   * @param  htsc Pointer to a TSC_HandleTypeDef structure that contains
 955:Drivers/STM32F0xx_HAL_Driver/Src/stm32f0xx_hal_tsc.c ****   *         the configuration information for the specified TSC.
 956:Drivers/STM32F0xx_HAL_Driver/Src/stm32f0xx_hal_tsc.c ****   * @retval None
 957:Drivers/STM32F0xx_HAL_Driver/Src/stm32f0xx_hal_tsc.c ****   */
 958:Drivers/STM32F0xx_HAL_Driver/Src/stm32f0xx_hal_tsc.c **** void HAL_TSC_IRQHandler(TSC_HandleTypeDef *htsc)
 959:Drivers/STM32F0xx_HAL_Driver/Src/stm32f0xx_hal_tsc.c **** {
 960:Drivers/STM32F0xx_HAL_Driver/Src/stm32f0xx_hal_tsc.c ****   /* Check the parameters */
 961:Drivers/STM32F0xx_HAL_Driver/Src/stm32f0xx_hal_tsc.c ****   assert_param(IS_TSC_ALL_INSTANCE(htsc->Instance));
 962:Drivers/STM32F0xx_HAL_Driver/Src/stm32f0xx_hal_tsc.c **** 
 963:Drivers/STM32F0xx_HAL_Driver/Src/stm32f0xx_hal_tsc.c ****   /* Check if the end of acquisition occurred */
 964:Drivers/STM32F0xx_HAL_Driver/Src/stm32f0xx_hal_tsc.c ****   if (__HAL_TSC_GET_FLAG(htsc, TSC_FLAG_EOA) != RESET)
 965:Drivers/STM32F0xx_HAL_Driver/Src/stm32f0xx_hal_tsc.c ****   {
 966:Drivers/STM32F0xx_HAL_Driver/Src/stm32f0xx_hal_tsc.c ****     /* Clear EOA flag */
 967:Drivers/STM32F0xx_HAL_Driver/Src/stm32f0xx_hal_tsc.c ****     __HAL_TSC_CLEAR_FLAG(htsc, TSC_FLAG_EOA);
 968:Drivers/STM32F0xx_HAL_Driver/Src/stm32f0xx_hal_tsc.c ****   }
 969:Drivers/STM32F0xx_HAL_Driver/Src/stm32f0xx_hal_tsc.c **** 
 970:Drivers/STM32F0xx_HAL_Driver/Src/stm32f0xx_hal_tsc.c ****   /* Check if max count error occurred */
 971:Drivers/STM32F0xx_HAL_Driver/Src/stm32f0xx_hal_tsc.c ****   if (__HAL_TSC_GET_FLAG(htsc, TSC_FLAG_MCE) != RESET)
 972:Drivers/STM32F0xx_HAL_Driver/Src/stm32f0xx_hal_tsc.c ****   {
 973:Drivers/STM32F0xx_HAL_Driver/Src/stm32f0xx_hal_tsc.c ****     /* Clear MCE flag */
 974:Drivers/STM32F0xx_HAL_Driver/Src/stm32f0xx_hal_tsc.c ****     __HAL_TSC_CLEAR_FLAG(htsc, TSC_FLAG_MCE);
 975:Drivers/STM32F0xx_HAL_Driver/Src/stm32f0xx_hal_tsc.c ****     /* Change TSC state */
 976:Drivers/STM32F0xx_HAL_Driver/Src/stm32f0xx_hal_tsc.c ****     htsc->State = HAL_TSC_STATE_ERROR;
 977:Drivers/STM32F0xx_HAL_Driver/Src/stm32f0xx_hal_tsc.c **** #if (USE_HAL_TSC_REGISTER_CALLBACKS == 1)
 978:Drivers/STM32F0xx_HAL_Driver/Src/stm32f0xx_hal_tsc.c ****     htsc->ErrorCallback(htsc);
 979:Drivers/STM32F0xx_HAL_Driver/Src/stm32f0xx_hal_tsc.c **** #else
 980:Drivers/STM32F0xx_HAL_Driver/Src/stm32f0xx_hal_tsc.c ****     /* Conversion completed callback */
 981:Drivers/STM32F0xx_HAL_Driver/Src/stm32f0xx_hal_tsc.c ****     HAL_TSC_ErrorCallback(htsc);
 982:Drivers/STM32F0xx_HAL_Driver/Src/stm32f0xx_hal_tsc.c **** #endif /* USE_HAL_TSC_REGISTER_CALLBACKS */
 983:Drivers/STM32F0xx_HAL_Driver/Src/stm32f0xx_hal_tsc.c ****   }
 984:Drivers/STM32F0xx_HAL_Driver/Src/stm32f0xx_hal_tsc.c ****   else
 985:Drivers/STM32F0xx_HAL_Driver/Src/stm32f0xx_hal_tsc.c ****   {
 986:Drivers/STM32F0xx_HAL_Driver/Src/stm32f0xx_hal_tsc.c ****     /* Change TSC state */
 987:Drivers/STM32F0xx_HAL_Driver/Src/stm32f0xx_hal_tsc.c ****     htsc->State = HAL_TSC_STATE_READY;
 988:Drivers/STM32F0xx_HAL_Driver/Src/stm32f0xx_hal_tsc.c **** #if (USE_HAL_TSC_REGISTER_CALLBACKS == 1)
 989:Drivers/STM32F0xx_HAL_Driver/Src/stm32f0xx_hal_tsc.c ****     htsc->ConvCpltCallback(htsc);
 990:Drivers/STM32F0xx_HAL_Driver/Src/stm32f0xx_hal_tsc.c **** #else
 991:Drivers/STM32F0xx_HAL_Driver/Src/stm32f0xx_hal_tsc.c ****     /* Conversion completed callback */
 992:Drivers/STM32F0xx_HAL_Driver/Src/stm32f0xx_hal_tsc.c ****     HAL_TSC_ConvCpltCallback(htsc);
 993:Drivers/STM32F0xx_HAL_Driver/Src/stm32f0xx_hal_tsc.c **** #endif /* USE_HAL_TSC_REGISTER_CALLBACKS */
 994:Drivers/STM32F0xx_HAL_Driver/Src/stm32f0xx_hal_tsc.c ****   }
 995:Drivers/STM32F0xx_HAL_Driver/Src/stm32f0xx_hal_tsc.c **** }
 996:Drivers/STM32F0xx_HAL_Driver/Src/stm32f0xx_hal_tsc.c **** 
 997:Drivers/STM32F0xx_HAL_Driver/Src/stm32f0xx_hal_tsc.c **** /**
 998:Drivers/STM32F0xx_HAL_Driver/Src/stm32f0xx_hal_tsc.c ****   * @brief  Acquisition completed callback in non-blocking mode.
 999:Drivers/STM32F0xx_HAL_Driver/Src/stm32f0xx_hal_tsc.c ****   * @param  htsc Pointer to a TSC_HandleTypeDef structure that contains
1000:Drivers/STM32F0xx_HAL_Driver/Src/stm32f0xx_hal_tsc.c ****   *         the configuration information for the specified TSC.
1001:Drivers/STM32F0xx_HAL_Driver/Src/stm32f0xx_hal_tsc.c ****   * @retval None
ARM GAS  /tmp/cczP4HC8.s 			page 19


1002:Drivers/STM32F0xx_HAL_Driver/Src/stm32f0xx_hal_tsc.c ****   */
1003:Drivers/STM32F0xx_HAL_Driver/Src/stm32f0xx_hal_tsc.c **** __weak void HAL_TSC_ConvCpltCallback(TSC_HandleTypeDef *htsc)
1004:Drivers/STM32F0xx_HAL_Driver/Src/stm32f0xx_hal_tsc.c **** {
1005:Drivers/STM32F0xx_HAL_Driver/Src/stm32f0xx_hal_tsc.c ****   /* Prevent unused argument(s) compilation warning */
1006:Drivers/STM32F0xx_HAL_Driver/Src/stm32f0xx_hal_tsc.c ****   UNUSED(htsc);
1007:Drivers/STM32F0xx_HAL_Driver/Src/stm32f0xx_hal_tsc.c **** 
1008:Drivers/STM32F0xx_HAL_Driver/Src/stm32f0xx_hal_tsc.c ****   /* NOTE : This function should not be modified, when the callback is needed,
1009:Drivers/STM32F0xx_HAL_Driver/Src/stm32f0xx_hal_tsc.c ****             the HAL_TSC_ConvCpltCallback could be implemented in the user file.
1010:Drivers/STM32F0xx_HAL_Driver/Src/stm32f0xx_hal_tsc.c ****    */
1011:Drivers/STM32F0xx_HAL_Driver/Src/stm32f0xx_hal_tsc.c **** }
1012:Drivers/STM32F0xx_HAL_Driver/Src/stm32f0xx_hal_tsc.c **** 
1013:Drivers/STM32F0xx_HAL_Driver/Src/stm32f0xx_hal_tsc.c **** /**
1014:Drivers/STM32F0xx_HAL_Driver/Src/stm32f0xx_hal_tsc.c ****   * @brief  Error callback in non-blocking mode.
1015:Drivers/STM32F0xx_HAL_Driver/Src/stm32f0xx_hal_tsc.c ****   * @param  htsc Pointer to a TSC_HandleTypeDef structure that contains
1016:Drivers/STM32F0xx_HAL_Driver/Src/stm32f0xx_hal_tsc.c ****   *         the configuration information for the specified TSC.
1017:Drivers/STM32F0xx_HAL_Driver/Src/stm32f0xx_hal_tsc.c ****   * @retval None
1018:Drivers/STM32F0xx_HAL_Driver/Src/stm32f0xx_hal_tsc.c ****   */
1019:Drivers/STM32F0xx_HAL_Driver/Src/stm32f0xx_hal_tsc.c **** __weak void HAL_TSC_ErrorCallback(TSC_HandleTypeDef *htsc)
1020:Drivers/STM32F0xx_HAL_Driver/Src/stm32f0xx_hal_tsc.c **** {
1021:Drivers/STM32F0xx_HAL_Driver/Src/stm32f0xx_hal_tsc.c ****   /* Prevent unused argument(s) compilation warning */
1022:Drivers/STM32F0xx_HAL_Driver/Src/stm32f0xx_hal_tsc.c ****   UNUSED(htsc);
1023:Drivers/STM32F0xx_HAL_Driver/Src/stm32f0xx_hal_tsc.c **** 
1024:Drivers/STM32F0xx_HAL_Driver/Src/stm32f0xx_hal_tsc.c ****   /* NOTE : This function should not be modified, when the callback is needed,
1025:Drivers/STM32F0xx_HAL_Driver/Src/stm32f0xx_hal_tsc.c ****             the HAL_TSC_ErrorCallback could be implemented in the user file.
1026:Drivers/STM32F0xx_HAL_Driver/Src/stm32f0xx_hal_tsc.c ****    */
1027:Drivers/STM32F0xx_HAL_Driver/Src/stm32f0xx_hal_tsc.c **** }
1028:Drivers/STM32F0xx_HAL_Driver/Src/stm32f0xx_hal_tsc.c **** 
1029:Drivers/STM32F0xx_HAL_Driver/Src/stm32f0xx_hal_tsc.c **** /**
1030:Drivers/STM32F0xx_HAL_Driver/Src/stm32f0xx_hal_tsc.c ****   * @}
1031:Drivers/STM32F0xx_HAL_Driver/Src/stm32f0xx_hal_tsc.c ****   */
1032:Drivers/STM32F0xx_HAL_Driver/Src/stm32f0xx_hal_tsc.c **** 
1033:Drivers/STM32F0xx_HAL_Driver/Src/stm32f0xx_hal_tsc.c **** /**
1034:Drivers/STM32F0xx_HAL_Driver/Src/stm32f0xx_hal_tsc.c ****   * @}
1035:Drivers/STM32F0xx_HAL_Driver/Src/stm32f0xx_hal_tsc.c ****   */
1036:Drivers/STM32F0xx_HAL_Driver/Src/stm32f0xx_hal_tsc.c **** 
1037:Drivers/STM32F0xx_HAL_Driver/Src/stm32f0xx_hal_tsc.c **** /* Private functions ---------------------------------------------------------*/
1038:Drivers/STM32F0xx_HAL_Driver/Src/stm32f0xx_hal_tsc.c **** /** @defgroup TSC_Private_Functions TSC Private Functions
1039:Drivers/STM32F0xx_HAL_Driver/Src/stm32f0xx_hal_tsc.c ****   * @{
1040:Drivers/STM32F0xx_HAL_Driver/Src/stm32f0xx_hal_tsc.c ****   */
1041:Drivers/STM32F0xx_HAL_Driver/Src/stm32f0xx_hal_tsc.c **** 
1042:Drivers/STM32F0xx_HAL_Driver/Src/stm32f0xx_hal_tsc.c **** /**
1043:Drivers/STM32F0xx_HAL_Driver/Src/stm32f0xx_hal_tsc.c ****   * @brief  Utility function used to set the acquired groups mask.
1044:Drivers/STM32F0xx_HAL_Driver/Src/stm32f0xx_hal_tsc.c ****   * @param  iomask Channels IOs mask
1045:Drivers/STM32F0xx_HAL_Driver/Src/stm32f0xx_hal_tsc.c ****   * @retval Acquired groups mask
1046:Drivers/STM32F0xx_HAL_Driver/Src/stm32f0xx_hal_tsc.c ****   */
1047:Drivers/STM32F0xx_HAL_Driver/Src/stm32f0xx_hal_tsc.c **** static uint32_t TSC_extract_groups(uint32_t iomask)
1048:Drivers/STM32F0xx_HAL_Driver/Src/stm32f0xx_hal_tsc.c **** {
  27              		.loc 1 1048 1 view -0
  28              		.cfi_startproc
  29              		@ args = 0, pretend = 0, frame = 0
  30              		@ frame_needed = 0, uses_anonymous_args = 0
  31              		.loc 1 1048 1 is_stmt 0 view .LVU1
  32 0000 10B5     		push	{r4, lr}
  33              	.LCFI0:
  34              		.cfi_def_cfa_offset 8
  35              		.cfi_offset 4, -8
  36              		.cfi_offset 14, -4
ARM GAS  /tmp/cczP4HC8.s 			page 20


  37 0002 0400     		movs	r4, r0
1049:Drivers/STM32F0xx_HAL_Driver/Src/stm32f0xx_hal_tsc.c ****   uint32_t groups = 0UL;
  38              		.loc 1 1049 3 is_stmt 1 view .LVU2
  39              	.LVL1:
1050:Drivers/STM32F0xx_HAL_Driver/Src/stm32f0xx_hal_tsc.c ****   uint32_t idx;
  40              		.loc 1 1050 3 view .LVU3
1051:Drivers/STM32F0xx_HAL_Driver/Src/stm32f0xx_hal_tsc.c **** 
1052:Drivers/STM32F0xx_HAL_Driver/Src/stm32f0xx_hal_tsc.c ****   for (idx = 0UL; idx < (uint32_t)TSC_NB_OF_GROUPS; idx++)
  41              		.loc 1 1052 3 view .LVU4
  42              		.loc 1 1052 12 is_stmt 0 view .LVU5
  43 0004 0023     		movs	r3, #0
1049:Drivers/STM32F0xx_HAL_Driver/Src/stm32f0xx_hal_tsc.c ****   uint32_t idx;
  44              		.loc 1 1049 12 view .LVU6
  45 0006 0020     		movs	r0, #0
  46              	.LVL2:
  47              		.loc 1 1052 3 view .LVU7
  48 0008 00E0     		b	.L2
  49              	.LVL3:
  50              	.L3:
  51              		.loc 1 1052 53 is_stmt 1 discriminator 2 view .LVU8
  52              		.loc 1 1052 56 is_stmt 0 discriminator 2 view .LVU9
  53 000a 0133     		adds	r3, r3, #1
  54              	.LVL4:
  55              	.L2:
  56              		.loc 1 1052 19 is_stmt 1 discriminator 1 view .LVU10
  57              		.loc 1 1052 3 is_stmt 0 discriminator 1 view .LVU11
  58 000c 072B     		cmp	r3, #7
  59 000e 08D8     		bhi	.L5
1053:Drivers/STM32F0xx_HAL_Driver/Src/stm32f0xx_hal_tsc.c ****   {
1054:Drivers/STM32F0xx_HAL_Driver/Src/stm32f0xx_hal_tsc.c ****     if ((iomask & (0x0FUL << (idx * 4UL))) != 0UL )
  60              		.loc 1 1054 5 is_stmt 1 view .LVU12
  61              		.loc 1 1054 35 is_stmt 0 view .LVU13
  62 0010 9900     		lsls	r1, r3, #2
  63              		.loc 1 1054 27 view .LVU14
  64 0012 0F22     		movs	r2, #15
  65 0014 8A40     		lsls	r2, r2, r1
  66              		.loc 1 1054 8 view .LVU15
  67 0016 1442     		tst	r4, r2
  68 0018 F7D0     		beq	.L3
1055:Drivers/STM32F0xx_HAL_Driver/Src/stm32f0xx_hal_tsc.c ****     {
1056:Drivers/STM32F0xx_HAL_Driver/Src/stm32f0xx_hal_tsc.c ****       groups |= (1UL << idx);
  69              		.loc 1 1056 7 is_stmt 1 view .LVU16
  70              		.loc 1 1056 22 is_stmt 0 view .LVU17
  71 001a 0122     		movs	r2, #1
  72 001c 9A40     		lsls	r2, r2, r3
  73              		.loc 1 1056 14 view .LVU18
  74 001e 1043     		orrs	r0, r2
  75              	.LVL5:
  76              		.loc 1 1056 14 view .LVU19
  77 0020 F3E7     		b	.L3
  78              	.L5:
1057:Drivers/STM32F0xx_HAL_Driver/Src/stm32f0xx_hal_tsc.c ****     }
1058:Drivers/STM32F0xx_HAL_Driver/Src/stm32f0xx_hal_tsc.c ****   }
1059:Drivers/STM32F0xx_HAL_Driver/Src/stm32f0xx_hal_tsc.c **** 
1060:Drivers/STM32F0xx_HAL_Driver/Src/stm32f0xx_hal_tsc.c ****   return groups;
1061:Drivers/STM32F0xx_HAL_Driver/Src/stm32f0xx_hal_tsc.c **** }
  79              		.loc 1 1061 1 view .LVU20
ARM GAS  /tmp/cczP4HC8.s 			page 21


  80              		@ sp needed
  81              	.LVL6:
  82              		.loc 1 1061 1 view .LVU21
  83 0022 10BD     		pop	{r4, pc}
  84              		.cfi_endproc
  85              	.LFE57:
  87              		.section	.text.HAL_TSC_MspInit,"ax",%progbits
  88              		.align	1
  89              		.weak	HAL_TSC_MspInit
  90              		.syntax unified
  91              		.code	16
  92              		.thumb_func
  93              		.fpu softvfp
  95              	HAL_TSC_MspInit:
  96              	.LVL7:
  97              	.LFB42:
 346:Drivers/STM32F0xx_HAL_Driver/Src/stm32f0xx_hal_tsc.c ****   /* Prevent unused argument(s) compilation warning */
  98              		.loc 1 346 1 is_stmt 1 view -0
  99              		.cfi_startproc
 100              		@ args = 0, pretend = 0, frame = 0
 101              		@ frame_needed = 0, uses_anonymous_args = 0
 102              		@ link register save eliminated.
 348:Drivers/STM32F0xx_HAL_Driver/Src/stm32f0xx_hal_tsc.c **** 
 103              		.loc 1 348 3 view .LVU23
 353:Drivers/STM32F0xx_HAL_Driver/Src/stm32f0xx_hal_tsc.c **** 
 104              		.loc 1 353 1 is_stmt 0 view .LVU24
 105              		@ sp needed
 106 0000 7047     		bx	lr
 107              		.cfi_endproc
 108              	.LFE42:
 110              		.section	.text.HAL_TSC_Init,"ax",%progbits
 111              		.align	1
 112              		.global	HAL_TSC_Init
 113              		.syntax unified
 114              		.code	16
 115              		.thumb_func
 116              		.fpu softvfp
 118              	HAL_TSC_Init:
 119              	.LVL8:
 120              	.LFB40:
 198:Drivers/STM32F0xx_HAL_Driver/Src/stm32f0xx_hal_tsc.c ****   /* Check TSC handle allocation */
 121              		.loc 1 198 1 is_stmt 1 view -0
 122              		.cfi_startproc
 123              		@ args = 0, pretend = 0, frame = 0
 124              		@ frame_needed = 0, uses_anonymous_args = 0
 198:Drivers/STM32F0xx_HAL_Driver/Src/stm32f0xx_hal_tsc.c ****   /* Check TSC handle allocation */
 125              		.loc 1 198 1 is_stmt 0 view .LVU26
 126 0000 70B5     		push	{r4, r5, r6, lr}
 127              	.LCFI1:
 128              		.cfi_def_cfa_offset 16
 129              		.cfi_offset 4, -16
 130              		.cfi_offset 5, -12
 131              		.cfi_offset 6, -8
 132              		.cfi_offset 14, -4
 133 0002 041E     		subs	r4, r0, #0
 200:Drivers/STM32F0xx_HAL_Driver/Src/stm32f0xx_hal_tsc.c ****   {
 134              		.loc 1 200 3 is_stmt 1 view .LVU27
ARM GAS  /tmp/cczP4HC8.s 			page 22


 200:Drivers/STM32F0xx_HAL_Driver/Src/stm32f0xx_hal_tsc.c ****   {
 135              		.loc 1 200 6 is_stmt 0 view .LVU28
 136 0004 4ED0     		beq	.L11
 206:Drivers/STM32F0xx_HAL_Driver/Src/stm32f0xx_hal_tsc.c ****   assert_param(IS_TSC_CTPH(htsc->Init.CTPulseHighLength));
 137              		.loc 1 206 3 is_stmt 1 view .LVU29
 207:Drivers/STM32F0xx_HAL_Driver/Src/stm32f0xx_hal_tsc.c ****   assert_param(IS_TSC_CTPL(htsc->Init.CTPulseLowLength));
 138              		.loc 1 207 3 view .LVU30
 208:Drivers/STM32F0xx_HAL_Driver/Src/stm32f0xx_hal_tsc.c ****   assert_param(IS_TSC_SS(htsc->Init.SpreadSpectrum));
 139              		.loc 1 208 3 view .LVU31
 209:Drivers/STM32F0xx_HAL_Driver/Src/stm32f0xx_hal_tsc.c ****   assert_param(IS_TSC_SSD(htsc->Init.SpreadSpectrumDeviation));
 140              		.loc 1 209 3 view .LVU32
 210:Drivers/STM32F0xx_HAL_Driver/Src/stm32f0xx_hal_tsc.c ****   assert_param(IS_TSC_SS_PRESC(htsc->Init.SpreadSpectrumPrescaler));
 141              		.loc 1 210 3 view .LVU33
 211:Drivers/STM32F0xx_HAL_Driver/Src/stm32f0xx_hal_tsc.c ****   assert_param(IS_TSC_PG_PRESC(htsc->Init.PulseGeneratorPrescaler));
 142              		.loc 1 211 3 view .LVU34
 212:Drivers/STM32F0xx_HAL_Driver/Src/stm32f0xx_hal_tsc.c ****   assert_param(IS_TSC_MCV(htsc->Init.MaxCountValue));
 143              		.loc 1 212 3 view .LVU35
 213:Drivers/STM32F0xx_HAL_Driver/Src/stm32f0xx_hal_tsc.c ****   assert_param(IS_TSC_IODEF(htsc->Init.IODefaultMode));
 144              		.loc 1 213 3 view .LVU36
 214:Drivers/STM32F0xx_HAL_Driver/Src/stm32f0xx_hal_tsc.c ****   assert_param(IS_TSC_SYNC_POL(htsc->Init.SynchroPinPolarity));
 145              		.loc 1 214 3 view .LVU37
 215:Drivers/STM32F0xx_HAL_Driver/Src/stm32f0xx_hal_tsc.c ****   assert_param(IS_TSC_ACQ_MODE(htsc->Init.AcquisitionMode));
 146              		.loc 1 215 3 view .LVU38
 216:Drivers/STM32F0xx_HAL_Driver/Src/stm32f0xx_hal_tsc.c ****   assert_param(IS_TSC_MCE_IT(htsc->Init.MaxCountInterrupt));
 147              		.loc 1 216 3 view .LVU39
 217:Drivers/STM32F0xx_HAL_Driver/Src/stm32f0xx_hal_tsc.c ****   assert_param(IS_TSC_GROUP(htsc->Init.ChannelIOs));
 148              		.loc 1 217 3 view .LVU40
 218:Drivers/STM32F0xx_HAL_Driver/Src/stm32f0xx_hal_tsc.c ****   assert_param(IS_TSC_GROUP(htsc->Init.ShieldIOs));
 149              		.loc 1 218 3 view .LVU41
 219:Drivers/STM32F0xx_HAL_Driver/Src/stm32f0xx_hal_tsc.c ****   assert_param(IS_TSC_GROUP(htsc->Init.SamplingIOs));
 150              		.loc 1 219 3 view .LVU42
 220:Drivers/STM32F0xx_HAL_Driver/Src/stm32f0xx_hal_tsc.c **** 
 151              		.loc 1 220 3 view .LVU43
 222:Drivers/STM32F0xx_HAL_Driver/Src/stm32f0xx_hal_tsc.c ****   {
 152              		.loc 1 222 3 view .LVU44
 222:Drivers/STM32F0xx_HAL_Driver/Src/stm32f0xx_hal_tsc.c ****   {
 153              		.loc 1 222 11 is_stmt 0 view .LVU45
 154 0006 3C23     		movs	r3, #60
 155 0008 C35C     		ldrb	r3, [r0, r3]
 222:Drivers/STM32F0xx_HAL_Driver/Src/stm32f0xx_hal_tsc.c ****   {
 156              		.loc 1 222 6 view .LVU46
 157 000a 002B     		cmp	r3, #0
 158 000c 3DD0     		beq	.L12
 159              	.LVL9:
 160              	.L9:
 246:Drivers/STM32F0xx_HAL_Driver/Src/stm32f0xx_hal_tsc.c **** 
 161              		.loc 1 246 3 is_stmt 1 view .LVU47
 246:Drivers/STM32F0xx_HAL_Driver/Src/stm32f0xx_hal_tsc.c **** 
 162              		.loc 1 246 15 is_stmt 0 view .LVU48
 163 000e 3C23     		movs	r3, #60
 164 0010 0222     		movs	r2, #2
 165 0012 E254     		strb	r2, [r4, r3]
 252:Drivers/STM32F0xx_HAL_Driver/Src/stm32f0xx_hal_tsc.c **** 
 166              		.loc 1 252 3 is_stmt 1 view .LVU49
 252:Drivers/STM32F0xx_HAL_Driver/Src/stm32f0xx_hal_tsc.c **** 
 167              		.loc 1 252 7 is_stmt 0 view .LVU50
 168 0014 2368     		ldr	r3, [r4]
ARM GAS  /tmp/cczP4HC8.s 			page 23


 252:Drivers/STM32F0xx_HAL_Driver/Src/stm32f0xx_hal_tsc.c **** 
 169              		.loc 1 252 22 view .LVU51
 170 0016 013A     		subs	r2, r2, #1
 171 0018 1A60     		str	r2, [r3]
 255:Drivers/STM32F0xx_HAL_Driver/Src/stm32f0xx_hal_tsc.c ****                          htsc->Init.CTPulseLowLength |
 172              		.loc 1 255 3 is_stmt 1 view .LVU52
 255:Drivers/STM32F0xx_HAL_Driver/Src/stm32f0xx_hal_tsc.c ****                          htsc->Init.CTPulseLowLength |
 173              		.loc 1 255 7 is_stmt 0 view .LVU53
 174 001a 2068     		ldr	r0, [r4]
 255:Drivers/STM32F0xx_HAL_Driver/Src/stm32f0xx_hal_tsc.c ****                          htsc->Init.CTPulseLowLength |
 175              		.loc 1 255 22 view .LVU54
 176 001c 0268     		ldr	r2, [r0]
 255:Drivers/STM32F0xx_HAL_Driver/Src/stm32f0xx_hal_tsc.c ****                          htsc->Init.CTPulseLowLength |
 177              		.loc 1 255 55 view .LVU55
 178 001e 6368     		ldr	r3, [r4, #4]
 179 0020 A168     		ldr	r1, [r4, #8]
 180 0022 0B43     		orrs	r3, r1
 257:Drivers/STM32F0xx_HAL_Driver/Src/stm32f0xx_hal_tsc.c ****                          htsc->Init.SpreadSpectrumPrescaler |
 181              		.loc 1 257 62 view .LVU56
 182 0024 2169     		ldr	r1, [r4, #16]
 183 0026 4904     		lsls	r1, r1, #17
 256:Drivers/STM32F0xx_HAL_Driver/Src/stm32f0xx_hal_tsc.c ****                          (htsc->Init.SpreadSpectrumDeviation << TSC_CR_SSD_Pos) |
 184              		.loc 1 256 54 view .LVU57
 185 0028 0B43     		orrs	r3, r1
 257:Drivers/STM32F0xx_HAL_Driver/Src/stm32f0xx_hal_tsc.c ****                          htsc->Init.SpreadSpectrumPrescaler |
 186              		.loc 1 257 81 view .LVU58
 187 002a 6169     		ldr	r1, [r4, #20]
 188 002c 0B43     		orrs	r3, r1
 258:Drivers/STM32F0xx_HAL_Driver/Src/stm32f0xx_hal_tsc.c ****                          htsc->Init.PulseGeneratorPrescaler |
 189              		.loc 1 258 61 view .LVU59
 190 002e A169     		ldr	r1, [r4, #24]
 191 0030 0B43     		orrs	r3, r1
 259:Drivers/STM32F0xx_HAL_Driver/Src/stm32f0xx_hal_tsc.c ****                          htsc->Init.MaxCountValue |
 192              		.loc 1 259 61 view .LVU60
 193 0032 E169     		ldr	r1, [r4, #28]
 194 0034 0B43     		orrs	r3, r1
 260:Drivers/STM32F0xx_HAL_Driver/Src/stm32f0xx_hal_tsc.c ****                          htsc->Init.SynchroPinPolarity |
 195              		.loc 1 260 51 view .LVU61
 196 0036 616A     		ldr	r1, [r4, #36]
 197 0038 0B43     		orrs	r3, r1
 261:Drivers/STM32F0xx_HAL_Driver/Src/stm32f0xx_hal_tsc.c ****                          htsc->Init.AcquisitionMode);
 198              		.loc 1 261 56 view .LVU62
 199 003a A16A     		ldr	r1, [r4, #40]
 200 003c 0B43     		orrs	r3, r1
 255:Drivers/STM32F0xx_HAL_Driver/Src/stm32f0xx_hal_tsc.c ****                          htsc->Init.CTPulseLowLength |
 201              		.loc 1 255 22 view .LVU63
 202 003e 1343     		orrs	r3, r2
 203 0040 0360     		str	r3, [r0]
 265:Drivers/STM32F0xx_HAL_Driver/Src/stm32f0xx_hal_tsc.c ****   {
 204              		.loc 1 265 3 is_stmt 1 view .LVU64
 265:Drivers/STM32F0xx_HAL_Driver/Src/stm32f0xx_hal_tsc.c ****   {
 205              		.loc 1 265 17 is_stmt 0 view .LVU65
 206 0042 237B     		ldrb	r3, [r4, #12]
 265:Drivers/STM32F0xx_HAL_Driver/Src/stm32f0xx_hal_tsc.c ****   {
 207              		.loc 1 265 6 view .LVU66
 208 0044 012B     		cmp	r3, #1
 209 0046 26D0     		beq	.L13
ARM GAS  /tmp/cczP4HC8.s 			page 24


 210              	.L10:
 271:Drivers/STM32F0xx_HAL_Driver/Src/stm32f0xx_hal_tsc.c **** 
 211              		.loc 1 271 3 is_stmt 1 view .LVU67
 271:Drivers/STM32F0xx_HAL_Driver/Src/stm32f0xx_hal_tsc.c **** 
 212              		.loc 1 271 52 is_stmt 0 view .LVU68
 213 0048 236B     		ldr	r3, [r4, #48]
 214 004a 626B     		ldr	r2, [r4, #52]
 215 004c 1343     		orrs	r3, r2
 271:Drivers/STM32F0xx_HAL_Driver/Src/stm32f0xx_hal_tsc.c **** 
 216              		.loc 1 271 75 view .LVU69
 217 004e A26B     		ldr	r2, [r4, #56]
 218 0050 1343     		orrs	r3, r2
 271:Drivers/STM32F0xx_HAL_Driver/Src/stm32f0xx_hal_tsc.c **** 
 219              		.loc 1 271 7 view .LVU70
 220 0052 2268     		ldr	r2, [r4]
 271:Drivers/STM32F0xx_HAL_Driver/Src/stm32f0xx_hal_tsc.c **** 
 221              		.loc 1 271 28 view .LVU71
 222 0054 DB43     		mvns	r3, r3
 271:Drivers/STM32F0xx_HAL_Driver/Src/stm32f0xx_hal_tsc.c **** 
 223              		.loc 1 271 25 view .LVU72
 224 0056 1361     		str	r3, [r2, #16]
 274:Drivers/STM32F0xx_HAL_Driver/Src/stm32f0xx_hal_tsc.c **** 
 225              		.loc 1 274 3 is_stmt 1 view .LVU73
 274:Drivers/STM32F0xx_HAL_Driver/Src/stm32f0xx_hal_tsc.c **** 
 226              		.loc 1 274 7 is_stmt 0 view .LVU74
 227 0058 2268     		ldr	r2, [r4]
 274:Drivers/STM32F0xx_HAL_Driver/Src/stm32f0xx_hal_tsc.c **** 
 228              		.loc 1 274 50 view .LVU75
 229 005a 236B     		ldr	r3, [r4, #48]
 230 005c 616B     		ldr	r1, [r4, #52]
 231 005e 0B43     		orrs	r3, r1
 274:Drivers/STM32F0xx_HAL_Driver/Src/stm32f0xx_hal_tsc.c **** 
 232              		.loc 1 274 25 view .LVU76
 233 0060 9362     		str	r3, [r2, #40]
 277:Drivers/STM32F0xx_HAL_Driver/Src/stm32f0xx_hal_tsc.c **** 
 234              		.loc 1 277 3 is_stmt 1 view .LVU77
 277:Drivers/STM32F0xx_HAL_Driver/Src/stm32f0xx_hal_tsc.c **** 
 235              		.loc 1 277 7 is_stmt 0 view .LVU78
 236 0062 2368     		ldr	r3, [r4]
 277:Drivers/STM32F0xx_HAL_Driver/Src/stm32f0xx_hal_tsc.c **** 
 237              		.loc 1 277 25 view .LVU79
 238 0064 A26B     		ldr	r2, [r4, #56]
 239 0066 1A62     		str	r2, [r3, #32]
 280:Drivers/STM32F0xx_HAL_Driver/Src/stm32f0xx_hal_tsc.c **** 
 240              		.loc 1 280 3 is_stmt 1 view .LVU80
 280:Drivers/STM32F0xx_HAL_Driver/Src/stm32f0xx_hal_tsc.c **** 
 241              		.loc 1 280 7 is_stmt 0 view .LVU81
 242 0068 2568     		ldr	r5, [r4]
 280:Drivers/STM32F0xx_HAL_Driver/Src/stm32f0xx_hal_tsc.c **** 
 243              		.loc 1 280 28 view .LVU82
 244 006a 206B     		ldr	r0, [r4, #48]
 245 006c FFF7FEFF 		bl	TSC_extract_groups
 246              	.LVL10:
 280:Drivers/STM32F0xx_HAL_Driver/Src/stm32f0xx_hal_tsc.c **** 
 247              		.loc 1 280 26 view .LVU83
 248 0070 2863     		str	r0, [r5, #48]
 283:Drivers/STM32F0xx_HAL_Driver/Src/stm32f0xx_hal_tsc.c **** 
ARM GAS  /tmp/cczP4HC8.s 			page 25


 249              		.loc 1 283 3 is_stmt 1 view .LVU84
 283:Drivers/STM32F0xx_HAL_Driver/Src/stm32f0xx_hal_tsc.c **** 
 250              		.loc 1 283 7 is_stmt 0 view .LVU85
 251 0072 2168     		ldr	r1, [r4]
 283:Drivers/STM32F0xx_HAL_Driver/Src/stm32f0xx_hal_tsc.c **** 
 252              		.loc 1 283 23 view .LVU86
 253 0074 4B68     		ldr	r3, [r1, #4]
 254 0076 0322     		movs	r2, #3
 255 0078 9343     		bics	r3, r2
 256 007a 4B60     		str	r3, [r1, #4]
 286:Drivers/STM32F0xx_HAL_Driver/Src/stm32f0xx_hal_tsc.c **** 
 257              		.loc 1 286 3 is_stmt 1 view .LVU87
 286:Drivers/STM32F0xx_HAL_Driver/Src/stm32f0xx_hal_tsc.c **** 
 258              		.loc 1 286 7 is_stmt 0 view .LVU88
 259 007c 2368     		ldr	r3, [r4]
 286:Drivers/STM32F0xx_HAL_Driver/Src/stm32f0xx_hal_tsc.c **** 
 260              		.loc 1 286 23 view .LVU89
 261 007e 9A60     		str	r2, [r3, #8]
 291:Drivers/STM32F0xx_HAL_Driver/Src/stm32f0xx_hal_tsc.c **** 
 262              		.loc 1 291 3 is_stmt 1 view .LVU90
 291:Drivers/STM32F0xx_HAL_Driver/Src/stm32f0xx_hal_tsc.c **** 
 263              		.loc 1 291 15 is_stmt 0 view .LVU91
 264 0080 3C23     		movs	r3, #60
 265 0082 023A     		subs	r2, r2, #2
 266 0084 E254     		strb	r2, [r4, r3]
 294:Drivers/STM32F0xx_HAL_Driver/Src/stm32f0xx_hal_tsc.c **** }
 267              		.loc 1 294 3 is_stmt 1 view .LVU92
 294:Drivers/STM32F0xx_HAL_Driver/Src/stm32f0xx_hal_tsc.c **** }
 268              		.loc 1 294 10 is_stmt 0 view .LVU93
 269 0086 0020     		movs	r0, #0
 270              	.L8:
 295:Drivers/STM32F0xx_HAL_Driver/Src/stm32f0xx_hal_tsc.c **** 
 271              		.loc 1 295 1 view .LVU94
 272              		@ sp needed
 273              	.LVL11:
 295:Drivers/STM32F0xx_HAL_Driver/Src/stm32f0xx_hal_tsc.c **** 
 274              		.loc 1 295 1 view .LVU95
 275 0088 70BD     		pop	{r4, r5, r6, pc}
 276              	.LVL12:
 277              	.L12:
 225:Drivers/STM32F0xx_HAL_Driver/Src/stm32f0xx_hal_tsc.c **** 
 278              		.loc 1 225 5 is_stmt 1 view .LVU96
 225:Drivers/STM32F0xx_HAL_Driver/Src/stm32f0xx_hal_tsc.c **** 
 279              		.loc 1 225 16 is_stmt 0 view .LVU97
 280 008a 3D33     		adds	r3, r3, #61
 281 008c 0022     		movs	r2, #0
 282 008e C254     		strb	r2, [r0, r3]
 241:Drivers/STM32F0xx_HAL_Driver/Src/stm32f0xx_hal_tsc.c **** #endif /* USE_HAL_TSC_REGISTER_CALLBACKS */
 283              		.loc 1 241 5 is_stmt 1 view .LVU98
 284 0090 FFF7FEFF 		bl	HAL_TSC_MspInit
 285              	.LVL13:
 241:Drivers/STM32F0xx_HAL_Driver/Src/stm32f0xx_hal_tsc.c **** #endif /* USE_HAL_TSC_REGISTER_CALLBACKS */
 286              		.loc 1 241 5 is_stmt 0 view .LVU99
 287 0094 BBE7     		b	.L9
 288              	.L13:
 267:Drivers/STM32F0xx_HAL_Driver/Src/stm32f0xx_hal_tsc.c ****   }
 289              		.loc 1 267 5 is_stmt 1 view .LVU100
ARM GAS  /tmp/cczP4HC8.s 			page 26


 267:Drivers/STM32F0xx_HAL_Driver/Src/stm32f0xx_hal_tsc.c ****   }
 290              		.loc 1 267 9 is_stmt 0 view .LVU101
 291 0096 2268     		ldr	r2, [r4]
 267:Drivers/STM32F0xx_HAL_Driver/Src/stm32f0xx_hal_tsc.c ****   }
 292              		.loc 1 267 24 view .LVU102
 293 0098 1168     		ldr	r1, [r2]
 294 009a 8023     		movs	r3, #128
 295 009c 5B02     		lsls	r3, r3, #9
 296 009e 0B43     		orrs	r3, r1
 297 00a0 1360     		str	r3, [r2]
 298 00a2 D1E7     		b	.L10
 299              	.LVL14:
 300              	.L11:
 202:Drivers/STM32F0xx_HAL_Driver/Src/stm32f0xx_hal_tsc.c ****   }
 301              		.loc 1 202 12 view .LVU103
 302 00a4 0120     		movs	r0, #1
 303              	.LVL15:
 202:Drivers/STM32F0xx_HAL_Driver/Src/stm32f0xx_hal_tsc.c ****   }
 304              		.loc 1 202 12 view .LVU104
 305 00a6 EFE7     		b	.L8
 306              		.cfi_endproc
 307              	.LFE40:
 309              		.section	.text.HAL_TSC_MspDeInit,"ax",%progbits
 310              		.align	1
 311              		.weak	HAL_TSC_MspDeInit
 312              		.syntax unified
 313              		.code	16
 314              		.thumb_func
 315              		.fpu softvfp
 317              	HAL_TSC_MspDeInit:
 318              	.LVL16:
 319              	.LFB43:
 362:Drivers/STM32F0xx_HAL_Driver/Src/stm32f0xx_hal_tsc.c ****   /* Prevent unused argument(s) compilation warning */
 320              		.loc 1 362 1 is_stmt 1 view -0
 321              		.cfi_startproc
 322              		@ args = 0, pretend = 0, frame = 0
 323              		@ frame_needed = 0, uses_anonymous_args = 0
 324              		@ link register save eliminated.
 364:Drivers/STM32F0xx_HAL_Driver/Src/stm32f0xx_hal_tsc.c **** 
 325              		.loc 1 364 3 view .LVU106
 369:Drivers/STM32F0xx_HAL_Driver/Src/stm32f0xx_hal_tsc.c **** 
 326              		.loc 1 369 1 is_stmt 0 view .LVU107
 327              		@ sp needed
 328 0000 7047     		bx	lr
 329              		.cfi_endproc
 330              	.LFE43:
 332              		.section	.text.HAL_TSC_DeInit,"ax",%progbits
 333              		.align	1
 334              		.global	HAL_TSC_DeInit
 335              		.syntax unified
 336              		.code	16
 337              		.thumb_func
 338              		.fpu softvfp
 340              	HAL_TSC_DeInit:
 341              	.LVL17:
 342              	.LFB41:
 303:Drivers/STM32F0xx_HAL_Driver/Src/stm32f0xx_hal_tsc.c ****   /* Check TSC handle allocation */
ARM GAS  /tmp/cczP4HC8.s 			page 27


 343              		.loc 1 303 1 is_stmt 1 view -0
 344              		.cfi_startproc
 345              		@ args = 0, pretend = 0, frame = 0
 346              		@ frame_needed = 0, uses_anonymous_args = 0
 303:Drivers/STM32F0xx_HAL_Driver/Src/stm32f0xx_hal_tsc.c ****   /* Check TSC handle allocation */
 347              		.loc 1 303 1 is_stmt 0 view .LVU109
 348 0000 70B5     		push	{r4, r5, r6, lr}
 349              	.LCFI2:
 350              		.cfi_def_cfa_offset 16
 351              		.cfi_offset 4, -16
 352              		.cfi_offset 5, -12
 353              		.cfi_offset 6, -8
 354              		.cfi_offset 14, -4
 355 0002 041E     		subs	r4, r0, #0
 305:Drivers/STM32F0xx_HAL_Driver/Src/stm32f0xx_hal_tsc.c ****   {
 356              		.loc 1 305 3 is_stmt 1 view .LVU110
 305:Drivers/STM32F0xx_HAL_Driver/Src/stm32f0xx_hal_tsc.c ****   {
 357              		.loc 1 305 6 is_stmt 0 view .LVU111
 358 0004 0AD0     		beq	.L17
 311:Drivers/STM32F0xx_HAL_Driver/Src/stm32f0xx_hal_tsc.c **** 
 359              		.loc 1 311 3 is_stmt 1 view .LVU112
 314:Drivers/STM32F0xx_HAL_Driver/Src/stm32f0xx_hal_tsc.c **** 
 360              		.loc 1 314 3 view .LVU113
 314:Drivers/STM32F0xx_HAL_Driver/Src/stm32f0xx_hal_tsc.c **** 
 361              		.loc 1 314 15 is_stmt 0 view .LVU114
 362 0006 3C25     		movs	r5, #60
 363 0008 0223     		movs	r3, #2
 364 000a 4355     		strb	r3, [r0, r5]
 326:Drivers/STM32F0xx_HAL_Driver/Src/stm32f0xx_hal_tsc.c **** #endif /* USE_HAL_TSC_REGISTER_CALLBACKS */
 365              		.loc 1 326 3 is_stmt 1 view .LVU115
 366 000c FFF7FEFF 		bl	HAL_TSC_MspDeInit
 367              	.LVL18:
 330:Drivers/STM32F0xx_HAL_Driver/Src/stm32f0xx_hal_tsc.c **** 
 368              		.loc 1 330 3 view .LVU116
 330:Drivers/STM32F0xx_HAL_Driver/Src/stm32f0xx_hal_tsc.c **** 
 369              		.loc 1 330 15 is_stmt 0 view .LVU117
 370 0010 0023     		movs	r3, #0
 371 0012 6355     		strb	r3, [r4, r5]
 333:Drivers/STM32F0xx_HAL_Driver/Src/stm32f0xx_hal_tsc.c **** 
 372              		.loc 1 333 3 is_stmt 1 view .LVU118
 333:Drivers/STM32F0xx_HAL_Driver/Src/stm32f0xx_hal_tsc.c **** 
 373              		.loc 1 333 3 view .LVU119
 374 0014 3D22     		movs	r2, #61
 375 0016 A354     		strb	r3, [r4, r2]
 333:Drivers/STM32F0xx_HAL_Driver/Src/stm32f0xx_hal_tsc.c **** 
 376              		.loc 1 333 3 view .LVU120
 336:Drivers/STM32F0xx_HAL_Driver/Src/stm32f0xx_hal_tsc.c **** }
 377              		.loc 1 336 3 view .LVU121
 336:Drivers/STM32F0xx_HAL_Driver/Src/stm32f0xx_hal_tsc.c **** }
 378              		.loc 1 336 10 is_stmt 0 view .LVU122
 379 0018 0020     		movs	r0, #0
 380              	.L16:
 337:Drivers/STM32F0xx_HAL_Driver/Src/stm32f0xx_hal_tsc.c **** 
 381              		.loc 1 337 1 view .LVU123
 382              		@ sp needed
 383              	.LVL19:
 337:Drivers/STM32F0xx_HAL_Driver/Src/stm32f0xx_hal_tsc.c **** 
ARM GAS  /tmp/cczP4HC8.s 			page 28


 384              		.loc 1 337 1 view .LVU124
 385 001a 70BD     		pop	{r4, r5, r6, pc}
 386              	.LVL20:
 387              	.L17:
 307:Drivers/STM32F0xx_HAL_Driver/Src/stm32f0xx_hal_tsc.c ****   }
 388              		.loc 1 307 12 view .LVU125
 389 001c 0120     		movs	r0, #1
 390              	.LVL21:
 307:Drivers/STM32F0xx_HAL_Driver/Src/stm32f0xx_hal_tsc.c ****   }
 391              		.loc 1 307 12 view .LVU126
 392 001e FCE7     		b	.L16
 393              		.cfi_endproc
 394              	.LFE41:
 396              		.section	.text.HAL_TSC_Start,"ax",%progbits
 397              		.align	1
 398              		.global	HAL_TSC_Start
 399              		.syntax unified
 400              		.code	16
 401              		.thumb_func
 402              		.fpu softvfp
 404              	HAL_TSC_Start:
 405              	.LVL22:
 406              	.LFB44:
 581:Drivers/STM32F0xx_HAL_Driver/Src/stm32f0xx_hal_tsc.c ****   /* Check the parameters */
 407              		.loc 1 581 1 is_stmt 1 view -0
 408              		.cfi_startproc
 409              		@ args = 0, pretend = 0, frame = 0
 410              		@ frame_needed = 0, uses_anonymous_args = 0
 411              		@ link register save eliminated.
 583:Drivers/STM32F0xx_HAL_Driver/Src/stm32f0xx_hal_tsc.c **** 
 412              		.loc 1 583 3 view .LVU128
 586:Drivers/STM32F0xx_HAL_Driver/Src/stm32f0xx_hal_tsc.c **** 
 413              		.loc 1 586 3 view .LVU129
 586:Drivers/STM32F0xx_HAL_Driver/Src/stm32f0xx_hal_tsc.c **** 
 414              		.loc 1 586 3 view .LVU130
 415 0000 3D23     		movs	r3, #61
 416 0002 C35C     		ldrb	r3, [r0, r3]
 417 0004 012B     		cmp	r3, #1
 418 0006 24D0     		beq	.L22
 586:Drivers/STM32F0xx_HAL_Driver/Src/stm32f0xx_hal_tsc.c **** 
 419              		.loc 1 586 3 discriminator 2 view .LVU131
 420 0008 3D23     		movs	r3, #61
 421 000a 0122     		movs	r2, #1
 422 000c C254     		strb	r2, [r0, r3]
 586:Drivers/STM32F0xx_HAL_Driver/Src/stm32f0xx_hal_tsc.c **** 
 423              		.loc 1 586 3 discriminator 2 view .LVU132
 589:Drivers/STM32F0xx_HAL_Driver/Src/stm32f0xx_hal_tsc.c **** 
 424              		.loc 1 589 3 discriminator 2 view .LVU133
 589:Drivers/STM32F0xx_HAL_Driver/Src/stm32f0xx_hal_tsc.c **** 
 425              		.loc 1 589 15 is_stmt 0 discriminator 2 view .LVU134
 426 000e 013B     		subs	r3, r3, #1
 427 0010 0132     		adds	r2, r2, #1
 428 0012 C254     		strb	r2, [r0, r3]
 592:Drivers/STM32F0xx_HAL_Driver/Src/stm32f0xx_hal_tsc.c **** 
 429              		.loc 1 592 3 is_stmt 1 discriminator 2 view .LVU135
 430 0014 0168     		ldr	r1, [r0]
 431 0016 4B68     		ldr	r3, [r1, #4]
ARM GAS  /tmp/cczP4HC8.s 			page 29


 432 0018 0132     		adds	r2, r2, #1
 433 001a 9343     		bics	r3, r2
 434 001c 4B60     		str	r3, [r1, #4]
 595:Drivers/STM32F0xx_HAL_Driver/Src/stm32f0xx_hal_tsc.c **** 
 435              		.loc 1 595 3 discriminator 2 view .LVU136
 436 001e 0368     		ldr	r3, [r0]
 437 0020 9A60     		str	r2, [r3, #8]
 598:Drivers/STM32F0xx_HAL_Driver/Src/stm32f0xx_hal_tsc.c ****   {
 438              		.loc 1 598 3 discriminator 2 view .LVU137
 598:Drivers/STM32F0xx_HAL_Driver/Src/stm32f0xx_hal_tsc.c ****   {
 439              		.loc 1 598 6 is_stmt 0 discriminator 2 view .LVU138
 440 0022 036A     		ldr	r3, [r0, #32]
 441 0024 002B     		cmp	r3, #0
 442 0026 0ED1     		bne	.L20
 600:Drivers/STM32F0xx_HAL_Driver/Src/stm32f0xx_hal_tsc.c ****   }
 443              		.loc 1 600 5 is_stmt 1 view .LVU139
 444 0028 0268     		ldr	r2, [r0]
 445 002a 1368     		ldr	r3, [r2]
 446 002c 1021     		movs	r1, #16
 447 002e 8B43     		bics	r3, r1
 448 0030 1360     		str	r3, [r2]
 449              	.L21:
 608:Drivers/STM32F0xx_HAL_Driver/Src/stm32f0xx_hal_tsc.c **** 
 450              		.loc 1 608 3 view .LVU140
 451 0032 0268     		ldr	r2, [r0]
 452 0034 1368     		ldr	r3, [r2]
 453 0036 0221     		movs	r1, #2
 454 0038 0B43     		orrs	r3, r1
 455 003a 1360     		str	r3, [r2]
 611:Drivers/STM32F0xx_HAL_Driver/Src/stm32f0xx_hal_tsc.c **** 
 456              		.loc 1 611 3 view .LVU141
 611:Drivers/STM32F0xx_HAL_Driver/Src/stm32f0xx_hal_tsc.c **** 
 457              		.loc 1 611 3 view .LVU142
 458 003c 3D23     		movs	r3, #61
 459 003e 0022     		movs	r2, #0
 460 0040 C254     		strb	r2, [r0, r3]
 611:Drivers/STM32F0xx_HAL_Driver/Src/stm32f0xx_hal_tsc.c **** 
 461              		.loc 1 611 3 view .LVU143
 614:Drivers/STM32F0xx_HAL_Driver/Src/stm32f0xx_hal_tsc.c **** }
 462              		.loc 1 614 3 view .LVU144
 614:Drivers/STM32F0xx_HAL_Driver/Src/stm32f0xx_hal_tsc.c **** }
 463              		.loc 1 614 10 is_stmt 0 view .LVU145
 464 0042 0020     		movs	r0, #0
 465              	.LVL23:
 466              	.L19:
 615:Drivers/STM32F0xx_HAL_Driver/Src/stm32f0xx_hal_tsc.c **** 
 467              		.loc 1 615 1 view .LVU146
 468              		@ sp needed
 469 0044 7047     		bx	lr
 470              	.LVL24:
 471              	.L20:
 604:Drivers/STM32F0xx_HAL_Driver/Src/stm32f0xx_hal_tsc.c ****   }
 472              		.loc 1 604 5 is_stmt 1 view .LVU147
 473 0046 0268     		ldr	r2, [r0]
 474 0048 1368     		ldr	r3, [r2]
 475 004a 1021     		movs	r1, #16
 476 004c 0B43     		orrs	r3, r1
ARM GAS  /tmp/cczP4HC8.s 			page 30


 477 004e 1360     		str	r3, [r2]
 478 0050 EFE7     		b	.L21
 479              	.L22:
 586:Drivers/STM32F0xx_HAL_Driver/Src/stm32f0xx_hal_tsc.c **** 
 480              		.loc 1 586 3 is_stmt 0 view .LVU148
 481 0052 0220     		movs	r0, #2
 482              	.LVL25:
 586:Drivers/STM32F0xx_HAL_Driver/Src/stm32f0xx_hal_tsc.c **** 
 483              		.loc 1 586 3 view .LVU149
 484 0054 F6E7     		b	.L19
 485              		.cfi_endproc
 486              	.LFE44:
 488              		.section	.text.HAL_TSC_Start_IT,"ax",%progbits
 489              		.align	1
 490              		.global	HAL_TSC_Start_IT
 491              		.syntax unified
 492              		.code	16
 493              		.thumb_func
 494              		.fpu softvfp
 496              	HAL_TSC_Start_IT:
 497              	.LVL26:
 498              	.LFB45:
 624:Drivers/STM32F0xx_HAL_Driver/Src/stm32f0xx_hal_tsc.c ****   /* Check the parameters */
 499              		.loc 1 624 1 is_stmt 1 view -0
 500              		.cfi_startproc
 501              		@ args = 0, pretend = 0, frame = 0
 502              		@ frame_needed = 0, uses_anonymous_args = 0
 503              		@ link register save eliminated.
 626:Drivers/STM32F0xx_HAL_Driver/Src/stm32f0xx_hal_tsc.c ****   assert_param(IS_TSC_MCE_IT(htsc->Init.MaxCountInterrupt));
 504              		.loc 1 626 3 view .LVU151
 627:Drivers/STM32F0xx_HAL_Driver/Src/stm32f0xx_hal_tsc.c **** 
 505              		.loc 1 627 3 view .LVU152
 630:Drivers/STM32F0xx_HAL_Driver/Src/stm32f0xx_hal_tsc.c **** 
 506              		.loc 1 630 3 view .LVU153
 630:Drivers/STM32F0xx_HAL_Driver/Src/stm32f0xx_hal_tsc.c **** 
 507              		.loc 1 630 3 view .LVU154
 508 0000 3D23     		movs	r3, #61
 509 0002 C35C     		ldrb	r3, [r0, r3]
 510 0004 012B     		cmp	r3, #1
 511 0006 33D0     		beq	.L29
 630:Drivers/STM32F0xx_HAL_Driver/Src/stm32f0xx_hal_tsc.c **** 
 512              		.loc 1 630 3 discriminator 2 view .LVU155
 513 0008 0121     		movs	r1, #1
 514 000a 3D23     		movs	r3, #61
 515 000c C154     		strb	r1, [r0, r3]
 630:Drivers/STM32F0xx_HAL_Driver/Src/stm32f0xx_hal_tsc.c **** 
 516              		.loc 1 630 3 discriminator 2 view .LVU156
 633:Drivers/STM32F0xx_HAL_Driver/Src/stm32f0xx_hal_tsc.c **** 
 517              		.loc 1 633 3 discriminator 2 view .LVU157
 633:Drivers/STM32F0xx_HAL_Driver/Src/stm32f0xx_hal_tsc.c **** 
 518              		.loc 1 633 15 is_stmt 0 discriminator 2 view .LVU158
 519 000e 013B     		subs	r3, r3, #1
 520 0010 0222     		movs	r2, #2
 521 0012 C254     		strb	r2, [r0, r3]
 636:Drivers/STM32F0xx_HAL_Driver/Src/stm32f0xx_hal_tsc.c **** 
 522              		.loc 1 636 3 is_stmt 1 discriminator 2 view .LVU159
 523 0014 0268     		ldr	r2, [r0]
ARM GAS  /tmp/cczP4HC8.s 			page 31


 524 0016 5368     		ldr	r3, [r2, #4]
 525 0018 0B43     		orrs	r3, r1
 526 001a 5360     		str	r3, [r2, #4]
 639:Drivers/STM32F0xx_HAL_Driver/Src/stm32f0xx_hal_tsc.c ****   {
 527              		.loc 1 639 3 discriminator 2 view .LVU160
 639:Drivers/STM32F0xx_HAL_Driver/Src/stm32f0xx_hal_tsc.c ****   {
 528              		.loc 1 639 17 is_stmt 0 discriminator 2 view .LVU161
 529 001c 2C23     		movs	r3, #44
 530 001e C35C     		ldrb	r3, [r0, r3]
 639:Drivers/STM32F0xx_HAL_Driver/Src/stm32f0xx_hal_tsc.c ****   {
 531              		.loc 1 639 6 discriminator 2 view .LVU162
 532 0020 012B     		cmp	r3, #1
 533 0022 19D0     		beq	.L30
 645:Drivers/STM32F0xx_HAL_Driver/Src/stm32f0xx_hal_tsc.c ****   }
 534              		.loc 1 645 5 is_stmt 1 view .LVU163
 535 0024 0268     		ldr	r2, [r0]
 536 0026 5368     		ldr	r3, [r2, #4]
 537 0028 0221     		movs	r1, #2
 538 002a 8B43     		bics	r3, r1
 539 002c 5360     		str	r3, [r2, #4]
 540              	.L26:
 649:Drivers/STM32F0xx_HAL_Driver/Src/stm32f0xx_hal_tsc.c **** 
 541              		.loc 1 649 3 view .LVU164
 542 002e 0368     		ldr	r3, [r0]
 543 0030 0322     		movs	r2, #3
 544 0032 9A60     		str	r2, [r3, #8]
 652:Drivers/STM32F0xx_HAL_Driver/Src/stm32f0xx_hal_tsc.c ****   {
 545              		.loc 1 652 3 view .LVU165
 652:Drivers/STM32F0xx_HAL_Driver/Src/stm32f0xx_hal_tsc.c ****   {
 546              		.loc 1 652 6 is_stmt 0 view .LVU166
 547 0034 036A     		ldr	r3, [r0, #32]
 548 0036 002B     		cmp	r3, #0
 549 0038 14D1     		bne	.L27
 654:Drivers/STM32F0xx_HAL_Driver/Src/stm32f0xx_hal_tsc.c ****   }
 550              		.loc 1 654 5 is_stmt 1 view .LVU167
 551 003a 0268     		ldr	r2, [r0]
 552 003c 1368     		ldr	r3, [r2]
 553 003e 1021     		movs	r1, #16
 554 0040 8B43     		bics	r3, r1
 555 0042 1360     		str	r3, [r2]
 556              	.L28:
 662:Drivers/STM32F0xx_HAL_Driver/Src/stm32f0xx_hal_tsc.c **** 
 557              		.loc 1 662 3 view .LVU168
 558 0044 0268     		ldr	r2, [r0]
 559 0046 1368     		ldr	r3, [r2]
 560 0048 0221     		movs	r1, #2
 561 004a 0B43     		orrs	r3, r1
 562 004c 1360     		str	r3, [r2]
 665:Drivers/STM32F0xx_HAL_Driver/Src/stm32f0xx_hal_tsc.c **** 
 563              		.loc 1 665 3 view .LVU169
 665:Drivers/STM32F0xx_HAL_Driver/Src/stm32f0xx_hal_tsc.c **** 
 564              		.loc 1 665 3 view .LVU170
 565 004e 3D23     		movs	r3, #61
 566 0050 0022     		movs	r2, #0
 567 0052 C254     		strb	r2, [r0, r3]
 665:Drivers/STM32F0xx_HAL_Driver/Src/stm32f0xx_hal_tsc.c **** 
 568              		.loc 1 665 3 view .LVU171
ARM GAS  /tmp/cczP4HC8.s 			page 32


 668:Drivers/STM32F0xx_HAL_Driver/Src/stm32f0xx_hal_tsc.c **** }
 569              		.loc 1 668 3 view .LVU172
 668:Drivers/STM32F0xx_HAL_Driver/Src/stm32f0xx_hal_tsc.c **** }
 570              		.loc 1 668 10 is_stmt 0 view .LVU173
 571 0054 0020     		movs	r0, #0
 572              	.LVL27:
 573              	.L24:
 669:Drivers/STM32F0xx_HAL_Driver/Src/stm32f0xx_hal_tsc.c **** 
 574              		.loc 1 669 1 view .LVU174
 575              		@ sp needed
 576 0056 7047     		bx	lr
 577              	.LVL28:
 578              	.L30:
 641:Drivers/STM32F0xx_HAL_Driver/Src/stm32f0xx_hal_tsc.c ****   }
 579              		.loc 1 641 5 is_stmt 1 view .LVU175
 580 0058 0268     		ldr	r2, [r0]
 581 005a 5368     		ldr	r3, [r2, #4]
 582 005c 0131     		adds	r1, r1, #1
 583 005e 0B43     		orrs	r3, r1
 584 0060 5360     		str	r3, [r2, #4]
 585 0062 E4E7     		b	.L26
 586              	.L27:
 658:Drivers/STM32F0xx_HAL_Driver/Src/stm32f0xx_hal_tsc.c ****   }
 587              		.loc 1 658 5 view .LVU176
 588 0064 0268     		ldr	r2, [r0]
 589 0066 1368     		ldr	r3, [r2]
 590 0068 1021     		movs	r1, #16
 591 006a 0B43     		orrs	r3, r1
 592 006c 1360     		str	r3, [r2]
 593 006e E9E7     		b	.L28
 594              	.L29:
 630:Drivers/STM32F0xx_HAL_Driver/Src/stm32f0xx_hal_tsc.c **** 
 595              		.loc 1 630 3 is_stmt 0 view .LVU177
 596 0070 0220     		movs	r0, #2
 597              	.LVL29:
 630:Drivers/STM32F0xx_HAL_Driver/Src/stm32f0xx_hal_tsc.c **** 
 598              		.loc 1 630 3 view .LVU178
 599 0072 F0E7     		b	.L24
 600              		.cfi_endproc
 601              	.LFE45:
 603              		.section	.text.HAL_TSC_Stop,"ax",%progbits
 604              		.align	1
 605              		.global	HAL_TSC_Stop
 606              		.syntax unified
 607              		.code	16
 608              		.thumb_func
 609              		.fpu softvfp
 611              	HAL_TSC_Stop:
 612              	.LVL30:
 613              	.LFB46:
 678:Drivers/STM32F0xx_HAL_Driver/Src/stm32f0xx_hal_tsc.c ****   /* Check the parameters */
 614              		.loc 1 678 1 is_stmt 1 view -0
 615              		.cfi_startproc
 616              		@ args = 0, pretend = 0, frame = 0
 617              		@ frame_needed = 0, uses_anonymous_args = 0
 678:Drivers/STM32F0xx_HAL_Driver/Src/stm32f0xx_hal_tsc.c ****   /* Check the parameters */
 618              		.loc 1 678 1 is_stmt 0 view .LVU180
ARM GAS  /tmp/cczP4HC8.s 			page 33


 619 0000 30B5     		push	{r4, r5, lr}
 620              	.LCFI3:
 621              		.cfi_def_cfa_offset 12
 622              		.cfi_offset 4, -12
 623              		.cfi_offset 5, -8
 624              		.cfi_offset 14, -4
 680:Drivers/STM32F0xx_HAL_Driver/Src/stm32f0xx_hal_tsc.c **** 
 625              		.loc 1 680 3 is_stmt 1 view .LVU181
 683:Drivers/STM32F0xx_HAL_Driver/Src/stm32f0xx_hal_tsc.c **** 
 626              		.loc 1 683 3 view .LVU182
 683:Drivers/STM32F0xx_HAL_Driver/Src/stm32f0xx_hal_tsc.c **** 
 627              		.loc 1 683 3 view .LVU183
 628 0002 3D23     		movs	r3, #61
 629 0004 C35C     		ldrb	r3, [r0, r3]
 630 0006 012B     		cmp	r3, #1
 631 0008 15D0     		beq	.L33
 683:Drivers/STM32F0xx_HAL_Driver/Src/stm32f0xx_hal_tsc.c **** 
 632              		.loc 1 683 3 discriminator 2 view .LVU184
 633 000a 3D22     		movs	r2, #61
 634 000c 0121     		movs	r1, #1
 635 000e 8154     		strb	r1, [r0, r2]
 683:Drivers/STM32F0xx_HAL_Driver/Src/stm32f0xx_hal_tsc.c **** 
 636              		.loc 1 683 3 discriminator 2 view .LVU185
 686:Drivers/STM32F0xx_HAL_Driver/Src/stm32f0xx_hal_tsc.c **** 
 637              		.loc 1 686 3 discriminator 2 view .LVU186
 638 0010 0468     		ldr	r4, [r0]
 639 0012 2368     		ldr	r3, [r4]
 640 0014 0225     		movs	r5, #2
 641 0016 AB43     		bics	r3, r5
 642 0018 2360     		str	r3, [r4]
 689:Drivers/STM32F0xx_HAL_Driver/Src/stm32f0xx_hal_tsc.c **** 
 643              		.loc 1 689 3 discriminator 2 view .LVU187
 644 001a 0468     		ldr	r4, [r0]
 645 001c 2368     		ldr	r3, [r4]
 646 001e 0E35     		adds	r5, r5, #14
 647 0020 AB43     		bics	r3, r5
 648 0022 2360     		str	r3, [r4]
 692:Drivers/STM32F0xx_HAL_Driver/Src/stm32f0xx_hal_tsc.c **** 
 649              		.loc 1 692 3 discriminator 2 view .LVU188
 650 0024 0368     		ldr	r3, [r0]
 651 0026 0324     		movs	r4, #3
 652 0028 9C60     		str	r4, [r3, #8]
 695:Drivers/STM32F0xx_HAL_Driver/Src/stm32f0xx_hal_tsc.c **** 
 653              		.loc 1 695 3 discriminator 2 view .LVU189
 695:Drivers/STM32F0xx_HAL_Driver/Src/stm32f0xx_hal_tsc.c **** 
 654              		.loc 1 695 15 is_stmt 0 discriminator 2 view .LVU190
 655 002a 3C23     		movs	r3, #60
 656 002c C154     		strb	r1, [r0, r3]
 698:Drivers/STM32F0xx_HAL_Driver/Src/stm32f0xx_hal_tsc.c **** 
 657              		.loc 1 698 3 is_stmt 1 discriminator 2 view .LVU191
 698:Drivers/STM32F0xx_HAL_Driver/Src/stm32f0xx_hal_tsc.c **** 
 658              		.loc 1 698 3 discriminator 2 view .LVU192
 659 002e 0023     		movs	r3, #0
 660 0030 8354     		strb	r3, [r0, r2]
 698:Drivers/STM32F0xx_HAL_Driver/Src/stm32f0xx_hal_tsc.c **** 
 661              		.loc 1 698 3 discriminator 2 view .LVU193
 701:Drivers/STM32F0xx_HAL_Driver/Src/stm32f0xx_hal_tsc.c **** }
ARM GAS  /tmp/cczP4HC8.s 			page 34


 662              		.loc 1 701 3 discriminator 2 view .LVU194
 701:Drivers/STM32F0xx_HAL_Driver/Src/stm32f0xx_hal_tsc.c **** }
 663              		.loc 1 701 10 is_stmt 0 discriminator 2 view .LVU195
 664 0032 0020     		movs	r0, #0
 665              	.LVL31:
 666              	.L32:
 702:Drivers/STM32F0xx_HAL_Driver/Src/stm32f0xx_hal_tsc.c **** 
 667              		.loc 1 702 1 view .LVU196
 668              		@ sp needed
 669 0034 30BD     		pop	{r4, r5, pc}
 670              	.LVL32:
 671              	.L33:
 683:Drivers/STM32F0xx_HAL_Driver/Src/stm32f0xx_hal_tsc.c **** 
 672              		.loc 1 683 3 view .LVU197
 673 0036 0220     		movs	r0, #2
 674              	.LVL33:
 683:Drivers/STM32F0xx_HAL_Driver/Src/stm32f0xx_hal_tsc.c **** 
 675              		.loc 1 683 3 view .LVU198
 676 0038 FCE7     		b	.L32
 677              		.cfi_endproc
 678              	.LFE46:
 680              		.section	.text.HAL_TSC_Stop_IT,"ax",%progbits
 681              		.align	1
 682              		.global	HAL_TSC_Stop_IT
 683              		.syntax unified
 684              		.code	16
 685              		.thumb_func
 686              		.fpu softvfp
 688              	HAL_TSC_Stop_IT:
 689              	.LVL34:
 690              	.LFB47:
 711:Drivers/STM32F0xx_HAL_Driver/Src/stm32f0xx_hal_tsc.c ****   /* Check the parameters */
 691              		.loc 1 711 1 is_stmt 1 view -0
 692              		.cfi_startproc
 693              		@ args = 0, pretend = 0, frame = 0
 694              		@ frame_needed = 0, uses_anonymous_args = 0
 711:Drivers/STM32F0xx_HAL_Driver/Src/stm32f0xx_hal_tsc.c ****   /* Check the parameters */
 695              		.loc 1 711 1 is_stmt 0 view .LVU200
 696 0000 30B5     		push	{r4, r5, lr}
 697              	.LCFI4:
 698              		.cfi_def_cfa_offset 12
 699              		.cfi_offset 4, -12
 700              		.cfi_offset 5, -8
 701              		.cfi_offset 14, -4
 713:Drivers/STM32F0xx_HAL_Driver/Src/stm32f0xx_hal_tsc.c **** 
 702              		.loc 1 713 3 is_stmt 1 view .LVU201
 716:Drivers/STM32F0xx_HAL_Driver/Src/stm32f0xx_hal_tsc.c **** 
 703              		.loc 1 716 3 view .LVU202
 716:Drivers/STM32F0xx_HAL_Driver/Src/stm32f0xx_hal_tsc.c **** 
 704              		.loc 1 716 3 view .LVU203
 705 0002 3D23     		movs	r3, #61
 706 0004 C35C     		ldrb	r3, [r0, r3]
 707 0006 012B     		cmp	r3, #1
 708 0008 19D0     		beq	.L36
 716:Drivers/STM32F0xx_HAL_Driver/Src/stm32f0xx_hal_tsc.c **** 
 709              		.loc 1 716 3 discriminator 2 view .LVU204
 710 000a 3D22     		movs	r2, #61
ARM GAS  /tmp/cczP4HC8.s 			page 35


 711 000c 0121     		movs	r1, #1
 712 000e 8154     		strb	r1, [r0, r2]
 716:Drivers/STM32F0xx_HAL_Driver/Src/stm32f0xx_hal_tsc.c **** 
 713              		.loc 1 716 3 discriminator 2 view .LVU205
 719:Drivers/STM32F0xx_HAL_Driver/Src/stm32f0xx_hal_tsc.c **** 
 714              		.loc 1 719 3 discriminator 2 view .LVU206
 715 0010 0468     		ldr	r4, [r0]
 716 0012 2368     		ldr	r3, [r4]
 717 0014 0225     		movs	r5, #2
 718 0016 AB43     		bics	r3, r5
 719 0018 2360     		str	r3, [r4]
 722:Drivers/STM32F0xx_HAL_Driver/Src/stm32f0xx_hal_tsc.c **** 
 720              		.loc 1 722 3 discriminator 2 view .LVU207
 721 001a 0468     		ldr	r4, [r0]
 722 001c 2368     		ldr	r3, [r4]
 723 001e 0E35     		adds	r5, r5, #14
 724 0020 AB43     		bics	r3, r5
 725 0022 2360     		str	r3, [r4]
 725:Drivers/STM32F0xx_HAL_Driver/Src/stm32f0xx_hal_tsc.c **** 
 726              		.loc 1 725 3 discriminator 2 view .LVU208
 727 0024 0568     		ldr	r5, [r0]
 728 0026 6B68     		ldr	r3, [r5, #4]
 729 0028 0324     		movs	r4, #3
 730 002a A343     		bics	r3, r4
 731 002c 6B60     		str	r3, [r5, #4]
 728:Drivers/STM32F0xx_HAL_Driver/Src/stm32f0xx_hal_tsc.c **** 
 732              		.loc 1 728 3 discriminator 2 view .LVU209
 733 002e 0368     		ldr	r3, [r0]
 734 0030 9C60     		str	r4, [r3, #8]
 731:Drivers/STM32F0xx_HAL_Driver/Src/stm32f0xx_hal_tsc.c **** 
 735              		.loc 1 731 3 discriminator 2 view .LVU210
 731:Drivers/STM32F0xx_HAL_Driver/Src/stm32f0xx_hal_tsc.c **** 
 736              		.loc 1 731 15 is_stmt 0 discriminator 2 view .LVU211
 737 0032 3C23     		movs	r3, #60
 738 0034 C154     		strb	r1, [r0, r3]
 734:Drivers/STM32F0xx_HAL_Driver/Src/stm32f0xx_hal_tsc.c **** 
 739              		.loc 1 734 3 is_stmt 1 discriminator 2 view .LVU212
 734:Drivers/STM32F0xx_HAL_Driver/Src/stm32f0xx_hal_tsc.c **** 
 740              		.loc 1 734 3 discriminator 2 view .LVU213
 741 0036 0023     		movs	r3, #0
 742 0038 8354     		strb	r3, [r0, r2]
 734:Drivers/STM32F0xx_HAL_Driver/Src/stm32f0xx_hal_tsc.c **** 
 743              		.loc 1 734 3 discriminator 2 view .LVU214
 737:Drivers/STM32F0xx_HAL_Driver/Src/stm32f0xx_hal_tsc.c **** }
 744              		.loc 1 737 3 discriminator 2 view .LVU215
 737:Drivers/STM32F0xx_HAL_Driver/Src/stm32f0xx_hal_tsc.c **** }
 745              		.loc 1 737 10 is_stmt 0 discriminator 2 view .LVU216
 746 003a 0020     		movs	r0, #0
 747              	.LVL35:
 748              	.L35:
 738:Drivers/STM32F0xx_HAL_Driver/Src/stm32f0xx_hal_tsc.c **** 
 749              		.loc 1 738 1 view .LVU217
 750              		@ sp needed
 751 003c 30BD     		pop	{r4, r5, pc}
 752              	.LVL36:
 753              	.L36:
 716:Drivers/STM32F0xx_HAL_Driver/Src/stm32f0xx_hal_tsc.c **** 
ARM GAS  /tmp/cczP4HC8.s 			page 36


 754              		.loc 1 716 3 view .LVU218
 755 003e 0220     		movs	r0, #2
 756              	.LVL37:
 716:Drivers/STM32F0xx_HAL_Driver/Src/stm32f0xx_hal_tsc.c **** 
 757              		.loc 1 716 3 view .LVU219
 758 0040 FCE7     		b	.L35
 759              		.cfi_endproc
 760              	.LFE47:
 762              		.section	.text.HAL_TSC_GroupGetStatus,"ax",%progbits
 763              		.align	1
 764              		.global	HAL_TSC_GroupGetStatus
 765              		.syntax unified
 766              		.code	16
 767              		.thumb_func
 768              		.fpu softvfp
 770              	HAL_TSC_GroupGetStatus:
 771              	.LVL38:
 772              	.LFB49:
 776:Drivers/STM32F0xx_HAL_Driver/Src/stm32f0xx_hal_tsc.c ****   /* Check the parameters */
 773              		.loc 1 776 1 is_stmt 1 view -0
 774              		.cfi_startproc
 775              		@ args = 0, pretend = 0, frame = 0
 776              		@ frame_needed = 0, uses_anonymous_args = 0
 777              		@ link register save eliminated.
 778:Drivers/STM32F0xx_HAL_Driver/Src/stm32f0xx_hal_tsc.c ****   assert_param(IS_TSC_GROUP_INDEX(gx_index));
 778              		.loc 1 778 3 view .LVU221
 779:Drivers/STM32F0xx_HAL_Driver/Src/stm32f0xx_hal_tsc.c **** 
 779              		.loc 1 779 3 view .LVU222
 782:Drivers/STM32F0xx_HAL_Driver/Src/stm32f0xx_hal_tsc.c **** }
 780              		.loc 1 782 3 view .LVU223
 782:Drivers/STM32F0xx_HAL_Driver/Src/stm32f0xx_hal_tsc.c **** }
 781              		.loc 1 782 11 is_stmt 0 view .LVU224
 782 0000 0368     		ldr	r3, [r0]
 783 0002 1A6B     		ldr	r2, [r3, #48]
 784 0004 0F23     		movs	r3, #15
 785 0006 0B40     		ands	r3, r1
 786 0008 1033     		adds	r3, r3, #16
 787 000a 0120     		movs	r0, #1
 788              	.LVL39:
 782:Drivers/STM32F0xx_HAL_Driver/Src/stm32f0xx_hal_tsc.c **** }
 789              		.loc 1 782 11 view .LVU225
 790 000c 9840     		lsls	r0, r0, r3
 791 000e 9043     		bics	r0, r2
 792 0010 4342     		rsbs	r3, r0, #0
 793 0012 5841     		adcs	r0, r0, r3
 794 0014 C0B2     		uxtb	r0, r0
 783:Drivers/STM32F0xx_HAL_Driver/Src/stm32f0xx_hal_tsc.c **** 
 795              		.loc 1 783 1 view .LVU226
 796              		@ sp needed
 797 0016 7047     		bx	lr
 798              		.cfi_endproc
 799              	.LFE49:
 801              		.section	.text.HAL_TSC_GroupGetValue,"ax",%progbits
 802              		.align	1
 803              		.global	HAL_TSC_GroupGetValue
 804              		.syntax unified
 805              		.code	16
ARM GAS  /tmp/cczP4HC8.s 			page 37


 806              		.thumb_func
 807              		.fpu softvfp
 809              	HAL_TSC_GroupGetValue:
 810              	.LVL40:
 811              	.LFB50:
 793:Drivers/STM32F0xx_HAL_Driver/Src/stm32f0xx_hal_tsc.c ****   /* Check the parameters */
 812              		.loc 1 793 1 is_stmt 1 view -0
 813              		.cfi_startproc
 814              		@ args = 0, pretend = 0, frame = 0
 815              		@ frame_needed = 0, uses_anonymous_args = 0
 816              		@ link register save eliminated.
 795:Drivers/STM32F0xx_HAL_Driver/Src/stm32f0xx_hal_tsc.c ****   assert_param(IS_TSC_GROUP_INDEX(gx_index));
 817              		.loc 1 795 3 view .LVU228
 796:Drivers/STM32F0xx_HAL_Driver/Src/stm32f0xx_hal_tsc.c **** 
 818              		.loc 1 796 3 view .LVU229
 799:Drivers/STM32F0xx_HAL_Driver/Src/stm32f0xx_hal_tsc.c **** }
 819              		.loc 1 799 3 view .LVU230
 799:Drivers/STM32F0xx_HAL_Driver/Src/stm32f0xx_hal_tsc.c **** }
 820              		.loc 1 799 14 is_stmt 0 view .LVU231
 821 0000 0368     		ldr	r3, [r0]
 799:Drivers/STM32F0xx_HAL_Driver/Src/stm32f0xx_hal_tsc.c **** }
 822              		.loc 1 799 32 view .LVU232
 823 0002 0C31     		adds	r1, r1, #12
 824              	.LVL41:
 799:Drivers/STM32F0xx_HAL_Driver/Src/stm32f0xx_hal_tsc.c **** }
 825              		.loc 1 799 32 view .LVU233
 826 0004 8900     		lsls	r1, r1, #2
 827              	.LVL42:
 799:Drivers/STM32F0xx_HAL_Driver/Src/stm32f0xx_hal_tsc.c **** }
 828              		.loc 1 799 32 view .LVU234
 829 0006 5918     		adds	r1, r3, r1
 830 0008 4868     		ldr	r0, [r1, #4]
 831              	.LVL43:
 800:Drivers/STM32F0xx_HAL_Driver/Src/stm32f0xx_hal_tsc.c **** 
 832              		.loc 1 800 1 view .LVU235
 833              		@ sp needed
 834 000a 7047     		bx	lr
 835              		.cfi_endproc
 836              	.LFE50:
 838              		.section	.text.HAL_TSC_IOConfig,"ax",%progbits
 839              		.align	1
 840              		.global	HAL_TSC_IOConfig
 841              		.syntax unified
 842              		.code	16
 843              		.thumb_func
 844              		.fpu softvfp
 846              	HAL_TSC_IOConfig:
 847              	.LVL44:
 848              	.LFB51:
 828:Drivers/STM32F0xx_HAL_Driver/Src/stm32f0xx_hal_tsc.c ****   /* Check the parameters */
 849              		.loc 1 828 1 is_stmt 1 view -0
 850              		.cfi_startproc
 851              		@ args = 0, pretend = 0, frame = 0
 852              		@ frame_needed = 0, uses_anonymous_args = 0
 828:Drivers/STM32F0xx_HAL_Driver/Src/stm32f0xx_hal_tsc.c ****   /* Check the parameters */
 853              		.loc 1 828 1 is_stmt 0 view .LVU237
 854 0000 70B5     		push	{r4, r5, r6, lr}
ARM GAS  /tmp/cczP4HC8.s 			page 38


 855              	.LCFI5:
 856              		.cfi_def_cfa_offset 16
 857              		.cfi_offset 4, -16
 858              		.cfi_offset 5, -12
 859              		.cfi_offset 6, -8
 860              		.cfi_offset 14, -4
 861 0002 0400     		movs	r4, r0
 830:Drivers/STM32F0xx_HAL_Driver/Src/stm32f0xx_hal_tsc.c ****   assert_param(IS_TSC_GROUP(config->ChannelIOs));
 862              		.loc 1 830 3 is_stmt 1 view .LVU238
 831:Drivers/STM32F0xx_HAL_Driver/Src/stm32f0xx_hal_tsc.c ****   assert_param(IS_TSC_GROUP(config->ShieldIOs));
 863              		.loc 1 831 3 view .LVU239
 832:Drivers/STM32F0xx_HAL_Driver/Src/stm32f0xx_hal_tsc.c ****   assert_param(IS_TSC_GROUP(config->SamplingIOs));
 864              		.loc 1 832 3 view .LVU240
 833:Drivers/STM32F0xx_HAL_Driver/Src/stm32f0xx_hal_tsc.c **** 
 865              		.loc 1 833 3 view .LVU241
 836:Drivers/STM32F0xx_HAL_Driver/Src/stm32f0xx_hal_tsc.c **** 
 866              		.loc 1 836 3 view .LVU242
 836:Drivers/STM32F0xx_HAL_Driver/Src/stm32f0xx_hal_tsc.c **** 
 867              		.loc 1 836 3 view .LVU243
 868 0004 3D23     		movs	r3, #61
 869 0006 C35C     		ldrb	r3, [r0, r3]
 870 0008 012B     		cmp	r3, #1
 871 000a 20D0     		beq	.L41
 836:Drivers/STM32F0xx_HAL_Driver/Src/stm32f0xx_hal_tsc.c **** 
 872              		.loc 1 836 3 discriminator 2 view .LVU244
 873 000c 3D25     		movs	r5, #61
 874 000e 0123     		movs	r3, #1
 875 0010 4355     		strb	r3, [r0, r5]
 836:Drivers/STM32F0xx_HAL_Driver/Src/stm32f0xx_hal_tsc.c **** 
 876              		.loc 1 836 3 discriminator 2 view .LVU245
 839:Drivers/STM32F0xx_HAL_Driver/Src/stm32f0xx_hal_tsc.c **** 
 877              		.loc 1 839 3 discriminator 2 view .LVU246
 878 0012 0268     		ldr	r2, [r0]
 879 0014 1368     		ldr	r3, [r2]
 880 0016 0220     		movs	r0, #2
 881              	.LVL45:
 839:Drivers/STM32F0xx_HAL_Driver/Src/stm32f0xx_hal_tsc.c **** 
 882              		.loc 1 839 3 is_stmt 0 discriminator 2 view .LVU247
 883 0018 8343     		bics	r3, r0
 884 001a 1360     		str	r3, [r2]
 842:Drivers/STM32F0xx_HAL_Driver/Src/stm32f0xx_hal_tsc.c **** 
 885              		.loc 1 842 3 is_stmt 1 discriminator 2 view .LVU248
 842:Drivers/STM32F0xx_HAL_Driver/Src/stm32f0xx_hal_tsc.c **** 
 886              		.loc 1 842 49 is_stmt 0 discriminator 2 view .LVU249
 887 001c 0B68     		ldr	r3, [r1]
 888 001e 4A68     		ldr	r2, [r1, #4]
 889 0020 1343     		orrs	r3, r2
 842:Drivers/STM32F0xx_HAL_Driver/Src/stm32f0xx_hal_tsc.c **** 
 890              		.loc 1 842 69 discriminator 2 view .LVU250
 891 0022 8A68     		ldr	r2, [r1, #8]
 892 0024 1343     		orrs	r3, r2
 842:Drivers/STM32F0xx_HAL_Driver/Src/stm32f0xx_hal_tsc.c **** 
 893              		.loc 1 842 7 discriminator 2 view .LVU251
 894 0026 2268     		ldr	r2, [r4]
 842:Drivers/STM32F0xx_HAL_Driver/Src/stm32f0xx_hal_tsc.c **** 
 895              		.loc 1 842 28 discriminator 2 view .LVU252
 896 0028 DB43     		mvns	r3, r3
ARM GAS  /tmp/cczP4HC8.s 			page 39


 842:Drivers/STM32F0xx_HAL_Driver/Src/stm32f0xx_hal_tsc.c **** 
 897              		.loc 1 842 25 discriminator 2 view .LVU253
 898 002a 1361     		str	r3, [r2, #16]
 845:Drivers/STM32F0xx_HAL_Driver/Src/stm32f0xx_hal_tsc.c **** 
 899              		.loc 1 845 3 is_stmt 1 discriminator 2 view .LVU254
 845:Drivers/STM32F0xx_HAL_Driver/Src/stm32f0xx_hal_tsc.c **** 
 900              		.loc 1 845 7 is_stmt 0 discriminator 2 view .LVU255
 901 002c 2268     		ldr	r2, [r4]
 845:Drivers/STM32F0xx_HAL_Driver/Src/stm32f0xx_hal_tsc.c **** 
 902              		.loc 1 845 47 discriminator 2 view .LVU256
 903 002e 0B68     		ldr	r3, [r1]
 904 0030 4868     		ldr	r0, [r1, #4]
 905 0032 0343     		orrs	r3, r0
 845:Drivers/STM32F0xx_HAL_Driver/Src/stm32f0xx_hal_tsc.c **** 
 906              		.loc 1 845 25 discriminator 2 view .LVU257
 907 0034 9362     		str	r3, [r2, #40]
 848:Drivers/STM32F0xx_HAL_Driver/Src/stm32f0xx_hal_tsc.c **** 
 908              		.loc 1 848 3 is_stmt 1 discriminator 2 view .LVU258
 848:Drivers/STM32F0xx_HAL_Driver/Src/stm32f0xx_hal_tsc.c **** 
 909              		.loc 1 848 7 is_stmt 0 discriminator 2 view .LVU259
 910 0036 2368     		ldr	r3, [r4]
 848:Drivers/STM32F0xx_HAL_Driver/Src/stm32f0xx_hal_tsc.c **** 
 911              		.loc 1 848 25 discriminator 2 view .LVU260
 912 0038 8A68     		ldr	r2, [r1, #8]
 913 003a 1A62     		str	r2, [r3, #32]
 851:Drivers/STM32F0xx_HAL_Driver/Src/stm32f0xx_hal_tsc.c **** 
 914              		.loc 1 851 3 is_stmt 1 discriminator 2 view .LVU261
 851:Drivers/STM32F0xx_HAL_Driver/Src/stm32f0xx_hal_tsc.c **** 
 915              		.loc 1 851 7 is_stmt 0 discriminator 2 view .LVU262
 916 003c 2668     		ldr	r6, [r4]
 851:Drivers/STM32F0xx_HAL_Driver/Src/stm32f0xx_hal_tsc.c **** 
 917              		.loc 1 851 28 discriminator 2 view .LVU263
 918 003e 0868     		ldr	r0, [r1]
 919 0040 FFF7FEFF 		bl	TSC_extract_groups
 920              	.LVL46:
 851:Drivers/STM32F0xx_HAL_Driver/Src/stm32f0xx_hal_tsc.c **** 
 921              		.loc 1 851 26 discriminator 2 view .LVU264
 922 0044 3063     		str	r0, [r6, #48]
 854:Drivers/STM32F0xx_HAL_Driver/Src/stm32f0xx_hal_tsc.c **** 
 923              		.loc 1 854 3 is_stmt 1 discriminator 2 view .LVU265
 854:Drivers/STM32F0xx_HAL_Driver/Src/stm32f0xx_hal_tsc.c **** 
 924              		.loc 1 854 3 discriminator 2 view .LVU266
 925 0046 0023     		movs	r3, #0
 926 0048 6355     		strb	r3, [r4, r5]
 854:Drivers/STM32F0xx_HAL_Driver/Src/stm32f0xx_hal_tsc.c **** 
 927              		.loc 1 854 3 discriminator 2 view .LVU267
 857:Drivers/STM32F0xx_HAL_Driver/Src/stm32f0xx_hal_tsc.c **** }
 928              		.loc 1 857 3 discriminator 2 view .LVU268
 857:Drivers/STM32F0xx_HAL_Driver/Src/stm32f0xx_hal_tsc.c **** }
 929              		.loc 1 857 10 is_stmt 0 discriminator 2 view .LVU269
 930 004a 0020     		movs	r0, #0
 931              	.L40:
 858:Drivers/STM32F0xx_HAL_Driver/Src/stm32f0xx_hal_tsc.c **** 
 932              		.loc 1 858 1 view .LVU270
 933              		@ sp needed
 934              	.LVL47:
 858:Drivers/STM32F0xx_HAL_Driver/Src/stm32f0xx_hal_tsc.c **** 
ARM GAS  /tmp/cczP4HC8.s 			page 40


 935              		.loc 1 858 1 view .LVU271
 936 004c 70BD     		pop	{r4, r5, r6, pc}
 937              	.LVL48:
 938              	.L41:
 836:Drivers/STM32F0xx_HAL_Driver/Src/stm32f0xx_hal_tsc.c **** 
 939              		.loc 1 836 3 view .LVU272
 940 004e 0220     		movs	r0, #2
 941              	.LVL49:
 836:Drivers/STM32F0xx_HAL_Driver/Src/stm32f0xx_hal_tsc.c **** 
 942              		.loc 1 836 3 view .LVU273
 943 0050 FCE7     		b	.L40
 944              		.cfi_endproc
 945              	.LFE51:
 947              		.section	.text.HAL_TSC_IODischarge,"ax",%progbits
 948              		.align	1
 949              		.global	HAL_TSC_IODischarge
 950              		.syntax unified
 951              		.code	16
 952              		.thumb_func
 953              		.fpu softvfp
 955              	HAL_TSC_IODischarge:
 956              	.LVL50:
 957              	.LFB52:
 868:Drivers/STM32F0xx_HAL_Driver/Src/stm32f0xx_hal_tsc.c ****   /* Check the parameters */
 958              		.loc 1 868 1 is_stmt 1 view -0
 959              		.cfi_startproc
 960              		@ args = 0, pretend = 0, frame = 0
 961              		@ frame_needed = 0, uses_anonymous_args = 0
 962              		@ link register save eliminated.
 870:Drivers/STM32F0xx_HAL_Driver/Src/stm32f0xx_hal_tsc.c **** 
 963              		.loc 1 870 3 view .LVU275
 873:Drivers/STM32F0xx_HAL_Driver/Src/stm32f0xx_hal_tsc.c **** 
 964              		.loc 1 873 3 view .LVU276
 873:Drivers/STM32F0xx_HAL_Driver/Src/stm32f0xx_hal_tsc.c **** 
 965              		.loc 1 873 3 view .LVU277
 966 0000 3D23     		movs	r3, #61
 967 0002 C35C     		ldrb	r3, [r0, r3]
 968 0004 012B     		cmp	r3, #1
 969 0006 14D0     		beq	.L46
 873:Drivers/STM32F0xx_HAL_Driver/Src/stm32f0xx_hal_tsc.c **** 
 970              		.loc 1 873 3 discriminator 2 view .LVU278
 971 0008 3D23     		movs	r3, #61
 972 000a 0122     		movs	r2, #1
 973 000c C254     		strb	r2, [r0, r3]
 873:Drivers/STM32F0xx_HAL_Driver/Src/stm32f0xx_hal_tsc.c **** 
 974              		.loc 1 873 3 discriminator 2 view .LVU279
 875:Drivers/STM32F0xx_HAL_Driver/Src/stm32f0xx_hal_tsc.c ****   {
 975              		.loc 1 875 3 discriminator 2 view .LVU280
 875:Drivers/STM32F0xx_HAL_Driver/Src/stm32f0xx_hal_tsc.c ****   {
 976              		.loc 1 875 6 is_stmt 0 discriminator 2 view .LVU281
 977 000e 0129     		cmp	r1, #1
 978 0010 09D0     		beq	.L47
 881:Drivers/STM32F0xx_HAL_Driver/Src/stm32f0xx_hal_tsc.c ****   }
 979              		.loc 1 881 5 is_stmt 1 view .LVU282
 980 0012 0268     		ldr	r2, [r0]
 981 0014 1368     		ldr	r3, [r2]
 982 0016 1021     		movs	r1, #16
ARM GAS  /tmp/cczP4HC8.s 			page 41


 983              	.LVL51:
 881:Drivers/STM32F0xx_HAL_Driver/Src/stm32f0xx_hal_tsc.c ****   }
 984              		.loc 1 881 5 is_stmt 0 view .LVU283
 985 0018 0B43     		orrs	r3, r1
 986 001a 1360     		str	r3, [r2]
 987              	.L45:
 885:Drivers/STM32F0xx_HAL_Driver/Src/stm32f0xx_hal_tsc.c **** 
 988              		.loc 1 885 3 is_stmt 1 view .LVU284
 885:Drivers/STM32F0xx_HAL_Driver/Src/stm32f0xx_hal_tsc.c **** 
 989              		.loc 1 885 3 view .LVU285
 990 001c 3D23     		movs	r3, #61
 991 001e 0022     		movs	r2, #0
 992 0020 C254     		strb	r2, [r0, r3]
 885:Drivers/STM32F0xx_HAL_Driver/Src/stm32f0xx_hal_tsc.c **** 
 993              		.loc 1 885 3 view .LVU286
 888:Drivers/STM32F0xx_HAL_Driver/Src/stm32f0xx_hal_tsc.c **** }
 994              		.loc 1 888 3 view .LVU287
 888:Drivers/STM32F0xx_HAL_Driver/Src/stm32f0xx_hal_tsc.c **** }
 995              		.loc 1 888 10 is_stmt 0 view .LVU288
 996 0022 0020     		movs	r0, #0
 997              	.LVL52:
 998              	.L43:
 889:Drivers/STM32F0xx_HAL_Driver/Src/stm32f0xx_hal_tsc.c **** 
 999              		.loc 1 889 1 view .LVU289
 1000              		@ sp needed
 1001 0024 7047     		bx	lr
 1002              	.LVL53:
 1003              	.L47:
 877:Drivers/STM32F0xx_HAL_Driver/Src/stm32f0xx_hal_tsc.c ****   }
 1004              		.loc 1 877 5 is_stmt 1 view .LVU290
 1005 0026 0268     		ldr	r2, [r0]
 1006 0028 1368     		ldr	r3, [r2]
 1007 002a 0F31     		adds	r1, r1, #15
 1008              	.LVL54:
 877:Drivers/STM32F0xx_HAL_Driver/Src/stm32f0xx_hal_tsc.c ****   }
 1009              		.loc 1 877 5 is_stmt 0 view .LVU291
 1010 002c 8B43     		bics	r3, r1
 1011 002e 1360     		str	r3, [r2]
 1012 0030 F4E7     		b	.L45
 1013              	.LVL55:
 1014              	.L46:
 873:Drivers/STM32F0xx_HAL_Driver/Src/stm32f0xx_hal_tsc.c **** 
 1015              		.loc 1 873 3 view .LVU292
 1016 0032 0220     		movs	r0, #2
 1017              	.LVL56:
 873:Drivers/STM32F0xx_HAL_Driver/Src/stm32f0xx_hal_tsc.c **** 
 1018              		.loc 1 873 3 view .LVU293
 1019 0034 F6E7     		b	.L43
 1020              		.cfi_endproc
 1021              	.LFE52:
 1023              		.section	.text.HAL_TSC_GetState,"ax",%progbits
 1024              		.align	1
 1025              		.global	HAL_TSC_GetState
 1026              		.syntax unified
 1027              		.code	16
 1028              		.thumb_func
 1029              		.fpu softvfp
ARM GAS  /tmp/cczP4HC8.s 			page 42


 1031              	HAL_TSC_GetState:
 1032              	.LVL57:
 1033              	.LFB53:
 917:Drivers/STM32F0xx_HAL_Driver/Src/stm32f0xx_hal_tsc.c ****   /* Check the parameters */
 1034              		.loc 1 917 1 is_stmt 1 view -0
 1035              		.cfi_startproc
 1036              		@ args = 0, pretend = 0, frame = 0
 1037              		@ frame_needed = 0, uses_anonymous_args = 0
 1038              		@ link register save eliminated.
 919:Drivers/STM32F0xx_HAL_Driver/Src/stm32f0xx_hal_tsc.c **** 
 1039              		.loc 1 919 3 view .LVU295
 921:Drivers/STM32F0xx_HAL_Driver/Src/stm32f0xx_hal_tsc.c ****   {
 1040              		.loc 1 921 3 view .LVU296
 921:Drivers/STM32F0xx_HAL_Driver/Src/stm32f0xx_hal_tsc.c ****   {
 1041              		.loc 1 921 11 is_stmt 0 view .LVU297
 1042 0000 3C23     		movs	r3, #60
 1043 0002 C35C     		ldrb	r3, [r0, r3]
 921:Drivers/STM32F0xx_HAL_Driver/Src/stm32f0xx_hal_tsc.c ****   {
 1044              		.loc 1 921 6 view .LVU298
 1045 0004 022B     		cmp	r3, #2
 1046 0006 03D0     		beq	.L51
 1047              	.L49:
 941:Drivers/STM32F0xx_HAL_Driver/Src/stm32f0xx_hal_tsc.c **** }
 1048              		.loc 1 941 3 is_stmt 1 view .LVU299
 941:Drivers/STM32F0xx_HAL_Driver/Src/stm32f0xx_hal_tsc.c **** }
 1049              		.loc 1 941 14 is_stmt 0 view .LVU300
 1050 0008 3C23     		movs	r3, #60
 1051 000a C05C     		ldrb	r0, [r0, r3]
 1052              	.LVL58:
 941:Drivers/STM32F0xx_HAL_Driver/Src/stm32f0xx_hal_tsc.c **** }
 1053              		.loc 1 941 14 view .LVU301
 1054 000c C0B2     		uxtb	r0, r0
 942:Drivers/STM32F0xx_HAL_Driver/Src/stm32f0xx_hal_tsc.c **** 
 1055              		.loc 1 942 1 view .LVU302
 1056              		@ sp needed
 1057 000e 7047     		bx	lr
 1058              	.LVL59:
 1059              	.L51:
 924:Drivers/STM32F0xx_HAL_Driver/Src/stm32f0xx_hal_tsc.c ****     {
 1060              		.loc 1 924 5 is_stmt 1 view .LVU303
 924:Drivers/STM32F0xx_HAL_Driver/Src/stm32f0xx_hal_tsc.c ****     {
 1061              		.loc 1 924 9 is_stmt 0 view .LVU304
 1062 0010 0368     		ldr	r3, [r0]
 1063 0012 DA68     		ldr	r2, [r3, #12]
 924:Drivers/STM32F0xx_HAL_Driver/Src/stm32f0xx_hal_tsc.c ****     {
 1064              		.loc 1 924 8 view .LVU305
 1065 0014 D207     		lsls	r2, r2, #31
 1066 0016 F7D5     		bpl	.L49
 927:Drivers/STM32F0xx_HAL_Driver/Src/stm32f0xx_hal_tsc.c ****       {
 1067              		.loc 1 927 7 is_stmt 1 view .LVU306
 927:Drivers/STM32F0xx_HAL_Driver/Src/stm32f0xx_hal_tsc.c ****       {
 1068              		.loc 1 927 11 is_stmt 0 view .LVU307
 1069 0018 DB68     		ldr	r3, [r3, #12]
 927:Drivers/STM32F0xx_HAL_Driver/Src/stm32f0xx_hal_tsc.c ****       {
 1070              		.loc 1 927 10 view .LVU308
 1071 001a 9B07     		lsls	r3, r3, #30
 1072 001c 03D5     		bpl	.L50
ARM GAS  /tmp/cczP4HC8.s 			page 43


 930:Drivers/STM32F0xx_HAL_Driver/Src/stm32f0xx_hal_tsc.c ****       }
 1073              		.loc 1 930 9 is_stmt 1 view .LVU309
 930:Drivers/STM32F0xx_HAL_Driver/Src/stm32f0xx_hal_tsc.c ****       }
 1074              		.loc 1 930 21 is_stmt 0 view .LVU310
 1075 001e 3C23     		movs	r3, #60
 1076 0020 0322     		movs	r2, #3
 1077 0022 C254     		strb	r2, [r0, r3]
 1078 0024 F0E7     		b	.L49
 1079              	.L50:
 935:Drivers/STM32F0xx_HAL_Driver/Src/stm32f0xx_hal_tsc.c ****       }
 1080              		.loc 1 935 9 is_stmt 1 view .LVU311
 935:Drivers/STM32F0xx_HAL_Driver/Src/stm32f0xx_hal_tsc.c ****       }
 1081              		.loc 1 935 21 is_stmt 0 view .LVU312
 1082 0026 3C23     		movs	r3, #60
 1083 0028 0122     		movs	r2, #1
 1084 002a C254     		strb	r2, [r0, r3]
 1085 002c ECE7     		b	.L49
 1086              		.cfi_endproc
 1087              	.LFE53:
 1089              		.section	.text.HAL_TSC_PollForAcquisition,"ax",%progbits
 1090              		.align	1
 1091              		.global	HAL_TSC_PollForAcquisition
 1092              		.syntax unified
 1093              		.code	16
 1094              		.thumb_func
 1095              		.fpu softvfp
 1097              	HAL_TSC_PollForAcquisition:
 1098              	.LVL60:
 1099              	.LFB48:
 749:Drivers/STM32F0xx_HAL_Driver/Src/stm32f0xx_hal_tsc.c ****   /* Check the parameters */
 1100              		.loc 1 749 1 is_stmt 1 view -0
 1101              		.cfi_startproc
 1102              		@ args = 0, pretend = 0, frame = 0
 1103              		@ frame_needed = 0, uses_anonymous_args = 0
 749:Drivers/STM32F0xx_HAL_Driver/Src/stm32f0xx_hal_tsc.c ****   /* Check the parameters */
 1104              		.loc 1 749 1 is_stmt 0 view .LVU314
 1105 0000 10B5     		push	{r4, lr}
 1106              	.LCFI6:
 1107              		.cfi_def_cfa_offset 8
 1108              		.cfi_offset 4, -8
 1109              		.cfi_offset 14, -4
 1110 0002 0400     		movs	r4, r0
 751:Drivers/STM32F0xx_HAL_Driver/Src/stm32f0xx_hal_tsc.c **** 
 1111              		.loc 1 751 3 is_stmt 1 view .LVU315
 754:Drivers/STM32F0xx_HAL_Driver/Src/stm32f0xx_hal_tsc.c **** 
 1112              		.loc 1 754 3 view .LVU316
 754:Drivers/STM32F0xx_HAL_Driver/Src/stm32f0xx_hal_tsc.c **** 
 1113              		.loc 1 754 3 view .LVU317
 1114 0004 3D23     		movs	r3, #61
 1115 0006 C35C     		ldrb	r3, [r0, r3]
 1116 0008 012B     		cmp	r3, #1
 1117 000a 0CD0     		beq	.L55
 754:Drivers/STM32F0xx_HAL_Driver/Src/stm32f0xx_hal_tsc.c **** 
 1118              		.loc 1 754 3 discriminator 2 view .LVU318
 1119 000c 3D23     		movs	r3, #61
 1120 000e 0122     		movs	r2, #1
 1121 0010 C254     		strb	r2, [r0, r3]
ARM GAS  /tmp/cczP4HC8.s 			page 44


 754:Drivers/STM32F0xx_HAL_Driver/Src/stm32f0xx_hal_tsc.c **** 
 1122              		.loc 1 754 3 discriminator 2 view .LVU319
 757:Drivers/STM32F0xx_HAL_Driver/Src/stm32f0xx_hal_tsc.c ****   {
 1123              		.loc 1 757 3 discriminator 2 view .LVU320
 1124              	.LVL61:
 1125              	.L54:
 760:Drivers/STM32F0xx_HAL_Driver/Src/stm32f0xx_hal_tsc.c **** 
 1126              		.loc 1 760 3 discriminator 1 view .LVU321
 757:Drivers/STM32F0xx_HAL_Driver/Src/stm32f0xx_hal_tsc.c ****   {
 1127              		.loc 1 757 9 discriminator 1 view .LVU322
 757:Drivers/STM32F0xx_HAL_Driver/Src/stm32f0xx_hal_tsc.c ****   {
 1128              		.loc 1 757 10 is_stmt 0 discriminator 1 view .LVU323
 1129 0012 2000     		movs	r0, r4
 1130 0014 FFF7FEFF 		bl	HAL_TSC_GetState
 1131              	.LVL62:
 757:Drivers/STM32F0xx_HAL_Driver/Src/stm32f0xx_hal_tsc.c ****   {
 1132              		.loc 1 757 9 discriminator 1 view .LVU324
 1133 0018 0228     		cmp	r0, #2
 1134 001a FAD0     		beq	.L54
 763:Drivers/STM32F0xx_HAL_Driver/Src/stm32f0xx_hal_tsc.c **** 
 1135              		.loc 1 763 3 is_stmt 1 view .LVU325
 763:Drivers/STM32F0xx_HAL_Driver/Src/stm32f0xx_hal_tsc.c **** 
 1136              		.loc 1 763 3 view .LVU326
 1137 001c 3D23     		movs	r3, #61
 1138 001e 0022     		movs	r2, #0
 1139 0020 E254     		strb	r2, [r4, r3]
 763:Drivers/STM32F0xx_HAL_Driver/Src/stm32f0xx_hal_tsc.c **** 
 1140              		.loc 1 763 3 view .LVU327
 765:Drivers/STM32F0xx_HAL_Driver/Src/stm32f0xx_hal_tsc.c **** }
 1141              		.loc 1 765 3 view .LVU328
 765:Drivers/STM32F0xx_HAL_Driver/Src/stm32f0xx_hal_tsc.c **** }
 1142              		.loc 1 765 10 is_stmt 0 view .LVU329
 1143 0022 0020     		movs	r0, #0
 1144              	.L53:
 766:Drivers/STM32F0xx_HAL_Driver/Src/stm32f0xx_hal_tsc.c **** 
 1145              		.loc 1 766 1 view .LVU330
 1146              		@ sp needed
 1147              	.LVL63:
 766:Drivers/STM32F0xx_HAL_Driver/Src/stm32f0xx_hal_tsc.c **** 
 1148              		.loc 1 766 1 view .LVU331
 1149 0024 10BD     		pop	{r4, pc}
 1150              	.LVL64:
 1151              	.L55:
 754:Drivers/STM32F0xx_HAL_Driver/Src/stm32f0xx_hal_tsc.c **** 
 1152              		.loc 1 754 3 view .LVU332
 1153 0026 0220     		movs	r0, #2
 1154              	.LVL65:
 754:Drivers/STM32F0xx_HAL_Driver/Src/stm32f0xx_hal_tsc.c **** 
 1155              		.loc 1 754 3 view .LVU333
 1156 0028 FCE7     		b	.L53
 1157              		.cfi_endproc
 1158              	.LFE48:
 1160              		.section	.text.HAL_TSC_ConvCpltCallback,"ax",%progbits
 1161              		.align	1
 1162              		.weak	HAL_TSC_ConvCpltCallback
 1163              		.syntax unified
 1164              		.code	16
ARM GAS  /tmp/cczP4HC8.s 			page 45


 1165              		.thumb_func
 1166              		.fpu softvfp
 1168              	HAL_TSC_ConvCpltCallback:
 1169              	.LVL66:
 1170              	.LFB55:
1004:Drivers/STM32F0xx_HAL_Driver/Src/stm32f0xx_hal_tsc.c ****   /* Prevent unused argument(s) compilation warning */
 1171              		.loc 1 1004 1 is_stmt 1 view -0
 1172              		.cfi_startproc
 1173              		@ args = 0, pretend = 0, frame = 0
 1174              		@ frame_needed = 0, uses_anonymous_args = 0
 1175              		@ link register save eliminated.
1006:Drivers/STM32F0xx_HAL_Driver/Src/stm32f0xx_hal_tsc.c **** 
 1176              		.loc 1 1006 3 view .LVU335
1011:Drivers/STM32F0xx_HAL_Driver/Src/stm32f0xx_hal_tsc.c **** 
 1177              		.loc 1 1011 1 is_stmt 0 view .LVU336
 1178              		@ sp needed
 1179 0000 7047     		bx	lr
 1180              		.cfi_endproc
 1181              	.LFE55:
 1183              		.section	.text.HAL_TSC_ErrorCallback,"ax",%progbits
 1184              		.align	1
 1185              		.weak	HAL_TSC_ErrorCallback
 1186              		.syntax unified
 1187              		.code	16
 1188              		.thumb_func
 1189              		.fpu softvfp
 1191              	HAL_TSC_ErrorCallback:
 1192              	.LVL67:
 1193              	.LFB56:
1020:Drivers/STM32F0xx_HAL_Driver/Src/stm32f0xx_hal_tsc.c ****   /* Prevent unused argument(s) compilation warning */
 1194              		.loc 1 1020 1 is_stmt 1 view -0
 1195              		.cfi_startproc
 1196              		@ args = 0, pretend = 0, frame = 0
 1197              		@ frame_needed = 0, uses_anonymous_args = 0
 1198              		@ link register save eliminated.
1022:Drivers/STM32F0xx_HAL_Driver/Src/stm32f0xx_hal_tsc.c **** 
 1199              		.loc 1 1022 3 view .LVU338
1027:Drivers/STM32F0xx_HAL_Driver/Src/stm32f0xx_hal_tsc.c **** 
 1200              		.loc 1 1027 1 is_stmt 0 view .LVU339
 1201              		@ sp needed
 1202 0000 7047     		bx	lr
 1203              		.cfi_endproc
 1204              	.LFE56:
 1206              		.section	.text.HAL_TSC_IRQHandler,"ax",%progbits
 1207              		.align	1
 1208              		.global	HAL_TSC_IRQHandler
 1209              		.syntax unified
 1210              		.code	16
 1211              		.thumb_func
 1212              		.fpu softvfp
 1214              	HAL_TSC_IRQHandler:
 1215              	.LVL68:
 1216              	.LFB54:
 959:Drivers/STM32F0xx_HAL_Driver/Src/stm32f0xx_hal_tsc.c ****   /* Check the parameters */
 1217              		.loc 1 959 1 is_stmt 1 view -0
 1218              		.cfi_startproc
 1219              		@ args = 0, pretend = 0, frame = 0
ARM GAS  /tmp/cczP4HC8.s 			page 46


 1220              		@ frame_needed = 0, uses_anonymous_args = 0
 959:Drivers/STM32F0xx_HAL_Driver/Src/stm32f0xx_hal_tsc.c ****   /* Check the parameters */
 1221              		.loc 1 959 1 is_stmt 0 view .LVU341
 1222 0000 10B5     		push	{r4, lr}
 1223              	.LCFI7:
 1224              		.cfi_def_cfa_offset 8
 1225              		.cfi_offset 4, -8
 1226              		.cfi_offset 14, -4
 961:Drivers/STM32F0xx_HAL_Driver/Src/stm32f0xx_hal_tsc.c **** 
 1227              		.loc 1 961 3 is_stmt 1 view .LVU342
 964:Drivers/STM32F0xx_HAL_Driver/Src/stm32f0xx_hal_tsc.c ****   {
 1228              		.loc 1 964 3 view .LVU343
 964:Drivers/STM32F0xx_HAL_Driver/Src/stm32f0xx_hal_tsc.c ****   {
 1229              		.loc 1 964 7 is_stmt 0 view .LVU344
 1230 0002 0368     		ldr	r3, [r0]
 1231 0004 DA68     		ldr	r2, [r3, #12]
 964:Drivers/STM32F0xx_HAL_Driver/Src/stm32f0xx_hal_tsc.c ****   {
 1232              		.loc 1 964 6 view .LVU345
 1233 0006 D207     		lsls	r2, r2, #31
 1234 0008 01D5     		bpl	.L59
 967:Drivers/STM32F0xx_HAL_Driver/Src/stm32f0xx_hal_tsc.c ****   }
 1235              		.loc 1 967 5 is_stmt 1 view .LVU346
 1236 000a 0122     		movs	r2, #1
 1237 000c 9A60     		str	r2, [r3, #8]
 1238              	.L59:
 971:Drivers/STM32F0xx_HAL_Driver/Src/stm32f0xx_hal_tsc.c ****   {
 1239              		.loc 1 971 3 view .LVU347
 971:Drivers/STM32F0xx_HAL_Driver/Src/stm32f0xx_hal_tsc.c ****   {
 1240              		.loc 1 971 7 is_stmt 0 view .LVU348
 1241 000e 0368     		ldr	r3, [r0]
 1242 0010 DA68     		ldr	r2, [r3, #12]
 971:Drivers/STM32F0xx_HAL_Driver/Src/stm32f0xx_hal_tsc.c ****   {
 1243              		.loc 1 971 6 view .LVU349
 1244 0012 9207     		lsls	r2, r2, #30
 1245 0014 07D5     		bpl	.L60
 974:Drivers/STM32F0xx_HAL_Driver/Src/stm32f0xx_hal_tsc.c ****     /* Change TSC state */
 1246              		.loc 1 974 5 is_stmt 1 view .LVU350
 1247 0016 0222     		movs	r2, #2
 1248 0018 9A60     		str	r2, [r3, #8]
 976:Drivers/STM32F0xx_HAL_Driver/Src/stm32f0xx_hal_tsc.c **** #if (USE_HAL_TSC_REGISTER_CALLBACKS == 1)
 1249              		.loc 1 976 5 view .LVU351
 976:Drivers/STM32F0xx_HAL_Driver/Src/stm32f0xx_hal_tsc.c **** #if (USE_HAL_TSC_REGISTER_CALLBACKS == 1)
 1250              		.loc 1 976 17 is_stmt 0 view .LVU352
 1251 001a 3C23     		movs	r3, #60
 1252 001c 0132     		adds	r2, r2, #1
 1253 001e C254     		strb	r2, [r0, r3]
 981:Drivers/STM32F0xx_HAL_Driver/Src/stm32f0xx_hal_tsc.c **** #endif /* USE_HAL_TSC_REGISTER_CALLBACKS */
 1254              		.loc 1 981 5 is_stmt 1 view .LVU353
 1255 0020 FFF7FEFF 		bl	HAL_TSC_ErrorCallback
 1256              	.LVL69:
 1257              	.L58:
 995:Drivers/STM32F0xx_HAL_Driver/Src/stm32f0xx_hal_tsc.c **** 
 1258              		.loc 1 995 1 is_stmt 0 view .LVU354
 1259              		@ sp needed
 1260 0024 10BD     		pop	{r4, pc}
 1261              	.LVL70:
 1262              	.L60:
ARM GAS  /tmp/cczP4HC8.s 			page 47


 987:Drivers/STM32F0xx_HAL_Driver/Src/stm32f0xx_hal_tsc.c **** #if (USE_HAL_TSC_REGISTER_CALLBACKS == 1)
 1263              		.loc 1 987 5 is_stmt 1 view .LVU355
 987:Drivers/STM32F0xx_HAL_Driver/Src/stm32f0xx_hal_tsc.c **** #if (USE_HAL_TSC_REGISTER_CALLBACKS == 1)
 1264              		.loc 1 987 17 is_stmt 0 view .LVU356
 1265 0026 3C23     		movs	r3, #60
 1266 0028 0122     		movs	r2, #1
 1267 002a C254     		strb	r2, [r0, r3]
 992:Drivers/STM32F0xx_HAL_Driver/Src/stm32f0xx_hal_tsc.c **** #endif /* USE_HAL_TSC_REGISTER_CALLBACKS */
 1268              		.loc 1 992 5 is_stmt 1 view .LVU357
 1269 002c FFF7FEFF 		bl	HAL_TSC_ConvCpltCallback
 1270              	.LVL71:
 995:Drivers/STM32F0xx_HAL_Driver/Src/stm32f0xx_hal_tsc.c **** 
 1271              		.loc 1 995 1 is_stmt 0 view .LVU358
 1272 0030 F8E7     		b	.L58
 1273              		.cfi_endproc
 1274              	.LFE54:
 1276              		.text
 1277              	.Letext0:
 1278              		.file 2 "/usr/lib/gcc/arm-none-eabi/9.2.1/include/stdint.h"
 1279              		.file 3 "Drivers/CMSIS/Device/ST/STM32F0xx/Include/system_stm32f0xx.h"
 1280              		.file 4 "Drivers/CMSIS/Device/ST/STM32F0xx/Include/stm32f072xb.h"
 1281              		.file 5 "Drivers/CMSIS/Device/ST/STM32F0xx/Include/stm32f0xx.h"
 1282              		.file 6 "Drivers/STM32F0xx_HAL_Driver/Inc/stm32f0xx_hal_def.h"
 1283              		.file 7 "Drivers/STM32F0xx_HAL_Driver/Inc/stm32f0xx_hal_tsc.h"
 1284              		.file 8 "Drivers/STM32F0xx_HAL_Driver/Inc/stm32f0xx_hal.h"
ARM GAS  /tmp/cczP4HC8.s 			page 48


DEFINED SYMBOLS
                            *ABS*:0000000000000000 stm32f0xx_hal_tsc.c
     /tmp/cczP4HC8.s:16     .text.TSC_extract_groups:0000000000000000 $t
     /tmp/cczP4HC8.s:23     .text.TSC_extract_groups:0000000000000000 TSC_extract_groups
     /tmp/cczP4HC8.s:88     .text.HAL_TSC_MspInit:0000000000000000 $t
     /tmp/cczP4HC8.s:95     .text.HAL_TSC_MspInit:0000000000000000 HAL_TSC_MspInit
     /tmp/cczP4HC8.s:111    .text.HAL_TSC_Init:0000000000000000 $t
     /tmp/cczP4HC8.s:118    .text.HAL_TSC_Init:0000000000000000 HAL_TSC_Init
     /tmp/cczP4HC8.s:310    .text.HAL_TSC_MspDeInit:0000000000000000 $t
     /tmp/cczP4HC8.s:317    .text.HAL_TSC_MspDeInit:0000000000000000 HAL_TSC_MspDeInit
     /tmp/cczP4HC8.s:333    .text.HAL_TSC_DeInit:0000000000000000 $t
     /tmp/cczP4HC8.s:340    .text.HAL_TSC_DeInit:0000000000000000 HAL_TSC_DeInit
     /tmp/cczP4HC8.s:397    .text.HAL_TSC_Start:0000000000000000 $t
     /tmp/cczP4HC8.s:404    .text.HAL_TSC_Start:0000000000000000 HAL_TSC_Start
     /tmp/cczP4HC8.s:489    .text.HAL_TSC_Start_IT:0000000000000000 $t
     /tmp/cczP4HC8.s:496    .text.HAL_TSC_Start_IT:0000000000000000 HAL_TSC_Start_IT
     /tmp/cczP4HC8.s:604    .text.HAL_TSC_Stop:0000000000000000 $t
     /tmp/cczP4HC8.s:611    .text.HAL_TSC_Stop:0000000000000000 HAL_TSC_Stop
     /tmp/cczP4HC8.s:681    .text.HAL_TSC_Stop_IT:0000000000000000 $t
     /tmp/cczP4HC8.s:688    .text.HAL_TSC_Stop_IT:0000000000000000 HAL_TSC_Stop_IT
     /tmp/cczP4HC8.s:763    .text.HAL_TSC_GroupGetStatus:0000000000000000 $t
     /tmp/cczP4HC8.s:770    .text.HAL_TSC_GroupGetStatus:0000000000000000 HAL_TSC_GroupGetStatus
     /tmp/cczP4HC8.s:802    .text.HAL_TSC_GroupGetValue:0000000000000000 $t
     /tmp/cczP4HC8.s:809    .text.HAL_TSC_GroupGetValue:0000000000000000 HAL_TSC_GroupGetValue
     /tmp/cczP4HC8.s:839    .text.HAL_TSC_IOConfig:0000000000000000 $t
     /tmp/cczP4HC8.s:846    .text.HAL_TSC_IOConfig:0000000000000000 HAL_TSC_IOConfig
     /tmp/cczP4HC8.s:948    .text.HAL_TSC_IODischarge:0000000000000000 $t
     /tmp/cczP4HC8.s:955    .text.HAL_TSC_IODischarge:0000000000000000 HAL_TSC_IODischarge
     /tmp/cczP4HC8.s:1024   .text.HAL_TSC_GetState:0000000000000000 $t
     /tmp/cczP4HC8.s:1031   .text.HAL_TSC_GetState:0000000000000000 HAL_TSC_GetState
     /tmp/cczP4HC8.s:1090   .text.HAL_TSC_PollForAcquisition:0000000000000000 $t
     /tmp/cczP4HC8.s:1097   .text.HAL_TSC_PollForAcquisition:0000000000000000 HAL_TSC_PollForAcquisition
     /tmp/cczP4HC8.s:1161   .text.HAL_TSC_ConvCpltCallback:0000000000000000 $t
     /tmp/cczP4HC8.s:1168   .text.HAL_TSC_ConvCpltCallback:0000000000000000 HAL_TSC_ConvCpltCallback
     /tmp/cczP4HC8.s:1184   .text.HAL_TSC_ErrorCallback:0000000000000000 $t
     /tmp/cczP4HC8.s:1191   .text.HAL_TSC_ErrorCallback:0000000000000000 HAL_TSC_ErrorCallback
     /tmp/cczP4HC8.s:1207   .text.HAL_TSC_IRQHandler:0000000000000000 $t
     /tmp/cczP4HC8.s:1214   .text.HAL_TSC_IRQHandler:0000000000000000 HAL_TSC_IRQHandler

NO UNDEFINED SYMBOLS
