ARM GAS  /tmp/ccrcqutw.s 			page 1


   1              		.cpu cortex-m0
   2              		.eabi_attribute 20, 1
   3              		.eabi_attribute 21, 1
   4              		.eabi_attribute 23, 3
   5              		.eabi_attribute 24, 1
   6              		.eabi_attribute 25, 1
   7              		.eabi_attribute 26, 1
   8              		.eabi_attribute 30, 1
   9              		.eabi_attribute 34, 0
  10              		.eabi_attribute 18, 4
  11              		.file	"stm32f0xx_hal_pcd.c"
  12              		.text
  13              	.Ltext0:
  14              		.cfi_sections	.debug_frame
  15              		.section	.text.HAL_PCD_MspInit,"ax",%progbits
  16              		.align	1
  17              		.weak	HAL_PCD_MspInit
  18              		.arch armv6s-m
  19              		.syntax unified
  20              		.code	16
  21              		.thumb_func
  22              		.fpu softvfp
  24              	HAL_PCD_MspInit:
  25              	.LVL0:
  26              	.LFB42:
  27              		.file 1 "Drivers/STM32F0xx_HAL_Driver/Src/stm32f0xx_hal_pcd.c"
   1:Drivers/STM32F0xx_HAL_Driver/Src/stm32f0xx_hal_pcd.c **** /**
   2:Drivers/STM32F0xx_HAL_Driver/Src/stm32f0xx_hal_pcd.c ****   ******************************************************************************
   3:Drivers/STM32F0xx_HAL_Driver/Src/stm32f0xx_hal_pcd.c ****   * @file    stm32f0xx_hal_pcd.c
   4:Drivers/STM32F0xx_HAL_Driver/Src/stm32f0xx_hal_pcd.c ****   * @author  MCD Application Team
   5:Drivers/STM32F0xx_HAL_Driver/Src/stm32f0xx_hal_pcd.c ****   * @brief   PCD HAL module driver.
   6:Drivers/STM32F0xx_HAL_Driver/Src/stm32f0xx_hal_pcd.c ****   *          This file provides firmware functions to manage the following
   7:Drivers/STM32F0xx_HAL_Driver/Src/stm32f0xx_hal_pcd.c ****   *          functionalities of the USB Peripheral Controller:
   8:Drivers/STM32F0xx_HAL_Driver/Src/stm32f0xx_hal_pcd.c ****   *           + Initialization and de-initialization functions
   9:Drivers/STM32F0xx_HAL_Driver/Src/stm32f0xx_hal_pcd.c ****   *           + IO operation functions
  10:Drivers/STM32F0xx_HAL_Driver/Src/stm32f0xx_hal_pcd.c ****   *           + Peripheral Control functions
  11:Drivers/STM32F0xx_HAL_Driver/Src/stm32f0xx_hal_pcd.c ****   *           + Peripheral State functions
  12:Drivers/STM32F0xx_HAL_Driver/Src/stm32f0xx_hal_pcd.c ****   *
  13:Drivers/STM32F0xx_HAL_Driver/Src/stm32f0xx_hal_pcd.c ****   @verbatim
  14:Drivers/STM32F0xx_HAL_Driver/Src/stm32f0xx_hal_pcd.c ****   ==============================================================================
  15:Drivers/STM32F0xx_HAL_Driver/Src/stm32f0xx_hal_pcd.c ****                     ##### How to use this driver #####
  16:Drivers/STM32F0xx_HAL_Driver/Src/stm32f0xx_hal_pcd.c ****   ==============================================================================
  17:Drivers/STM32F0xx_HAL_Driver/Src/stm32f0xx_hal_pcd.c ****     [..]
  18:Drivers/STM32F0xx_HAL_Driver/Src/stm32f0xx_hal_pcd.c ****       The PCD HAL driver can be used as follows:
  19:Drivers/STM32F0xx_HAL_Driver/Src/stm32f0xx_hal_pcd.c **** 
  20:Drivers/STM32F0xx_HAL_Driver/Src/stm32f0xx_hal_pcd.c ****      (#) Declare a PCD_HandleTypeDef handle structure, for example:
  21:Drivers/STM32F0xx_HAL_Driver/Src/stm32f0xx_hal_pcd.c ****          PCD_HandleTypeDef  hpcd;
  22:Drivers/STM32F0xx_HAL_Driver/Src/stm32f0xx_hal_pcd.c **** 
  23:Drivers/STM32F0xx_HAL_Driver/Src/stm32f0xx_hal_pcd.c ****      (#) Fill parameters of Init structure in HCD handle
  24:Drivers/STM32F0xx_HAL_Driver/Src/stm32f0xx_hal_pcd.c **** 
  25:Drivers/STM32F0xx_HAL_Driver/Src/stm32f0xx_hal_pcd.c ****      (#) Call HAL_PCD_Init() API to initialize the PCD peripheral (Core, Device core, ...)
  26:Drivers/STM32F0xx_HAL_Driver/Src/stm32f0xx_hal_pcd.c **** 
  27:Drivers/STM32F0xx_HAL_Driver/Src/stm32f0xx_hal_pcd.c ****      (#) Initialize the PCD low level resources through the HAL_PCD_MspInit() API:
  28:Drivers/STM32F0xx_HAL_Driver/Src/stm32f0xx_hal_pcd.c ****          (##) Enable the PCD/USB Low Level interface clock using
  29:Drivers/STM32F0xx_HAL_Driver/Src/stm32f0xx_hal_pcd.c ****               (+++) __HAL_RCC_USB_CLK_ENABLE(); For USB Device only FS peripheral
  30:Drivers/STM32F0xx_HAL_Driver/Src/stm32f0xx_hal_pcd.c **** 
  31:Drivers/STM32F0xx_HAL_Driver/Src/stm32f0xx_hal_pcd.c ****          (##) Initialize the related GPIO clocks
ARM GAS  /tmp/ccrcqutw.s 			page 2


  32:Drivers/STM32F0xx_HAL_Driver/Src/stm32f0xx_hal_pcd.c ****          (##) Configure PCD pin-out
  33:Drivers/STM32F0xx_HAL_Driver/Src/stm32f0xx_hal_pcd.c ****          (##) Configure PCD NVIC interrupt
  34:Drivers/STM32F0xx_HAL_Driver/Src/stm32f0xx_hal_pcd.c **** 
  35:Drivers/STM32F0xx_HAL_Driver/Src/stm32f0xx_hal_pcd.c ****      (#)Associate the Upper USB device stack to the HAL PCD Driver:
  36:Drivers/STM32F0xx_HAL_Driver/Src/stm32f0xx_hal_pcd.c ****          (##) hpcd.pData = pdev;
  37:Drivers/STM32F0xx_HAL_Driver/Src/stm32f0xx_hal_pcd.c **** 
  38:Drivers/STM32F0xx_HAL_Driver/Src/stm32f0xx_hal_pcd.c ****      (#)Enable PCD transmission and reception:
  39:Drivers/STM32F0xx_HAL_Driver/Src/stm32f0xx_hal_pcd.c ****          (##) HAL_PCD_Start();
  40:Drivers/STM32F0xx_HAL_Driver/Src/stm32f0xx_hal_pcd.c **** 
  41:Drivers/STM32F0xx_HAL_Driver/Src/stm32f0xx_hal_pcd.c ****   @endverbatim
  42:Drivers/STM32F0xx_HAL_Driver/Src/stm32f0xx_hal_pcd.c ****   ******************************************************************************
  43:Drivers/STM32F0xx_HAL_Driver/Src/stm32f0xx_hal_pcd.c ****   * @attention
  44:Drivers/STM32F0xx_HAL_Driver/Src/stm32f0xx_hal_pcd.c ****   *
  45:Drivers/STM32F0xx_HAL_Driver/Src/stm32f0xx_hal_pcd.c ****   * <h2><center>&copy; Copyright (c) 2016 STMicroelectronics.
  46:Drivers/STM32F0xx_HAL_Driver/Src/stm32f0xx_hal_pcd.c ****   * All rights reserved.</center></h2>
  47:Drivers/STM32F0xx_HAL_Driver/Src/stm32f0xx_hal_pcd.c ****   *
  48:Drivers/STM32F0xx_HAL_Driver/Src/stm32f0xx_hal_pcd.c ****   * This software component is licensed by ST under BSD 3-Clause license,
  49:Drivers/STM32F0xx_HAL_Driver/Src/stm32f0xx_hal_pcd.c ****   * the "License"; You may not use this file except in compliance with the
  50:Drivers/STM32F0xx_HAL_Driver/Src/stm32f0xx_hal_pcd.c ****   * License. You may obtain a copy of the License at:
  51:Drivers/STM32F0xx_HAL_Driver/Src/stm32f0xx_hal_pcd.c ****   *                        opensource.org/licenses/BSD-3-Clause
  52:Drivers/STM32F0xx_HAL_Driver/Src/stm32f0xx_hal_pcd.c ****   *
  53:Drivers/STM32F0xx_HAL_Driver/Src/stm32f0xx_hal_pcd.c ****   ******************************************************************************
  54:Drivers/STM32F0xx_HAL_Driver/Src/stm32f0xx_hal_pcd.c ****   */
  55:Drivers/STM32F0xx_HAL_Driver/Src/stm32f0xx_hal_pcd.c **** 
  56:Drivers/STM32F0xx_HAL_Driver/Src/stm32f0xx_hal_pcd.c **** /* Includes ------------------------------------------------------------------*/
  57:Drivers/STM32F0xx_HAL_Driver/Src/stm32f0xx_hal_pcd.c **** #include "stm32f0xx_hal.h"
  58:Drivers/STM32F0xx_HAL_Driver/Src/stm32f0xx_hal_pcd.c **** 
  59:Drivers/STM32F0xx_HAL_Driver/Src/stm32f0xx_hal_pcd.c **** /** @addtogroup STM32F0xx_HAL_Driver
  60:Drivers/STM32F0xx_HAL_Driver/Src/stm32f0xx_hal_pcd.c ****   * @{
  61:Drivers/STM32F0xx_HAL_Driver/Src/stm32f0xx_hal_pcd.c ****   */
  62:Drivers/STM32F0xx_HAL_Driver/Src/stm32f0xx_hal_pcd.c **** 
  63:Drivers/STM32F0xx_HAL_Driver/Src/stm32f0xx_hal_pcd.c **** /** @defgroup PCD PCD
  64:Drivers/STM32F0xx_HAL_Driver/Src/stm32f0xx_hal_pcd.c ****   * @brief PCD HAL module driver
  65:Drivers/STM32F0xx_HAL_Driver/Src/stm32f0xx_hal_pcd.c ****   * @{
  66:Drivers/STM32F0xx_HAL_Driver/Src/stm32f0xx_hal_pcd.c ****   */
  67:Drivers/STM32F0xx_HAL_Driver/Src/stm32f0xx_hal_pcd.c **** 
  68:Drivers/STM32F0xx_HAL_Driver/Src/stm32f0xx_hal_pcd.c **** #ifdef HAL_PCD_MODULE_ENABLED
  69:Drivers/STM32F0xx_HAL_Driver/Src/stm32f0xx_hal_pcd.c **** 
  70:Drivers/STM32F0xx_HAL_Driver/Src/stm32f0xx_hal_pcd.c **** #if defined (USB)
  71:Drivers/STM32F0xx_HAL_Driver/Src/stm32f0xx_hal_pcd.c **** 
  72:Drivers/STM32F0xx_HAL_Driver/Src/stm32f0xx_hal_pcd.c **** /* Private types -------------------------------------------------------------*/
  73:Drivers/STM32F0xx_HAL_Driver/Src/stm32f0xx_hal_pcd.c **** /* Private variables ---------------------------------------------------------*/
  74:Drivers/STM32F0xx_HAL_Driver/Src/stm32f0xx_hal_pcd.c **** /* Private constants ---------------------------------------------------------*/
  75:Drivers/STM32F0xx_HAL_Driver/Src/stm32f0xx_hal_pcd.c **** /* Private macros ------------------------------------------------------------*/
  76:Drivers/STM32F0xx_HAL_Driver/Src/stm32f0xx_hal_pcd.c **** /** @defgroup PCD_Private_Macros PCD Private Macros
  77:Drivers/STM32F0xx_HAL_Driver/Src/stm32f0xx_hal_pcd.c ****   * @{
  78:Drivers/STM32F0xx_HAL_Driver/Src/stm32f0xx_hal_pcd.c ****   */
  79:Drivers/STM32F0xx_HAL_Driver/Src/stm32f0xx_hal_pcd.c **** #define PCD_MIN(a, b)  (((a) < (b)) ? (a) : (b))
  80:Drivers/STM32F0xx_HAL_Driver/Src/stm32f0xx_hal_pcd.c **** #define PCD_MAX(a, b)  (((a) > (b)) ? (a) : (b))
  81:Drivers/STM32F0xx_HAL_Driver/Src/stm32f0xx_hal_pcd.c **** /**
  82:Drivers/STM32F0xx_HAL_Driver/Src/stm32f0xx_hal_pcd.c ****   * @}
  83:Drivers/STM32F0xx_HAL_Driver/Src/stm32f0xx_hal_pcd.c ****   */
  84:Drivers/STM32F0xx_HAL_Driver/Src/stm32f0xx_hal_pcd.c **** 
  85:Drivers/STM32F0xx_HAL_Driver/Src/stm32f0xx_hal_pcd.c **** /* Private functions prototypes ----------------------------------------------*/
  86:Drivers/STM32F0xx_HAL_Driver/Src/stm32f0xx_hal_pcd.c **** /** @defgroup PCD_Private_Functions PCD Private Functions
  87:Drivers/STM32F0xx_HAL_Driver/Src/stm32f0xx_hal_pcd.c ****   * @{
  88:Drivers/STM32F0xx_HAL_Driver/Src/stm32f0xx_hal_pcd.c ****   */
ARM GAS  /tmp/ccrcqutw.s 			page 3


  89:Drivers/STM32F0xx_HAL_Driver/Src/stm32f0xx_hal_pcd.c **** 
  90:Drivers/STM32F0xx_HAL_Driver/Src/stm32f0xx_hal_pcd.c **** static HAL_StatusTypeDef PCD_EP_ISR_Handler(PCD_HandleTypeDef *hpcd);
  91:Drivers/STM32F0xx_HAL_Driver/Src/stm32f0xx_hal_pcd.c **** 
  92:Drivers/STM32F0xx_HAL_Driver/Src/stm32f0xx_hal_pcd.c **** /**
  93:Drivers/STM32F0xx_HAL_Driver/Src/stm32f0xx_hal_pcd.c ****   * @}
  94:Drivers/STM32F0xx_HAL_Driver/Src/stm32f0xx_hal_pcd.c ****   */
  95:Drivers/STM32F0xx_HAL_Driver/Src/stm32f0xx_hal_pcd.c **** 
  96:Drivers/STM32F0xx_HAL_Driver/Src/stm32f0xx_hal_pcd.c **** /* Exported functions --------------------------------------------------------*/
  97:Drivers/STM32F0xx_HAL_Driver/Src/stm32f0xx_hal_pcd.c **** /** @defgroup PCD_Exported_Functions PCD Exported Functions
  98:Drivers/STM32F0xx_HAL_Driver/Src/stm32f0xx_hal_pcd.c ****   * @{
  99:Drivers/STM32F0xx_HAL_Driver/Src/stm32f0xx_hal_pcd.c ****   */
 100:Drivers/STM32F0xx_HAL_Driver/Src/stm32f0xx_hal_pcd.c **** 
 101:Drivers/STM32F0xx_HAL_Driver/Src/stm32f0xx_hal_pcd.c **** /** @defgroup PCD_Exported_Functions_Group1 Initialization and de-initialization functions
 102:Drivers/STM32F0xx_HAL_Driver/Src/stm32f0xx_hal_pcd.c ****  *  @brief    Initialization and Configuration functions
 103:Drivers/STM32F0xx_HAL_Driver/Src/stm32f0xx_hal_pcd.c ****  *
 104:Drivers/STM32F0xx_HAL_Driver/Src/stm32f0xx_hal_pcd.c **** @verbatim
 105:Drivers/STM32F0xx_HAL_Driver/Src/stm32f0xx_hal_pcd.c ****  ===============================================================================
 106:Drivers/STM32F0xx_HAL_Driver/Src/stm32f0xx_hal_pcd.c ****             ##### Initialization and de-initialization functions #####
 107:Drivers/STM32F0xx_HAL_Driver/Src/stm32f0xx_hal_pcd.c ****  ===============================================================================
 108:Drivers/STM32F0xx_HAL_Driver/Src/stm32f0xx_hal_pcd.c ****     [..]  This section provides functions allowing to:
 109:Drivers/STM32F0xx_HAL_Driver/Src/stm32f0xx_hal_pcd.c **** 
 110:Drivers/STM32F0xx_HAL_Driver/Src/stm32f0xx_hal_pcd.c **** @endverbatim
 111:Drivers/STM32F0xx_HAL_Driver/Src/stm32f0xx_hal_pcd.c ****   * @{
 112:Drivers/STM32F0xx_HAL_Driver/Src/stm32f0xx_hal_pcd.c ****   */
 113:Drivers/STM32F0xx_HAL_Driver/Src/stm32f0xx_hal_pcd.c **** 
 114:Drivers/STM32F0xx_HAL_Driver/Src/stm32f0xx_hal_pcd.c **** /**
 115:Drivers/STM32F0xx_HAL_Driver/Src/stm32f0xx_hal_pcd.c ****   * @brief  Initializes the PCD according to the specified
 116:Drivers/STM32F0xx_HAL_Driver/Src/stm32f0xx_hal_pcd.c ****   *         parameters in the PCD_InitTypeDef and initialize the associated handle.
 117:Drivers/STM32F0xx_HAL_Driver/Src/stm32f0xx_hal_pcd.c ****   * @param  hpcd PCD handle
 118:Drivers/STM32F0xx_HAL_Driver/Src/stm32f0xx_hal_pcd.c ****   * @retval HAL status
 119:Drivers/STM32F0xx_HAL_Driver/Src/stm32f0xx_hal_pcd.c ****   */
 120:Drivers/STM32F0xx_HAL_Driver/Src/stm32f0xx_hal_pcd.c **** HAL_StatusTypeDef HAL_PCD_Init(PCD_HandleTypeDef *hpcd)
 121:Drivers/STM32F0xx_HAL_Driver/Src/stm32f0xx_hal_pcd.c **** {
 122:Drivers/STM32F0xx_HAL_Driver/Src/stm32f0xx_hal_pcd.c ****   uint8_t i;
 123:Drivers/STM32F0xx_HAL_Driver/Src/stm32f0xx_hal_pcd.c **** 
 124:Drivers/STM32F0xx_HAL_Driver/Src/stm32f0xx_hal_pcd.c ****   /* Check the PCD handle allocation */
 125:Drivers/STM32F0xx_HAL_Driver/Src/stm32f0xx_hal_pcd.c ****   if (hpcd == NULL)
 126:Drivers/STM32F0xx_HAL_Driver/Src/stm32f0xx_hal_pcd.c ****   {
 127:Drivers/STM32F0xx_HAL_Driver/Src/stm32f0xx_hal_pcd.c ****     return HAL_ERROR;
 128:Drivers/STM32F0xx_HAL_Driver/Src/stm32f0xx_hal_pcd.c ****   }
 129:Drivers/STM32F0xx_HAL_Driver/Src/stm32f0xx_hal_pcd.c **** 
 130:Drivers/STM32F0xx_HAL_Driver/Src/stm32f0xx_hal_pcd.c ****   /* Check the parameters */
 131:Drivers/STM32F0xx_HAL_Driver/Src/stm32f0xx_hal_pcd.c ****   assert_param(IS_PCD_ALL_INSTANCE(hpcd->Instance));
 132:Drivers/STM32F0xx_HAL_Driver/Src/stm32f0xx_hal_pcd.c **** 
 133:Drivers/STM32F0xx_HAL_Driver/Src/stm32f0xx_hal_pcd.c ****   if (hpcd->State == HAL_PCD_STATE_RESET)
 134:Drivers/STM32F0xx_HAL_Driver/Src/stm32f0xx_hal_pcd.c ****   {
 135:Drivers/STM32F0xx_HAL_Driver/Src/stm32f0xx_hal_pcd.c ****     /* Allocate lock resource and initialize it */
 136:Drivers/STM32F0xx_HAL_Driver/Src/stm32f0xx_hal_pcd.c ****     hpcd->Lock = HAL_UNLOCKED;
 137:Drivers/STM32F0xx_HAL_Driver/Src/stm32f0xx_hal_pcd.c **** 
 138:Drivers/STM32F0xx_HAL_Driver/Src/stm32f0xx_hal_pcd.c **** #if (USE_HAL_PCD_REGISTER_CALLBACKS == 1U)
 139:Drivers/STM32F0xx_HAL_Driver/Src/stm32f0xx_hal_pcd.c ****     hpcd->SOFCallback = HAL_PCD_SOFCallback;
 140:Drivers/STM32F0xx_HAL_Driver/Src/stm32f0xx_hal_pcd.c ****     hpcd->SetupStageCallback = HAL_PCD_SetupStageCallback;
 141:Drivers/STM32F0xx_HAL_Driver/Src/stm32f0xx_hal_pcd.c ****     hpcd->ResetCallback = HAL_PCD_ResetCallback;
 142:Drivers/STM32F0xx_HAL_Driver/Src/stm32f0xx_hal_pcd.c ****     hpcd->SuspendCallback = HAL_PCD_SuspendCallback;
 143:Drivers/STM32F0xx_HAL_Driver/Src/stm32f0xx_hal_pcd.c ****     hpcd->ResumeCallback = HAL_PCD_ResumeCallback;
 144:Drivers/STM32F0xx_HAL_Driver/Src/stm32f0xx_hal_pcd.c ****     hpcd->ConnectCallback = HAL_PCD_ConnectCallback;
 145:Drivers/STM32F0xx_HAL_Driver/Src/stm32f0xx_hal_pcd.c ****     hpcd->DisconnectCallback = HAL_PCD_DisconnectCallback;
ARM GAS  /tmp/ccrcqutw.s 			page 4


 146:Drivers/STM32F0xx_HAL_Driver/Src/stm32f0xx_hal_pcd.c ****     hpcd->DataOutStageCallback = HAL_PCD_DataOutStageCallback;
 147:Drivers/STM32F0xx_HAL_Driver/Src/stm32f0xx_hal_pcd.c ****     hpcd->DataInStageCallback = HAL_PCD_DataInStageCallback;
 148:Drivers/STM32F0xx_HAL_Driver/Src/stm32f0xx_hal_pcd.c ****     hpcd->ISOOUTIncompleteCallback = HAL_PCD_ISOOUTIncompleteCallback;
 149:Drivers/STM32F0xx_HAL_Driver/Src/stm32f0xx_hal_pcd.c ****     hpcd->ISOINIncompleteCallback = HAL_PCD_ISOINIncompleteCallback;
 150:Drivers/STM32F0xx_HAL_Driver/Src/stm32f0xx_hal_pcd.c ****     hpcd->LPMCallback = HAL_PCDEx_LPM_Callback;
 151:Drivers/STM32F0xx_HAL_Driver/Src/stm32f0xx_hal_pcd.c ****     hpcd->BCDCallback = HAL_PCDEx_BCD_Callback;
 152:Drivers/STM32F0xx_HAL_Driver/Src/stm32f0xx_hal_pcd.c **** 
 153:Drivers/STM32F0xx_HAL_Driver/Src/stm32f0xx_hal_pcd.c ****     if (hpcd->MspInitCallback == NULL)
 154:Drivers/STM32F0xx_HAL_Driver/Src/stm32f0xx_hal_pcd.c ****     {
 155:Drivers/STM32F0xx_HAL_Driver/Src/stm32f0xx_hal_pcd.c ****       hpcd->MspInitCallback = HAL_PCD_MspInit;
 156:Drivers/STM32F0xx_HAL_Driver/Src/stm32f0xx_hal_pcd.c ****     }
 157:Drivers/STM32F0xx_HAL_Driver/Src/stm32f0xx_hal_pcd.c **** 
 158:Drivers/STM32F0xx_HAL_Driver/Src/stm32f0xx_hal_pcd.c ****     /* Init the low level hardware */
 159:Drivers/STM32F0xx_HAL_Driver/Src/stm32f0xx_hal_pcd.c ****     hpcd->MspInitCallback(hpcd);
 160:Drivers/STM32F0xx_HAL_Driver/Src/stm32f0xx_hal_pcd.c **** #else
 161:Drivers/STM32F0xx_HAL_Driver/Src/stm32f0xx_hal_pcd.c ****     /* Init the low level hardware : GPIO, CLOCK, NVIC... */
 162:Drivers/STM32F0xx_HAL_Driver/Src/stm32f0xx_hal_pcd.c ****     HAL_PCD_MspInit(hpcd);
 163:Drivers/STM32F0xx_HAL_Driver/Src/stm32f0xx_hal_pcd.c **** #endif /* (USE_HAL_PCD_REGISTER_CALLBACKS) */
 164:Drivers/STM32F0xx_HAL_Driver/Src/stm32f0xx_hal_pcd.c ****   }
 165:Drivers/STM32F0xx_HAL_Driver/Src/stm32f0xx_hal_pcd.c **** 
 166:Drivers/STM32F0xx_HAL_Driver/Src/stm32f0xx_hal_pcd.c ****   hpcd->State = HAL_PCD_STATE_BUSY;
 167:Drivers/STM32F0xx_HAL_Driver/Src/stm32f0xx_hal_pcd.c **** 
 168:Drivers/STM32F0xx_HAL_Driver/Src/stm32f0xx_hal_pcd.c ****   /* Disable the Interrupts */
 169:Drivers/STM32F0xx_HAL_Driver/Src/stm32f0xx_hal_pcd.c ****   __HAL_PCD_DISABLE(hpcd);
 170:Drivers/STM32F0xx_HAL_Driver/Src/stm32f0xx_hal_pcd.c **** 
 171:Drivers/STM32F0xx_HAL_Driver/Src/stm32f0xx_hal_pcd.c ****   /* Init endpoints structures */
 172:Drivers/STM32F0xx_HAL_Driver/Src/stm32f0xx_hal_pcd.c ****   for (i = 0U; i < hpcd->Init.dev_endpoints; i++)
 173:Drivers/STM32F0xx_HAL_Driver/Src/stm32f0xx_hal_pcd.c ****   {
 174:Drivers/STM32F0xx_HAL_Driver/Src/stm32f0xx_hal_pcd.c ****     /* Init ep structure */
 175:Drivers/STM32F0xx_HAL_Driver/Src/stm32f0xx_hal_pcd.c ****     hpcd->IN_ep[i].is_in = 1U;
 176:Drivers/STM32F0xx_HAL_Driver/Src/stm32f0xx_hal_pcd.c ****     hpcd->IN_ep[i].num = i;
 177:Drivers/STM32F0xx_HAL_Driver/Src/stm32f0xx_hal_pcd.c ****     hpcd->IN_ep[i].tx_fifo_num = i;
 178:Drivers/STM32F0xx_HAL_Driver/Src/stm32f0xx_hal_pcd.c ****     /* Control until ep is activated */
 179:Drivers/STM32F0xx_HAL_Driver/Src/stm32f0xx_hal_pcd.c ****     hpcd->IN_ep[i].type = EP_TYPE_CTRL;
 180:Drivers/STM32F0xx_HAL_Driver/Src/stm32f0xx_hal_pcd.c ****     hpcd->IN_ep[i].maxpacket = 0U;
 181:Drivers/STM32F0xx_HAL_Driver/Src/stm32f0xx_hal_pcd.c ****     hpcd->IN_ep[i].xfer_buff = 0U;
 182:Drivers/STM32F0xx_HAL_Driver/Src/stm32f0xx_hal_pcd.c ****     hpcd->IN_ep[i].xfer_len = 0U;
 183:Drivers/STM32F0xx_HAL_Driver/Src/stm32f0xx_hal_pcd.c ****   }
 184:Drivers/STM32F0xx_HAL_Driver/Src/stm32f0xx_hal_pcd.c **** 
 185:Drivers/STM32F0xx_HAL_Driver/Src/stm32f0xx_hal_pcd.c ****   for (i = 0U; i < hpcd->Init.dev_endpoints; i++)
 186:Drivers/STM32F0xx_HAL_Driver/Src/stm32f0xx_hal_pcd.c ****   {
 187:Drivers/STM32F0xx_HAL_Driver/Src/stm32f0xx_hal_pcd.c ****     hpcd->OUT_ep[i].is_in = 0U;
 188:Drivers/STM32F0xx_HAL_Driver/Src/stm32f0xx_hal_pcd.c ****     hpcd->OUT_ep[i].num = i;
 189:Drivers/STM32F0xx_HAL_Driver/Src/stm32f0xx_hal_pcd.c ****     /* Control until ep is activated */
 190:Drivers/STM32F0xx_HAL_Driver/Src/stm32f0xx_hal_pcd.c ****     hpcd->OUT_ep[i].type = EP_TYPE_CTRL;
 191:Drivers/STM32F0xx_HAL_Driver/Src/stm32f0xx_hal_pcd.c ****     hpcd->OUT_ep[i].maxpacket = 0U;
 192:Drivers/STM32F0xx_HAL_Driver/Src/stm32f0xx_hal_pcd.c ****     hpcd->OUT_ep[i].xfer_buff = 0U;
 193:Drivers/STM32F0xx_HAL_Driver/Src/stm32f0xx_hal_pcd.c ****     hpcd->OUT_ep[i].xfer_len = 0U;
 194:Drivers/STM32F0xx_HAL_Driver/Src/stm32f0xx_hal_pcd.c ****   }
 195:Drivers/STM32F0xx_HAL_Driver/Src/stm32f0xx_hal_pcd.c **** 
 196:Drivers/STM32F0xx_HAL_Driver/Src/stm32f0xx_hal_pcd.c ****   /* Init Device */
 197:Drivers/STM32F0xx_HAL_Driver/Src/stm32f0xx_hal_pcd.c ****   (void)USB_DevInit(hpcd->Instance, hpcd->Init);
 198:Drivers/STM32F0xx_HAL_Driver/Src/stm32f0xx_hal_pcd.c **** 
 199:Drivers/STM32F0xx_HAL_Driver/Src/stm32f0xx_hal_pcd.c ****   hpcd->USB_Address = 0U;
 200:Drivers/STM32F0xx_HAL_Driver/Src/stm32f0xx_hal_pcd.c ****   hpcd->State = HAL_PCD_STATE_READY;
 201:Drivers/STM32F0xx_HAL_Driver/Src/stm32f0xx_hal_pcd.c ****   
 202:Drivers/STM32F0xx_HAL_Driver/Src/stm32f0xx_hal_pcd.c ****   /* Activate LPM */
ARM GAS  /tmp/ccrcqutw.s 			page 5


 203:Drivers/STM32F0xx_HAL_Driver/Src/stm32f0xx_hal_pcd.c ****   if (hpcd->Init.lpm_enable == 1U)
 204:Drivers/STM32F0xx_HAL_Driver/Src/stm32f0xx_hal_pcd.c ****   {
 205:Drivers/STM32F0xx_HAL_Driver/Src/stm32f0xx_hal_pcd.c ****     (void)HAL_PCDEx_ActivateLPM(hpcd);
 206:Drivers/STM32F0xx_HAL_Driver/Src/stm32f0xx_hal_pcd.c ****   }
 207:Drivers/STM32F0xx_HAL_Driver/Src/stm32f0xx_hal_pcd.c ****   
 208:Drivers/STM32F0xx_HAL_Driver/Src/stm32f0xx_hal_pcd.c ****   return HAL_OK;
 209:Drivers/STM32F0xx_HAL_Driver/Src/stm32f0xx_hal_pcd.c **** }
 210:Drivers/STM32F0xx_HAL_Driver/Src/stm32f0xx_hal_pcd.c **** 
 211:Drivers/STM32F0xx_HAL_Driver/Src/stm32f0xx_hal_pcd.c **** /**
 212:Drivers/STM32F0xx_HAL_Driver/Src/stm32f0xx_hal_pcd.c ****   * @brief  DeInitializes the PCD peripheral.
 213:Drivers/STM32F0xx_HAL_Driver/Src/stm32f0xx_hal_pcd.c ****   * @param  hpcd PCD handle
 214:Drivers/STM32F0xx_HAL_Driver/Src/stm32f0xx_hal_pcd.c ****   * @retval HAL status
 215:Drivers/STM32F0xx_HAL_Driver/Src/stm32f0xx_hal_pcd.c ****   */
 216:Drivers/STM32F0xx_HAL_Driver/Src/stm32f0xx_hal_pcd.c **** HAL_StatusTypeDef HAL_PCD_DeInit(PCD_HandleTypeDef *hpcd)
 217:Drivers/STM32F0xx_HAL_Driver/Src/stm32f0xx_hal_pcd.c **** {
 218:Drivers/STM32F0xx_HAL_Driver/Src/stm32f0xx_hal_pcd.c ****   /* Check the PCD handle allocation */
 219:Drivers/STM32F0xx_HAL_Driver/Src/stm32f0xx_hal_pcd.c ****   if (hpcd == NULL)
 220:Drivers/STM32F0xx_HAL_Driver/Src/stm32f0xx_hal_pcd.c ****   {
 221:Drivers/STM32F0xx_HAL_Driver/Src/stm32f0xx_hal_pcd.c ****     return HAL_ERROR;
 222:Drivers/STM32F0xx_HAL_Driver/Src/stm32f0xx_hal_pcd.c ****   }
 223:Drivers/STM32F0xx_HAL_Driver/Src/stm32f0xx_hal_pcd.c **** 
 224:Drivers/STM32F0xx_HAL_Driver/Src/stm32f0xx_hal_pcd.c ****   hpcd->State = HAL_PCD_STATE_BUSY;
 225:Drivers/STM32F0xx_HAL_Driver/Src/stm32f0xx_hal_pcd.c **** 
 226:Drivers/STM32F0xx_HAL_Driver/Src/stm32f0xx_hal_pcd.c ****   /* Stop Device */
 227:Drivers/STM32F0xx_HAL_Driver/Src/stm32f0xx_hal_pcd.c ****   (void)HAL_PCD_Stop(hpcd);
 228:Drivers/STM32F0xx_HAL_Driver/Src/stm32f0xx_hal_pcd.c **** 
 229:Drivers/STM32F0xx_HAL_Driver/Src/stm32f0xx_hal_pcd.c **** #if (USE_HAL_PCD_REGISTER_CALLBACKS == 1U)
 230:Drivers/STM32F0xx_HAL_Driver/Src/stm32f0xx_hal_pcd.c ****   if (hpcd->MspDeInitCallback == NULL)
 231:Drivers/STM32F0xx_HAL_Driver/Src/stm32f0xx_hal_pcd.c ****   {
 232:Drivers/STM32F0xx_HAL_Driver/Src/stm32f0xx_hal_pcd.c ****     hpcd->MspDeInitCallback = HAL_PCD_MspDeInit; /* Legacy weak MspDeInit  */
 233:Drivers/STM32F0xx_HAL_Driver/Src/stm32f0xx_hal_pcd.c ****   }
 234:Drivers/STM32F0xx_HAL_Driver/Src/stm32f0xx_hal_pcd.c **** 
 235:Drivers/STM32F0xx_HAL_Driver/Src/stm32f0xx_hal_pcd.c ****   /* DeInit the low level hardware */
 236:Drivers/STM32F0xx_HAL_Driver/Src/stm32f0xx_hal_pcd.c ****   hpcd->MspDeInitCallback(hpcd);
 237:Drivers/STM32F0xx_HAL_Driver/Src/stm32f0xx_hal_pcd.c **** #else
 238:Drivers/STM32F0xx_HAL_Driver/Src/stm32f0xx_hal_pcd.c ****   /* DeInit the low level hardware: CLOCK, NVIC.*/
 239:Drivers/STM32F0xx_HAL_Driver/Src/stm32f0xx_hal_pcd.c ****   HAL_PCD_MspDeInit(hpcd);
 240:Drivers/STM32F0xx_HAL_Driver/Src/stm32f0xx_hal_pcd.c **** #endif /* USE_HAL_PCD_REGISTER_CALLBACKS */
 241:Drivers/STM32F0xx_HAL_Driver/Src/stm32f0xx_hal_pcd.c **** 
 242:Drivers/STM32F0xx_HAL_Driver/Src/stm32f0xx_hal_pcd.c ****   hpcd->State = HAL_PCD_STATE_RESET;
 243:Drivers/STM32F0xx_HAL_Driver/Src/stm32f0xx_hal_pcd.c **** 
 244:Drivers/STM32F0xx_HAL_Driver/Src/stm32f0xx_hal_pcd.c ****   return HAL_OK;
 245:Drivers/STM32F0xx_HAL_Driver/Src/stm32f0xx_hal_pcd.c **** }
 246:Drivers/STM32F0xx_HAL_Driver/Src/stm32f0xx_hal_pcd.c **** 
 247:Drivers/STM32F0xx_HAL_Driver/Src/stm32f0xx_hal_pcd.c **** /**
 248:Drivers/STM32F0xx_HAL_Driver/Src/stm32f0xx_hal_pcd.c ****   * @brief  Initializes the PCD MSP.
 249:Drivers/STM32F0xx_HAL_Driver/Src/stm32f0xx_hal_pcd.c ****   * @param  hpcd PCD handle
 250:Drivers/STM32F0xx_HAL_Driver/Src/stm32f0xx_hal_pcd.c ****   * @retval None
 251:Drivers/STM32F0xx_HAL_Driver/Src/stm32f0xx_hal_pcd.c ****   */
 252:Drivers/STM32F0xx_HAL_Driver/Src/stm32f0xx_hal_pcd.c **** __weak void HAL_PCD_MspInit(PCD_HandleTypeDef *hpcd)
 253:Drivers/STM32F0xx_HAL_Driver/Src/stm32f0xx_hal_pcd.c **** {
  28              		.loc 1 253 1 view -0
  29              		.cfi_startproc
  30              		@ args = 0, pretend = 0, frame = 0
  31              		@ frame_needed = 0, uses_anonymous_args = 0
  32              		@ link register save eliminated.
 254:Drivers/STM32F0xx_HAL_Driver/Src/stm32f0xx_hal_pcd.c ****   /* Prevent unused argument(s) compilation warning */
ARM GAS  /tmp/ccrcqutw.s 			page 6


 255:Drivers/STM32F0xx_HAL_Driver/Src/stm32f0xx_hal_pcd.c ****   UNUSED(hpcd);
  33              		.loc 1 255 3 view .LVU1
 256:Drivers/STM32F0xx_HAL_Driver/Src/stm32f0xx_hal_pcd.c **** 
 257:Drivers/STM32F0xx_HAL_Driver/Src/stm32f0xx_hal_pcd.c ****   /* NOTE : This function should not be modified, when the callback is needed,
 258:Drivers/STM32F0xx_HAL_Driver/Src/stm32f0xx_hal_pcd.c ****             the HAL_PCD_MspInit could be implemented in the user file
 259:Drivers/STM32F0xx_HAL_Driver/Src/stm32f0xx_hal_pcd.c ****    */
 260:Drivers/STM32F0xx_HAL_Driver/Src/stm32f0xx_hal_pcd.c **** }
  34              		.loc 1 260 1 is_stmt 0 view .LVU2
  35              		@ sp needed
  36 0000 7047     		bx	lr
  37              		.cfi_endproc
  38              	.LFE42:
  40              		.section	.text.HAL_PCD_Init,"ax",%progbits
  41              		.align	1
  42              		.global	HAL_PCD_Init
  43              		.syntax unified
  44              		.code	16
  45              		.thumb_func
  46              		.fpu softvfp
  48              	HAL_PCD_Init:
  49              	.LVL1:
  50              	.LFB40:
 121:Drivers/STM32F0xx_HAL_Driver/Src/stm32f0xx_hal_pcd.c ****   uint8_t i;
  51              		.loc 1 121 1 is_stmt 1 view -0
  52              		.cfi_startproc
  53              		@ args = 0, pretend = 0, frame = 0
  54              		@ frame_needed = 0, uses_anonymous_args = 0
 121:Drivers/STM32F0xx_HAL_Driver/Src/stm32f0xx_hal_pcd.c ****   uint8_t i;
  55              		.loc 1 121 1 is_stmt 0 view .LVU4
  56 0000 30B5     		push	{r4, r5, lr}
  57              	.LCFI0:
  58              		.cfi_def_cfa_offset 12
  59              		.cfi_offset 4, -12
  60              		.cfi_offset 5, -8
  61              		.cfi_offset 14, -4
  62 0002 87B0     		sub	sp, sp, #28
  63              	.LCFI1:
  64              		.cfi_def_cfa_offset 40
  65 0004 041E     		subs	r4, r0, #0
 122:Drivers/STM32F0xx_HAL_Driver/Src/stm32f0xx_hal_pcd.c **** 
  66              		.loc 1 122 3 is_stmt 1 view .LVU5
 125:Drivers/STM32F0xx_HAL_Driver/Src/stm32f0xx_hal_pcd.c ****   {
  67              		.loc 1 125 3 view .LVU6
 125:Drivers/STM32F0xx_HAL_Driver/Src/stm32f0xx_hal_pcd.c ****   {
  68              		.loc 1 125 6 is_stmt 0 view .LVU7
  69 0006 61D0     		beq	.L9
 131:Drivers/STM32F0xx_HAL_Driver/Src/stm32f0xx_hal_pcd.c **** 
  70              		.loc 1 131 3 is_stmt 1 view .LVU8
 133:Drivers/STM32F0xx_HAL_Driver/Src/stm32f0xx_hal_pcd.c ****   {
  71              		.loc 1 133 3 view .LVU9
 133:Drivers/STM32F0xx_HAL_Driver/Src/stm32f0xx_hal_pcd.c ****   {
  72              		.loc 1 133 11 is_stmt 0 view .LVU10
  73 0008 314B     		ldr	r3, .L14
  74 000a C35C     		ldrb	r3, [r0, r3]
 133:Drivers/STM32F0xx_HAL_Driver/Src/stm32f0xx_hal_pcd.c ****   {
  75              		.loc 1 133 6 view .LVU11
  76 000c 002B     		cmp	r3, #0
ARM GAS  /tmp/ccrcqutw.s 			page 7


  77 000e 1ED0     		beq	.L11
  78              	.LVL2:
  79              	.L4:
 166:Drivers/STM32F0xx_HAL_Driver/Src/stm32f0xx_hal_pcd.c **** 
  80              		.loc 1 166 3 is_stmt 1 view .LVU12
 166:Drivers/STM32F0xx_HAL_Driver/Src/stm32f0xx_hal_pcd.c **** 
  81              		.loc 1 166 15 is_stmt 0 view .LVU13
  82 0010 2F4B     		ldr	r3, .L14
  83 0012 0322     		movs	r2, #3
  84 0014 E254     		strb	r2, [r4, r3]
 169:Drivers/STM32F0xx_HAL_Driver/Src/stm32f0xx_hal_pcd.c **** 
  85              		.loc 1 169 3 is_stmt 1 view .LVU14
  86 0016 2068     		ldr	r0, [r4]
  87 0018 FFF7FEFF 		bl	USB_DisableGlobalInt
  88              	.LVL3:
 172:Drivers/STM32F0xx_HAL_Driver/Src/stm32f0xx_hal_pcd.c ****   {
  89              		.loc 1 172 3 view .LVU15
 172:Drivers/STM32F0xx_HAL_Driver/Src/stm32f0xx_hal_pcd.c ****   {
  90              		.loc 1 172 10 is_stmt 0 view .LVU16
  91 001c 0023     		movs	r3, #0
  92              	.LVL4:
  93              	.L5:
 172:Drivers/STM32F0xx_HAL_Driver/Src/stm32f0xx_hal_pcd.c ****   {
  94              		.loc 1 172 16 is_stmt 1 discriminator 1 view .LVU17
 172:Drivers/STM32F0xx_HAL_Driver/Src/stm32f0xx_hal_pcd.c ****   {
  95              		.loc 1 172 30 is_stmt 0 discriminator 1 view .LVU18
  96 001e 6068     		ldr	r0, [r4, #4]
 172:Drivers/STM32F0xx_HAL_Driver/Src/stm32f0xx_hal_pcd.c ****   {
  97              		.loc 1 172 3 discriminator 1 view .LVU19
  98 0020 8342     		cmp	r3, r0
  99 0022 1BD2     		bcs	.L12
 175:Drivers/STM32F0xx_HAL_Driver/Src/stm32f0xx_hal_pcd.c ****     hpcd->IN_ep[i].num = i;
 100              		.loc 1 175 5 is_stmt 1 discriminator 3 view .LVU20
 175:Drivers/STM32F0xx_HAL_Driver/Src/stm32f0xx_hal_pcd.c ****     hpcd->IN_ep[i].num = i;
 101              		.loc 1 175 26 is_stmt 0 discriminator 3 view .LVU21
 102 0024 5A01     		lsls	r2, r3, #5
 103 0026 A218     		adds	r2, r4, r2
 104 0028 1100     		movs	r1, r2
 105 002a 2931     		adds	r1, r1, #41
 106 002c 0120     		movs	r0, #1
 107 002e 0870     		strb	r0, [r1]
 176:Drivers/STM32F0xx_HAL_Driver/Src/stm32f0xx_hal_pcd.c ****     hpcd->IN_ep[i].tx_fifo_num = i;
 108              		.loc 1 176 5 is_stmt 1 discriminator 3 view .LVU22
 176:Drivers/STM32F0xx_HAL_Driver/Src/stm32f0xx_hal_pcd.c ****     hpcd->IN_ep[i].tx_fifo_num = i;
 109              		.loc 1 176 24 is_stmt 0 discriminator 3 view .LVU23
 110 0030 0139     		subs	r1, r1, #1
 111 0032 0B70     		strb	r3, [r1]
 177:Drivers/STM32F0xx_HAL_Driver/Src/stm32f0xx_hal_pcd.c ****     /* Control until ep is activated */
 112              		.loc 1 177 5 is_stmt 1 discriminator 3 view .LVU24
 177:Drivers/STM32F0xx_HAL_Driver/Src/stm32f0xx_hal_pcd.c ****     /* Control until ep is activated */
 113              		.loc 1 177 32 is_stmt 0 discriminator 3 view .LVU25
 114 0034 D386     		strh	r3, [r2, #54]
 179:Drivers/STM32F0xx_HAL_Driver/Src/stm32f0xx_hal_pcd.c ****     hpcd->IN_ep[i].maxpacket = 0U;
 115              		.loc 1 179 5 is_stmt 1 discriminator 3 view .LVU26
 179:Drivers/STM32F0xx_HAL_Driver/Src/stm32f0xx_hal_pcd.c ****     hpcd->IN_ep[i].maxpacket = 0U;
 116              		.loc 1 179 25 is_stmt 0 discriminator 3 view .LVU27
 117 0036 1000     		movs	r0, r2
ARM GAS  /tmp/ccrcqutw.s 			page 8


 118 0038 2B30     		adds	r0, r0, #43
 119 003a 0021     		movs	r1, #0
 120 003c 0170     		strb	r1, [r0]
 180:Drivers/STM32F0xx_HAL_Driver/Src/stm32f0xx_hal_pcd.c ****     hpcd->IN_ep[i].xfer_buff = 0U;
 121              		.loc 1 180 5 is_stmt 1 discriminator 3 view .LVU28
 180:Drivers/STM32F0xx_HAL_Driver/Src/stm32f0xx_hal_pcd.c ****     hpcd->IN_ep[i].xfer_buff = 0U;
 122              		.loc 1 180 30 is_stmt 0 discriminator 3 view .LVU29
 123 003e 9163     		str	r1, [r2, #56]
 181:Drivers/STM32F0xx_HAL_Driver/Src/stm32f0xx_hal_pcd.c ****     hpcd->IN_ep[i].xfer_len = 0U;
 124              		.loc 1 181 5 is_stmt 1 discriminator 3 view .LVU30
 181:Drivers/STM32F0xx_HAL_Driver/Src/stm32f0xx_hal_pcd.c ****     hpcd->IN_ep[i].xfer_len = 0U;
 125              		.loc 1 181 30 is_stmt 0 discriminator 3 view .LVU31
 126 0040 D163     		str	r1, [r2, #60]
 182:Drivers/STM32F0xx_HAL_Driver/Src/stm32f0xx_hal_pcd.c ****   }
 127              		.loc 1 182 5 is_stmt 1 discriminator 3 view .LVU32
 182:Drivers/STM32F0xx_HAL_Driver/Src/stm32f0xx_hal_pcd.c ****   }
 128              		.loc 1 182 29 is_stmt 0 discriminator 3 view .LVU33
 129 0042 9A1C     		adds	r2, r3, #2
 130 0044 5201     		lsls	r2, r2, #5
 131 0046 1151     		str	r1, [r2, r4]
 172:Drivers/STM32F0xx_HAL_Driver/Src/stm32f0xx_hal_pcd.c ****   {
 132              		.loc 1 172 46 is_stmt 1 discriminator 3 view .LVU34
 172:Drivers/STM32F0xx_HAL_Driver/Src/stm32f0xx_hal_pcd.c ****   {
 133              		.loc 1 172 47 is_stmt 0 discriminator 3 view .LVU35
 134 0048 0133     		adds	r3, r3, #1
 135              	.LVL5:
 172:Drivers/STM32F0xx_HAL_Driver/Src/stm32f0xx_hal_pcd.c ****   {
 136              		.loc 1 172 47 discriminator 3 view .LVU36
 137 004a DBB2     		uxtb	r3, r3
 138              	.LVL6:
 172:Drivers/STM32F0xx_HAL_Driver/Src/stm32f0xx_hal_pcd.c ****   {
 139              		.loc 1 172 47 discriminator 3 view .LVU37
 140 004c E7E7     		b	.L5
 141              	.LVL7:
 142              	.L11:
 136:Drivers/STM32F0xx_HAL_Driver/Src/stm32f0xx_hal_pcd.c **** 
 143              		.loc 1 136 5 is_stmt 1 view .LVU38
 136:Drivers/STM32F0xx_HAL_Driver/Src/stm32f0xx_hal_pcd.c **** 
 144              		.loc 1 136 16 is_stmt 0 view .LVU39
 145 004e 8A23     		movs	r3, #138
 146 0050 9B00     		lsls	r3, r3, #2
 147 0052 0022     		movs	r2, #0
 148 0054 C254     		strb	r2, [r0, r3]
 162:Drivers/STM32F0xx_HAL_Driver/Src/stm32f0xx_hal_pcd.c **** #endif /* (USE_HAL_PCD_REGISTER_CALLBACKS) */
 149              		.loc 1 162 5 is_stmt 1 view .LVU40
 150 0056 FFF7FEFF 		bl	HAL_PCD_MspInit
 151              	.LVL8:
 162:Drivers/STM32F0xx_HAL_Driver/Src/stm32f0xx_hal_pcd.c **** #endif /* (USE_HAL_PCD_REGISTER_CALLBACKS) */
 152              		.loc 1 162 5 is_stmt 0 view .LVU41
 153 005a D9E7     		b	.L4
 154              	.LVL9:
 155              	.L12:
 185:Drivers/STM32F0xx_HAL_Driver/Src/stm32f0xx_hal_pcd.c ****   {
 156              		.loc 1 185 10 view .LVU42
 157 005c 0022     		movs	r2, #0
 158 005e 15E0     		b	.L7
 159              	.LVL10:
ARM GAS  /tmp/ccrcqutw.s 			page 9


 160              	.L8:
 187:Drivers/STM32F0xx_HAL_Driver/Src/stm32f0xx_hal_pcd.c ****     hpcd->OUT_ep[i].num = i;
 161              		.loc 1 187 5 is_stmt 1 discriminator 3 view .LVU43
 187:Drivers/STM32F0xx_HAL_Driver/Src/stm32f0xx_hal_pcd.c ****     hpcd->OUT_ep[i].num = i;
 162              		.loc 1 187 27 is_stmt 0 discriminator 3 view .LVU44
 163 0060 5301     		lsls	r3, r2, #5
 164 0062 E318     		adds	r3, r4, r3
 165 0064 1D00     		movs	r5, r3
 166 0066 2A35     		adds	r5, r5, #42
 167 0068 FF35     		adds	r5, r5, #255
 168 006a 0021     		movs	r1, #0
 169 006c 2970     		strb	r1, [r5]
 188:Drivers/STM32F0xx_HAL_Driver/Src/stm32f0xx_hal_pcd.c ****     /* Control until ep is activated */
 170              		.loc 1 188 5 is_stmt 1 discriminator 3 view .LVU45
 188:Drivers/STM32F0xx_HAL_Driver/Src/stm32f0xx_hal_pcd.c ****     /* Control until ep is activated */
 171              		.loc 1 188 25 is_stmt 0 discriminator 3 view .LVU46
 172 006e 013D     		subs	r5, r5, #1
 173 0070 2A70     		strb	r2, [r5]
 190:Drivers/STM32F0xx_HAL_Driver/Src/stm32f0xx_hal_pcd.c ****     hpcd->OUT_ep[i].maxpacket = 0U;
 174              		.loc 1 190 5 is_stmt 1 discriminator 3 view .LVU47
 190:Drivers/STM32F0xx_HAL_Driver/Src/stm32f0xx_hal_pcd.c ****     hpcd->OUT_ep[i].maxpacket = 0U;
 175              		.loc 1 190 26 is_stmt 0 discriminator 3 view .LVU48
 176 0072 0335     		adds	r5, r5, #3
 177 0074 2970     		strb	r1, [r5]
 191:Drivers/STM32F0xx_HAL_Driver/Src/stm32f0xx_hal_pcd.c ****     hpcd->OUT_ep[i].xfer_buff = 0U;
 178              		.loc 1 191 5 is_stmt 1 discriminator 3 view .LVU49
 191:Drivers/STM32F0xx_HAL_Driver/Src/stm32f0xx_hal_pcd.c ****     hpcd->OUT_ep[i].xfer_buff = 0U;
 179              		.loc 1 191 31 is_stmt 0 discriminator 3 view .LVU50
 180 0076 0D35     		adds	r5, r5, #13
 181 0078 2960     		str	r1, [r5]
 192:Drivers/STM32F0xx_HAL_Driver/Src/stm32f0xx_hal_pcd.c ****     hpcd->OUT_ep[i].xfer_len = 0U;
 182              		.loc 1 192 5 is_stmt 1 discriminator 3 view .LVU51
 192:Drivers/STM32F0xx_HAL_Driver/Src/stm32f0xx_hal_pcd.c ****     hpcd->OUT_ep[i].xfer_len = 0U;
 183              		.loc 1 192 31 is_stmt 0 discriminator 3 view .LVU52
 184 007a 3D33     		adds	r3, r3, #61
 185 007c FF33     		adds	r3, r3, #255
 186 007e 1960     		str	r1, [r3]
 193:Drivers/STM32F0xx_HAL_Driver/Src/stm32f0xx_hal_pcd.c ****   }
 187              		.loc 1 193 5 is_stmt 1 discriminator 3 view .LVU53
 193:Drivers/STM32F0xx_HAL_Driver/Src/stm32f0xx_hal_pcd.c ****   }
 188              		.loc 1 193 30 is_stmt 0 discriminator 3 view .LVU54
 189 0080 1300     		movs	r3, r2
 190 0082 0A33     		adds	r3, r3, #10
 191 0084 5B01     		lsls	r3, r3, #5
 192 0086 1951     		str	r1, [r3, r4]
 185:Drivers/STM32F0xx_HAL_Driver/Src/stm32f0xx_hal_pcd.c ****   {
 193              		.loc 1 185 46 is_stmt 1 discriminator 3 view .LVU55
 185:Drivers/STM32F0xx_HAL_Driver/Src/stm32f0xx_hal_pcd.c ****   {
 194              		.loc 1 185 47 is_stmt 0 discriminator 3 view .LVU56
 195 0088 0132     		adds	r2, r2, #1
 196              	.LVL11:
 185:Drivers/STM32F0xx_HAL_Driver/Src/stm32f0xx_hal_pcd.c ****   {
 197              		.loc 1 185 47 discriminator 3 view .LVU57
 198 008a D2B2     		uxtb	r2, r2
 199              	.LVL12:
 200              	.L7:
 185:Drivers/STM32F0xx_HAL_Driver/Src/stm32f0xx_hal_pcd.c ****   {
ARM GAS  /tmp/ccrcqutw.s 			page 10


 201              		.loc 1 185 16 is_stmt 1 discriminator 1 view .LVU58
 185:Drivers/STM32F0xx_HAL_Driver/Src/stm32f0xx_hal_pcd.c ****   {
 202              		.loc 1 185 3 is_stmt 0 discriminator 1 view .LVU59
 203 008c 9042     		cmp	r0, r2
 204 008e E7D8     		bhi	.L8
 197:Drivers/STM32F0xx_HAL_Driver/Src/stm32f0xx_hal_pcd.c **** 
 205              		.loc 1 197 3 is_stmt 1 view .LVU60
 197:Drivers/STM32F0xx_HAL_Driver/Src/stm32f0xx_hal_pcd.c **** 
 206              		.loc 1 197 9 is_stmt 0 view .LVU61
 207 0090 2300     		movs	r3, r4
 208 0092 1033     		adds	r3, r3, #16
 209 0094 6A46     		mov	r2, sp
 210              	.LVL13:
 197:Drivers/STM32F0xx_HAL_Driver/Src/stm32f0xx_hal_pcd.c **** 
 211              		.loc 1 197 9 view .LVU62
 212 0096 23CB     		ldmia	r3!, {r0, r1, r5}
 213 0098 23C2     		stmia	r2!, {r0, r1, r5}
 214 009a 03CB     		ldmia	r3!, {r0, r1}
 215 009c 03C2     		stmia	r2!, {r0, r1}
 216 009e 6168     		ldr	r1, [r4, #4]
 217 00a0 A268     		ldr	r2, [r4, #8]
 218 00a2 E368     		ldr	r3, [r4, #12]
 219 00a4 2068     		ldr	r0, [r4]
 220 00a6 FFF7FEFF 		bl	USB_DevInit
 221              	.LVL14:
 199:Drivers/STM32F0xx_HAL_Driver/Src/stm32f0xx_hal_pcd.c ****   hpcd->State = HAL_PCD_STATE_READY;
 222              		.loc 1 199 3 is_stmt 1 view .LVU63
 199:Drivers/STM32F0xx_HAL_Driver/Src/stm32f0xx_hal_pcd.c ****   hpcd->State = HAL_PCD_STATE_READY;
 223              		.loc 1 199 21 is_stmt 0 view .LVU64
 224 00aa 2423     		movs	r3, #36
 225 00ac 0022     		movs	r2, #0
 226 00ae E254     		strb	r2, [r4, r3]
 200:Drivers/STM32F0xx_HAL_Driver/Src/stm32f0xx_hal_pcd.c ****   
 227              		.loc 1 200 3 is_stmt 1 view .LVU65
 200:Drivers/STM32F0xx_HAL_Driver/Src/stm32f0xx_hal_pcd.c ****   
 228              		.loc 1 200 15 is_stmt 0 view .LVU66
 229 00b0 074B     		ldr	r3, .L14
 230 00b2 0132     		adds	r2, r2, #1
 231 00b4 E254     		strb	r2, [r4, r3]
 203:Drivers/STM32F0xx_HAL_Driver/Src/stm32f0xx_hal_pcd.c ****   {
 232              		.loc 1 203 3 is_stmt 1 view .LVU67
 203:Drivers/STM32F0xx_HAL_Driver/Src/stm32f0xx_hal_pcd.c ****   {
 233              		.loc 1 203 6 is_stmt 0 view .LVU68
 234 00b6 E369     		ldr	r3, [r4, #28]
 235 00b8 012B     		cmp	r3, #1
 236 00ba 02D0     		beq	.L13
 208:Drivers/STM32F0xx_HAL_Driver/Src/stm32f0xx_hal_pcd.c **** }
 237              		.loc 1 208 10 view .LVU69
 238 00bc 0020     		movs	r0, #0
 239              	.L3:
 209:Drivers/STM32F0xx_HAL_Driver/Src/stm32f0xx_hal_pcd.c **** 
 240              		.loc 1 209 1 view .LVU70
 241 00be 07B0     		add	sp, sp, #28
 242              		@ sp needed
 243              	.LVL15:
 209:Drivers/STM32F0xx_HAL_Driver/Src/stm32f0xx_hal_pcd.c **** 
 244              		.loc 1 209 1 view .LVU71
ARM GAS  /tmp/ccrcqutw.s 			page 11


 245 00c0 30BD     		pop	{r4, r5, pc}
 246              	.LVL16:
 247              	.L13:
 205:Drivers/STM32F0xx_HAL_Driver/Src/stm32f0xx_hal_pcd.c ****   }
 248              		.loc 1 205 5 is_stmt 1 view .LVU72
 205:Drivers/STM32F0xx_HAL_Driver/Src/stm32f0xx_hal_pcd.c ****   }
 249              		.loc 1 205 11 is_stmt 0 view .LVU73
 250 00c2 2000     		movs	r0, r4
 251 00c4 FFF7FEFF 		bl	HAL_PCDEx_ActivateLPM
 252              	.LVL17:
 208:Drivers/STM32F0xx_HAL_Driver/Src/stm32f0xx_hal_pcd.c **** }
 253              		.loc 1 208 10 view .LVU74
 254 00c8 0020     		movs	r0, #0
 255 00ca F8E7     		b	.L3
 256              	.LVL18:
 257              	.L9:
 127:Drivers/STM32F0xx_HAL_Driver/Src/stm32f0xx_hal_pcd.c ****   }
 258              		.loc 1 127 12 view .LVU75
 259 00cc 0120     		movs	r0, #1
 260              	.LVL19:
 127:Drivers/STM32F0xx_HAL_Driver/Src/stm32f0xx_hal_pcd.c ****   }
 261              		.loc 1 127 12 view .LVU76
 262 00ce F6E7     		b	.L3
 263              	.L15:
 264              		.align	2
 265              	.L14:
 266 00d0 29020000 		.word	553
 267              		.cfi_endproc
 268              	.LFE40:
 270              		.section	.text.HAL_PCD_MspDeInit,"ax",%progbits
 271              		.align	1
 272              		.weak	HAL_PCD_MspDeInit
 273              		.syntax unified
 274              		.code	16
 275              		.thumb_func
 276              		.fpu softvfp
 278              	HAL_PCD_MspDeInit:
 279              	.LVL20:
 280              	.LFB43:
 261:Drivers/STM32F0xx_HAL_Driver/Src/stm32f0xx_hal_pcd.c **** 
 262:Drivers/STM32F0xx_HAL_Driver/Src/stm32f0xx_hal_pcd.c **** /**
 263:Drivers/STM32F0xx_HAL_Driver/Src/stm32f0xx_hal_pcd.c ****   * @brief  DeInitializes PCD MSP.
 264:Drivers/STM32F0xx_HAL_Driver/Src/stm32f0xx_hal_pcd.c ****   * @param  hpcd PCD handle
 265:Drivers/STM32F0xx_HAL_Driver/Src/stm32f0xx_hal_pcd.c ****   * @retval None
 266:Drivers/STM32F0xx_HAL_Driver/Src/stm32f0xx_hal_pcd.c ****   */
 267:Drivers/STM32F0xx_HAL_Driver/Src/stm32f0xx_hal_pcd.c **** __weak void HAL_PCD_MspDeInit(PCD_HandleTypeDef *hpcd)
 268:Drivers/STM32F0xx_HAL_Driver/Src/stm32f0xx_hal_pcd.c **** {
 281              		.loc 1 268 1 is_stmt 1 view -0
 282              		.cfi_startproc
 283              		@ args = 0, pretend = 0, frame = 0
 284              		@ frame_needed = 0, uses_anonymous_args = 0
 285              		@ link register save eliminated.
 269:Drivers/STM32F0xx_HAL_Driver/Src/stm32f0xx_hal_pcd.c ****   /* Prevent unused argument(s) compilation warning */
 270:Drivers/STM32F0xx_HAL_Driver/Src/stm32f0xx_hal_pcd.c ****   UNUSED(hpcd);
 286              		.loc 1 270 3 view .LVU78
 271:Drivers/STM32F0xx_HAL_Driver/Src/stm32f0xx_hal_pcd.c **** 
 272:Drivers/STM32F0xx_HAL_Driver/Src/stm32f0xx_hal_pcd.c ****   /* NOTE : This function should not be modified, when the callback is needed,
ARM GAS  /tmp/ccrcqutw.s 			page 12


 273:Drivers/STM32F0xx_HAL_Driver/Src/stm32f0xx_hal_pcd.c ****             the HAL_PCD_MspDeInit could be implemented in the user file
 274:Drivers/STM32F0xx_HAL_Driver/Src/stm32f0xx_hal_pcd.c ****    */
 275:Drivers/STM32F0xx_HAL_Driver/Src/stm32f0xx_hal_pcd.c **** }
 287              		.loc 1 275 1 is_stmt 0 view .LVU79
 288              		@ sp needed
 289 0000 7047     		bx	lr
 290              		.cfi_endproc
 291              	.LFE43:
 293              		.section	.text.HAL_PCD_Start,"ax",%progbits
 294              		.align	1
 295              		.global	HAL_PCD_Start
 296              		.syntax unified
 297              		.code	16
 298              		.thumb_func
 299              		.fpu softvfp
 301              	HAL_PCD_Start:
 302              	.LVL21:
 303              	.LFB44:
 276:Drivers/STM32F0xx_HAL_Driver/Src/stm32f0xx_hal_pcd.c **** 
 277:Drivers/STM32F0xx_HAL_Driver/Src/stm32f0xx_hal_pcd.c **** #if (USE_HAL_PCD_REGISTER_CALLBACKS == 1U)
 278:Drivers/STM32F0xx_HAL_Driver/Src/stm32f0xx_hal_pcd.c **** /**
 279:Drivers/STM32F0xx_HAL_Driver/Src/stm32f0xx_hal_pcd.c ****   * @brief  Register a User USB PCD Callback
 280:Drivers/STM32F0xx_HAL_Driver/Src/stm32f0xx_hal_pcd.c ****   *         To be used instead of the weak predefined callback
 281:Drivers/STM32F0xx_HAL_Driver/Src/stm32f0xx_hal_pcd.c ****   * @param  hpcd USB PCD handle
 282:Drivers/STM32F0xx_HAL_Driver/Src/stm32f0xx_hal_pcd.c ****   * @param  CallbackID ID of the callback to be registered
 283:Drivers/STM32F0xx_HAL_Driver/Src/stm32f0xx_hal_pcd.c ****   *         This parameter can be one of the following values:
 284:Drivers/STM32F0xx_HAL_Driver/Src/stm32f0xx_hal_pcd.c ****   *          @arg @ref HAL_PCD_SOF_CB_ID USB PCD SOF callback ID
 285:Drivers/STM32F0xx_HAL_Driver/Src/stm32f0xx_hal_pcd.c ****   *          @arg @ref HAL_PCD_SETUPSTAGE_CB_ID USB PCD Setup callback ID
 286:Drivers/STM32F0xx_HAL_Driver/Src/stm32f0xx_hal_pcd.c ****   *          @arg @ref HAL_PCD_RESET_CB_ID USB PCD Reset callback ID
 287:Drivers/STM32F0xx_HAL_Driver/Src/stm32f0xx_hal_pcd.c ****   *          @arg @ref HAL_PCD_SUSPEND_CB_ID USB PCD Suspend callback ID
 288:Drivers/STM32F0xx_HAL_Driver/Src/stm32f0xx_hal_pcd.c ****   *          @arg @ref HAL_PCD_RESUME_CB_ID USB PCD Resume callback ID
 289:Drivers/STM32F0xx_HAL_Driver/Src/stm32f0xx_hal_pcd.c ****   *          @arg @ref HAL_PCD_CONNECT_CB_ID USB PCD Connect callback ID
 290:Drivers/STM32F0xx_HAL_Driver/Src/stm32f0xx_hal_pcd.c ****   *          @arg @ref HAL_PCD_DISCONNECT_CB_ID OTG PCD Disconnect callback ID
 291:Drivers/STM32F0xx_HAL_Driver/Src/stm32f0xx_hal_pcd.c ****   *          @arg @ref HAL_PCD_MSPINIT_CB_ID MspDeInit callback ID
 292:Drivers/STM32F0xx_HAL_Driver/Src/stm32f0xx_hal_pcd.c ****   *          @arg @ref HAL_PCD_MSPDEINIT_CB_ID MspDeInit callback ID
 293:Drivers/STM32F0xx_HAL_Driver/Src/stm32f0xx_hal_pcd.c ****   * @param  pCallback pointer to the Callback function
 294:Drivers/STM32F0xx_HAL_Driver/Src/stm32f0xx_hal_pcd.c ****   * @retval HAL status
 295:Drivers/STM32F0xx_HAL_Driver/Src/stm32f0xx_hal_pcd.c ****   */
 296:Drivers/STM32F0xx_HAL_Driver/Src/stm32f0xx_hal_pcd.c **** HAL_StatusTypeDef HAL_PCD_RegisterCallback(PCD_HandleTypeDef *hpcd, HAL_PCD_CallbackIDTypeDef Callb
 297:Drivers/STM32F0xx_HAL_Driver/Src/stm32f0xx_hal_pcd.c **** {
 298:Drivers/STM32F0xx_HAL_Driver/Src/stm32f0xx_hal_pcd.c ****   HAL_StatusTypeDef status = HAL_OK;
 299:Drivers/STM32F0xx_HAL_Driver/Src/stm32f0xx_hal_pcd.c **** 
 300:Drivers/STM32F0xx_HAL_Driver/Src/stm32f0xx_hal_pcd.c ****   if (pCallback == NULL)
 301:Drivers/STM32F0xx_HAL_Driver/Src/stm32f0xx_hal_pcd.c ****   {
 302:Drivers/STM32F0xx_HAL_Driver/Src/stm32f0xx_hal_pcd.c ****     /* Update the error code */
 303:Drivers/STM32F0xx_HAL_Driver/Src/stm32f0xx_hal_pcd.c ****     hpcd->ErrorCode |= HAL_PCD_ERROR_INVALID_CALLBACK;
 304:Drivers/STM32F0xx_HAL_Driver/Src/stm32f0xx_hal_pcd.c ****     return HAL_ERROR;
 305:Drivers/STM32F0xx_HAL_Driver/Src/stm32f0xx_hal_pcd.c ****   }
 306:Drivers/STM32F0xx_HAL_Driver/Src/stm32f0xx_hal_pcd.c ****   /* Process locked */
 307:Drivers/STM32F0xx_HAL_Driver/Src/stm32f0xx_hal_pcd.c ****   __HAL_LOCK(hpcd);
 308:Drivers/STM32F0xx_HAL_Driver/Src/stm32f0xx_hal_pcd.c **** 
 309:Drivers/STM32F0xx_HAL_Driver/Src/stm32f0xx_hal_pcd.c ****   if (hpcd->State == HAL_PCD_STATE_READY)
 310:Drivers/STM32F0xx_HAL_Driver/Src/stm32f0xx_hal_pcd.c ****   {
 311:Drivers/STM32F0xx_HAL_Driver/Src/stm32f0xx_hal_pcd.c ****     switch (CallbackID)
 312:Drivers/STM32F0xx_HAL_Driver/Src/stm32f0xx_hal_pcd.c ****     {
 313:Drivers/STM32F0xx_HAL_Driver/Src/stm32f0xx_hal_pcd.c ****       case HAL_PCD_SOF_CB_ID :
 314:Drivers/STM32F0xx_HAL_Driver/Src/stm32f0xx_hal_pcd.c ****         hpcd->SOFCallback = pCallback;
ARM GAS  /tmp/ccrcqutw.s 			page 13


 315:Drivers/STM32F0xx_HAL_Driver/Src/stm32f0xx_hal_pcd.c ****         break;
 316:Drivers/STM32F0xx_HAL_Driver/Src/stm32f0xx_hal_pcd.c **** 
 317:Drivers/STM32F0xx_HAL_Driver/Src/stm32f0xx_hal_pcd.c ****       case HAL_PCD_SETUPSTAGE_CB_ID :
 318:Drivers/STM32F0xx_HAL_Driver/Src/stm32f0xx_hal_pcd.c ****         hpcd->SetupStageCallback = pCallback;
 319:Drivers/STM32F0xx_HAL_Driver/Src/stm32f0xx_hal_pcd.c ****         break;
 320:Drivers/STM32F0xx_HAL_Driver/Src/stm32f0xx_hal_pcd.c **** 
 321:Drivers/STM32F0xx_HAL_Driver/Src/stm32f0xx_hal_pcd.c ****       case HAL_PCD_RESET_CB_ID :
 322:Drivers/STM32F0xx_HAL_Driver/Src/stm32f0xx_hal_pcd.c ****         hpcd->ResetCallback = pCallback;
 323:Drivers/STM32F0xx_HAL_Driver/Src/stm32f0xx_hal_pcd.c ****         break;
 324:Drivers/STM32F0xx_HAL_Driver/Src/stm32f0xx_hal_pcd.c **** 
 325:Drivers/STM32F0xx_HAL_Driver/Src/stm32f0xx_hal_pcd.c ****       case HAL_PCD_SUSPEND_CB_ID :
 326:Drivers/STM32F0xx_HAL_Driver/Src/stm32f0xx_hal_pcd.c ****         hpcd->SuspendCallback = pCallback;
 327:Drivers/STM32F0xx_HAL_Driver/Src/stm32f0xx_hal_pcd.c ****         break;
 328:Drivers/STM32F0xx_HAL_Driver/Src/stm32f0xx_hal_pcd.c **** 
 329:Drivers/STM32F0xx_HAL_Driver/Src/stm32f0xx_hal_pcd.c ****       case HAL_PCD_RESUME_CB_ID :
 330:Drivers/STM32F0xx_HAL_Driver/Src/stm32f0xx_hal_pcd.c ****         hpcd->ResumeCallback = pCallback;
 331:Drivers/STM32F0xx_HAL_Driver/Src/stm32f0xx_hal_pcd.c ****         break;
 332:Drivers/STM32F0xx_HAL_Driver/Src/stm32f0xx_hal_pcd.c **** 
 333:Drivers/STM32F0xx_HAL_Driver/Src/stm32f0xx_hal_pcd.c ****       case HAL_PCD_CONNECT_CB_ID :
 334:Drivers/STM32F0xx_HAL_Driver/Src/stm32f0xx_hal_pcd.c ****         hpcd->ConnectCallback = pCallback;
 335:Drivers/STM32F0xx_HAL_Driver/Src/stm32f0xx_hal_pcd.c ****         break;
 336:Drivers/STM32F0xx_HAL_Driver/Src/stm32f0xx_hal_pcd.c **** 
 337:Drivers/STM32F0xx_HAL_Driver/Src/stm32f0xx_hal_pcd.c ****       case HAL_PCD_DISCONNECT_CB_ID :
 338:Drivers/STM32F0xx_HAL_Driver/Src/stm32f0xx_hal_pcd.c ****         hpcd->DisconnectCallback = pCallback;
 339:Drivers/STM32F0xx_HAL_Driver/Src/stm32f0xx_hal_pcd.c ****         break;
 340:Drivers/STM32F0xx_HAL_Driver/Src/stm32f0xx_hal_pcd.c **** 
 341:Drivers/STM32F0xx_HAL_Driver/Src/stm32f0xx_hal_pcd.c ****       case HAL_PCD_MSPINIT_CB_ID :
 342:Drivers/STM32F0xx_HAL_Driver/Src/stm32f0xx_hal_pcd.c ****         hpcd->MspInitCallback = pCallback;
 343:Drivers/STM32F0xx_HAL_Driver/Src/stm32f0xx_hal_pcd.c ****         break;
 344:Drivers/STM32F0xx_HAL_Driver/Src/stm32f0xx_hal_pcd.c **** 
 345:Drivers/STM32F0xx_HAL_Driver/Src/stm32f0xx_hal_pcd.c ****       case HAL_PCD_MSPDEINIT_CB_ID :
 346:Drivers/STM32F0xx_HAL_Driver/Src/stm32f0xx_hal_pcd.c ****         hpcd->MspDeInitCallback = pCallback;
 347:Drivers/STM32F0xx_HAL_Driver/Src/stm32f0xx_hal_pcd.c ****         break;
 348:Drivers/STM32F0xx_HAL_Driver/Src/stm32f0xx_hal_pcd.c **** 
 349:Drivers/STM32F0xx_HAL_Driver/Src/stm32f0xx_hal_pcd.c ****       default :
 350:Drivers/STM32F0xx_HAL_Driver/Src/stm32f0xx_hal_pcd.c ****         /* Update the error code */
 351:Drivers/STM32F0xx_HAL_Driver/Src/stm32f0xx_hal_pcd.c ****         hpcd->ErrorCode |= HAL_PCD_ERROR_INVALID_CALLBACK;
 352:Drivers/STM32F0xx_HAL_Driver/Src/stm32f0xx_hal_pcd.c ****         /* Return error status */
 353:Drivers/STM32F0xx_HAL_Driver/Src/stm32f0xx_hal_pcd.c ****         status =  HAL_ERROR;
 354:Drivers/STM32F0xx_HAL_Driver/Src/stm32f0xx_hal_pcd.c ****         break;
 355:Drivers/STM32F0xx_HAL_Driver/Src/stm32f0xx_hal_pcd.c ****     }
 356:Drivers/STM32F0xx_HAL_Driver/Src/stm32f0xx_hal_pcd.c ****   }
 357:Drivers/STM32F0xx_HAL_Driver/Src/stm32f0xx_hal_pcd.c ****   else if (hpcd->State == HAL_PCD_STATE_RESET)
 358:Drivers/STM32F0xx_HAL_Driver/Src/stm32f0xx_hal_pcd.c ****   {
 359:Drivers/STM32F0xx_HAL_Driver/Src/stm32f0xx_hal_pcd.c ****     switch (CallbackID)
 360:Drivers/STM32F0xx_HAL_Driver/Src/stm32f0xx_hal_pcd.c ****     {
 361:Drivers/STM32F0xx_HAL_Driver/Src/stm32f0xx_hal_pcd.c ****       case HAL_PCD_MSPINIT_CB_ID :
 362:Drivers/STM32F0xx_HAL_Driver/Src/stm32f0xx_hal_pcd.c ****         hpcd->MspInitCallback = pCallback;
 363:Drivers/STM32F0xx_HAL_Driver/Src/stm32f0xx_hal_pcd.c ****         break;
 364:Drivers/STM32F0xx_HAL_Driver/Src/stm32f0xx_hal_pcd.c **** 
 365:Drivers/STM32F0xx_HAL_Driver/Src/stm32f0xx_hal_pcd.c ****       case HAL_PCD_MSPDEINIT_CB_ID :
 366:Drivers/STM32F0xx_HAL_Driver/Src/stm32f0xx_hal_pcd.c ****         hpcd->MspDeInitCallback = pCallback;
 367:Drivers/STM32F0xx_HAL_Driver/Src/stm32f0xx_hal_pcd.c ****         break;
 368:Drivers/STM32F0xx_HAL_Driver/Src/stm32f0xx_hal_pcd.c **** 
 369:Drivers/STM32F0xx_HAL_Driver/Src/stm32f0xx_hal_pcd.c ****       default :
 370:Drivers/STM32F0xx_HAL_Driver/Src/stm32f0xx_hal_pcd.c ****         /* Update the error code */
 371:Drivers/STM32F0xx_HAL_Driver/Src/stm32f0xx_hal_pcd.c ****         hpcd->ErrorCode |= HAL_PCD_ERROR_INVALID_CALLBACK;
ARM GAS  /tmp/ccrcqutw.s 			page 14


 372:Drivers/STM32F0xx_HAL_Driver/Src/stm32f0xx_hal_pcd.c ****         /* Return error status */
 373:Drivers/STM32F0xx_HAL_Driver/Src/stm32f0xx_hal_pcd.c ****         status =  HAL_ERROR;
 374:Drivers/STM32F0xx_HAL_Driver/Src/stm32f0xx_hal_pcd.c ****         break;
 375:Drivers/STM32F0xx_HAL_Driver/Src/stm32f0xx_hal_pcd.c ****     }
 376:Drivers/STM32F0xx_HAL_Driver/Src/stm32f0xx_hal_pcd.c ****   }
 377:Drivers/STM32F0xx_HAL_Driver/Src/stm32f0xx_hal_pcd.c ****   else
 378:Drivers/STM32F0xx_HAL_Driver/Src/stm32f0xx_hal_pcd.c ****   {
 379:Drivers/STM32F0xx_HAL_Driver/Src/stm32f0xx_hal_pcd.c ****     /* Update the error code */
 380:Drivers/STM32F0xx_HAL_Driver/Src/stm32f0xx_hal_pcd.c ****     hpcd->ErrorCode |= HAL_PCD_ERROR_INVALID_CALLBACK;
 381:Drivers/STM32F0xx_HAL_Driver/Src/stm32f0xx_hal_pcd.c ****     /* Return error status */
 382:Drivers/STM32F0xx_HAL_Driver/Src/stm32f0xx_hal_pcd.c ****     status =  HAL_ERROR;
 383:Drivers/STM32F0xx_HAL_Driver/Src/stm32f0xx_hal_pcd.c ****   }
 384:Drivers/STM32F0xx_HAL_Driver/Src/stm32f0xx_hal_pcd.c **** 
 385:Drivers/STM32F0xx_HAL_Driver/Src/stm32f0xx_hal_pcd.c ****   /* Release Lock */
 386:Drivers/STM32F0xx_HAL_Driver/Src/stm32f0xx_hal_pcd.c ****   __HAL_UNLOCK(hpcd);
 387:Drivers/STM32F0xx_HAL_Driver/Src/stm32f0xx_hal_pcd.c ****   return status;
 388:Drivers/STM32F0xx_HAL_Driver/Src/stm32f0xx_hal_pcd.c **** }
 389:Drivers/STM32F0xx_HAL_Driver/Src/stm32f0xx_hal_pcd.c **** 
 390:Drivers/STM32F0xx_HAL_Driver/Src/stm32f0xx_hal_pcd.c **** /**
 391:Drivers/STM32F0xx_HAL_Driver/Src/stm32f0xx_hal_pcd.c ****   * @brief  Unregister an USB PCD Callback
 392:Drivers/STM32F0xx_HAL_Driver/Src/stm32f0xx_hal_pcd.c ****   *         USB PCD callabck is redirected to the weak predefined callback
 393:Drivers/STM32F0xx_HAL_Driver/Src/stm32f0xx_hal_pcd.c ****   * @param  hpcd USB PCD handle
 394:Drivers/STM32F0xx_HAL_Driver/Src/stm32f0xx_hal_pcd.c ****   * @param  CallbackID ID of the callback to be unregistered
 395:Drivers/STM32F0xx_HAL_Driver/Src/stm32f0xx_hal_pcd.c ****   *         This parameter can be one of the following values:
 396:Drivers/STM32F0xx_HAL_Driver/Src/stm32f0xx_hal_pcd.c ****   *          @arg @ref HAL_PCD_SOF_CB_ID USB PCD SOF callback ID
 397:Drivers/STM32F0xx_HAL_Driver/Src/stm32f0xx_hal_pcd.c ****   *          @arg @ref HAL_PCD_SETUPSTAGE_CB_ID USB PCD Setup callback ID
 398:Drivers/STM32F0xx_HAL_Driver/Src/stm32f0xx_hal_pcd.c ****   *          @arg @ref HAL_PCD_RESET_CB_ID USB PCD Reset callback ID
 399:Drivers/STM32F0xx_HAL_Driver/Src/stm32f0xx_hal_pcd.c ****   *          @arg @ref HAL_PCD_SUSPEND_CB_ID USB PCD Suspend callback ID
 400:Drivers/STM32F0xx_HAL_Driver/Src/stm32f0xx_hal_pcd.c ****   *          @arg @ref HAL_PCD_RESUME_CB_ID USB PCD Resume callback ID
 401:Drivers/STM32F0xx_HAL_Driver/Src/stm32f0xx_hal_pcd.c ****   *          @arg @ref HAL_PCD_CONNECT_CB_ID USB PCD Connect callback ID
 402:Drivers/STM32F0xx_HAL_Driver/Src/stm32f0xx_hal_pcd.c ****   *          @arg @ref HAL_PCD_DISCONNECT_CB_ID OTG PCD Disconnect callback ID
 403:Drivers/STM32F0xx_HAL_Driver/Src/stm32f0xx_hal_pcd.c ****   *          @arg @ref HAL_PCD_MSPINIT_CB_ID MspDeInit callback ID
 404:Drivers/STM32F0xx_HAL_Driver/Src/stm32f0xx_hal_pcd.c ****   *          @arg @ref HAL_PCD_MSPDEINIT_CB_ID MspDeInit callback ID
 405:Drivers/STM32F0xx_HAL_Driver/Src/stm32f0xx_hal_pcd.c ****   * @retval HAL status
 406:Drivers/STM32F0xx_HAL_Driver/Src/stm32f0xx_hal_pcd.c ****   */
 407:Drivers/STM32F0xx_HAL_Driver/Src/stm32f0xx_hal_pcd.c **** HAL_StatusTypeDef HAL_PCD_UnRegisterCallback(PCD_HandleTypeDef *hpcd, HAL_PCD_CallbackIDTypeDef Cal
 408:Drivers/STM32F0xx_HAL_Driver/Src/stm32f0xx_hal_pcd.c **** {
 409:Drivers/STM32F0xx_HAL_Driver/Src/stm32f0xx_hal_pcd.c ****   HAL_StatusTypeDef status = HAL_OK;
 410:Drivers/STM32F0xx_HAL_Driver/Src/stm32f0xx_hal_pcd.c **** 
 411:Drivers/STM32F0xx_HAL_Driver/Src/stm32f0xx_hal_pcd.c ****   /* Process locked */
 412:Drivers/STM32F0xx_HAL_Driver/Src/stm32f0xx_hal_pcd.c ****   __HAL_LOCK(hpcd);
 413:Drivers/STM32F0xx_HAL_Driver/Src/stm32f0xx_hal_pcd.c **** 
 414:Drivers/STM32F0xx_HAL_Driver/Src/stm32f0xx_hal_pcd.c ****   /* Setup Legacy weak Callbacks  */
 415:Drivers/STM32F0xx_HAL_Driver/Src/stm32f0xx_hal_pcd.c ****   if (hpcd->State == HAL_PCD_STATE_READY)
 416:Drivers/STM32F0xx_HAL_Driver/Src/stm32f0xx_hal_pcd.c ****   {
 417:Drivers/STM32F0xx_HAL_Driver/Src/stm32f0xx_hal_pcd.c ****     switch (CallbackID)
 418:Drivers/STM32F0xx_HAL_Driver/Src/stm32f0xx_hal_pcd.c ****     {
 419:Drivers/STM32F0xx_HAL_Driver/Src/stm32f0xx_hal_pcd.c ****       case HAL_PCD_SOF_CB_ID :
 420:Drivers/STM32F0xx_HAL_Driver/Src/stm32f0xx_hal_pcd.c ****         hpcd->SOFCallback = HAL_PCD_SOFCallback;
 421:Drivers/STM32F0xx_HAL_Driver/Src/stm32f0xx_hal_pcd.c ****         break;
 422:Drivers/STM32F0xx_HAL_Driver/Src/stm32f0xx_hal_pcd.c **** 
 423:Drivers/STM32F0xx_HAL_Driver/Src/stm32f0xx_hal_pcd.c ****       case HAL_PCD_SETUPSTAGE_CB_ID :
 424:Drivers/STM32F0xx_HAL_Driver/Src/stm32f0xx_hal_pcd.c ****         hpcd->SetupStageCallback = HAL_PCD_SetupStageCallback;
 425:Drivers/STM32F0xx_HAL_Driver/Src/stm32f0xx_hal_pcd.c ****         break;
 426:Drivers/STM32F0xx_HAL_Driver/Src/stm32f0xx_hal_pcd.c **** 
 427:Drivers/STM32F0xx_HAL_Driver/Src/stm32f0xx_hal_pcd.c ****       case HAL_PCD_RESET_CB_ID :
 428:Drivers/STM32F0xx_HAL_Driver/Src/stm32f0xx_hal_pcd.c ****         hpcd->ResetCallback = HAL_PCD_ResetCallback;
ARM GAS  /tmp/ccrcqutw.s 			page 15


 429:Drivers/STM32F0xx_HAL_Driver/Src/stm32f0xx_hal_pcd.c ****         break;
 430:Drivers/STM32F0xx_HAL_Driver/Src/stm32f0xx_hal_pcd.c **** 
 431:Drivers/STM32F0xx_HAL_Driver/Src/stm32f0xx_hal_pcd.c ****       case HAL_PCD_SUSPEND_CB_ID :
 432:Drivers/STM32F0xx_HAL_Driver/Src/stm32f0xx_hal_pcd.c ****         hpcd->SuspendCallback = HAL_PCD_SuspendCallback;
 433:Drivers/STM32F0xx_HAL_Driver/Src/stm32f0xx_hal_pcd.c ****         break;
 434:Drivers/STM32F0xx_HAL_Driver/Src/stm32f0xx_hal_pcd.c **** 
 435:Drivers/STM32F0xx_HAL_Driver/Src/stm32f0xx_hal_pcd.c ****       case HAL_PCD_RESUME_CB_ID :
 436:Drivers/STM32F0xx_HAL_Driver/Src/stm32f0xx_hal_pcd.c ****         hpcd->ResumeCallback = HAL_PCD_ResumeCallback;
 437:Drivers/STM32F0xx_HAL_Driver/Src/stm32f0xx_hal_pcd.c ****         break;
 438:Drivers/STM32F0xx_HAL_Driver/Src/stm32f0xx_hal_pcd.c **** 
 439:Drivers/STM32F0xx_HAL_Driver/Src/stm32f0xx_hal_pcd.c ****       case HAL_PCD_CONNECT_CB_ID :
 440:Drivers/STM32F0xx_HAL_Driver/Src/stm32f0xx_hal_pcd.c ****         hpcd->ConnectCallback = HAL_PCD_ConnectCallback;
 441:Drivers/STM32F0xx_HAL_Driver/Src/stm32f0xx_hal_pcd.c ****         break;
 442:Drivers/STM32F0xx_HAL_Driver/Src/stm32f0xx_hal_pcd.c **** 
 443:Drivers/STM32F0xx_HAL_Driver/Src/stm32f0xx_hal_pcd.c ****       case HAL_PCD_DISCONNECT_CB_ID :
 444:Drivers/STM32F0xx_HAL_Driver/Src/stm32f0xx_hal_pcd.c ****         hpcd->DisconnectCallback = HAL_PCD_DisconnectCallback;
 445:Drivers/STM32F0xx_HAL_Driver/Src/stm32f0xx_hal_pcd.c ****         break;
 446:Drivers/STM32F0xx_HAL_Driver/Src/stm32f0xx_hal_pcd.c **** 
 447:Drivers/STM32F0xx_HAL_Driver/Src/stm32f0xx_hal_pcd.c ****       case HAL_PCD_MSPINIT_CB_ID :
 448:Drivers/STM32F0xx_HAL_Driver/Src/stm32f0xx_hal_pcd.c ****         hpcd->MspInitCallback = HAL_PCD_MspInit;
 449:Drivers/STM32F0xx_HAL_Driver/Src/stm32f0xx_hal_pcd.c ****         break;
 450:Drivers/STM32F0xx_HAL_Driver/Src/stm32f0xx_hal_pcd.c **** 
 451:Drivers/STM32F0xx_HAL_Driver/Src/stm32f0xx_hal_pcd.c ****       case HAL_PCD_MSPDEINIT_CB_ID :
 452:Drivers/STM32F0xx_HAL_Driver/Src/stm32f0xx_hal_pcd.c ****         hpcd->MspDeInitCallback = HAL_PCD_MspDeInit;
 453:Drivers/STM32F0xx_HAL_Driver/Src/stm32f0xx_hal_pcd.c ****         break;
 454:Drivers/STM32F0xx_HAL_Driver/Src/stm32f0xx_hal_pcd.c **** 
 455:Drivers/STM32F0xx_HAL_Driver/Src/stm32f0xx_hal_pcd.c ****       default :
 456:Drivers/STM32F0xx_HAL_Driver/Src/stm32f0xx_hal_pcd.c ****         /* Update the error code */
 457:Drivers/STM32F0xx_HAL_Driver/Src/stm32f0xx_hal_pcd.c ****         hpcd->ErrorCode |= HAL_PCD_ERROR_INVALID_CALLBACK;
 458:Drivers/STM32F0xx_HAL_Driver/Src/stm32f0xx_hal_pcd.c **** 
 459:Drivers/STM32F0xx_HAL_Driver/Src/stm32f0xx_hal_pcd.c ****         /* Return error status */
 460:Drivers/STM32F0xx_HAL_Driver/Src/stm32f0xx_hal_pcd.c ****         status =  HAL_ERROR;
 461:Drivers/STM32F0xx_HAL_Driver/Src/stm32f0xx_hal_pcd.c ****         break;
 462:Drivers/STM32F0xx_HAL_Driver/Src/stm32f0xx_hal_pcd.c ****     }
 463:Drivers/STM32F0xx_HAL_Driver/Src/stm32f0xx_hal_pcd.c ****   }
 464:Drivers/STM32F0xx_HAL_Driver/Src/stm32f0xx_hal_pcd.c ****   else if (hpcd->State == HAL_PCD_STATE_RESET)
 465:Drivers/STM32F0xx_HAL_Driver/Src/stm32f0xx_hal_pcd.c ****   {
 466:Drivers/STM32F0xx_HAL_Driver/Src/stm32f0xx_hal_pcd.c ****     switch (CallbackID)
 467:Drivers/STM32F0xx_HAL_Driver/Src/stm32f0xx_hal_pcd.c ****     {
 468:Drivers/STM32F0xx_HAL_Driver/Src/stm32f0xx_hal_pcd.c ****       case HAL_PCD_MSPINIT_CB_ID :
 469:Drivers/STM32F0xx_HAL_Driver/Src/stm32f0xx_hal_pcd.c ****         hpcd->MspInitCallback = HAL_PCD_MspInit;
 470:Drivers/STM32F0xx_HAL_Driver/Src/stm32f0xx_hal_pcd.c ****         break;
 471:Drivers/STM32F0xx_HAL_Driver/Src/stm32f0xx_hal_pcd.c **** 
 472:Drivers/STM32F0xx_HAL_Driver/Src/stm32f0xx_hal_pcd.c ****       case HAL_PCD_MSPDEINIT_CB_ID :
 473:Drivers/STM32F0xx_HAL_Driver/Src/stm32f0xx_hal_pcd.c ****         hpcd->MspDeInitCallback = HAL_PCD_MspDeInit;
 474:Drivers/STM32F0xx_HAL_Driver/Src/stm32f0xx_hal_pcd.c ****         break;
 475:Drivers/STM32F0xx_HAL_Driver/Src/stm32f0xx_hal_pcd.c **** 
 476:Drivers/STM32F0xx_HAL_Driver/Src/stm32f0xx_hal_pcd.c ****       default :
 477:Drivers/STM32F0xx_HAL_Driver/Src/stm32f0xx_hal_pcd.c ****         /* Update the error code */
 478:Drivers/STM32F0xx_HAL_Driver/Src/stm32f0xx_hal_pcd.c ****         hpcd->ErrorCode |= HAL_PCD_ERROR_INVALID_CALLBACK;
 479:Drivers/STM32F0xx_HAL_Driver/Src/stm32f0xx_hal_pcd.c **** 
 480:Drivers/STM32F0xx_HAL_Driver/Src/stm32f0xx_hal_pcd.c ****         /* Return error status */
 481:Drivers/STM32F0xx_HAL_Driver/Src/stm32f0xx_hal_pcd.c ****         status =  HAL_ERROR;
 482:Drivers/STM32F0xx_HAL_Driver/Src/stm32f0xx_hal_pcd.c ****         break;
 483:Drivers/STM32F0xx_HAL_Driver/Src/stm32f0xx_hal_pcd.c ****     }
 484:Drivers/STM32F0xx_HAL_Driver/Src/stm32f0xx_hal_pcd.c ****   }
 485:Drivers/STM32F0xx_HAL_Driver/Src/stm32f0xx_hal_pcd.c ****   else
ARM GAS  /tmp/ccrcqutw.s 			page 16


 486:Drivers/STM32F0xx_HAL_Driver/Src/stm32f0xx_hal_pcd.c ****   {
 487:Drivers/STM32F0xx_HAL_Driver/Src/stm32f0xx_hal_pcd.c ****     /* Update the error code */
 488:Drivers/STM32F0xx_HAL_Driver/Src/stm32f0xx_hal_pcd.c ****     hpcd->ErrorCode |= HAL_PCD_ERROR_INVALID_CALLBACK;
 489:Drivers/STM32F0xx_HAL_Driver/Src/stm32f0xx_hal_pcd.c **** 
 490:Drivers/STM32F0xx_HAL_Driver/Src/stm32f0xx_hal_pcd.c ****     /* Return error status */
 491:Drivers/STM32F0xx_HAL_Driver/Src/stm32f0xx_hal_pcd.c ****     status =  HAL_ERROR;
 492:Drivers/STM32F0xx_HAL_Driver/Src/stm32f0xx_hal_pcd.c ****   }
 493:Drivers/STM32F0xx_HAL_Driver/Src/stm32f0xx_hal_pcd.c **** 
 494:Drivers/STM32F0xx_HAL_Driver/Src/stm32f0xx_hal_pcd.c ****   /* Release Lock */
 495:Drivers/STM32F0xx_HAL_Driver/Src/stm32f0xx_hal_pcd.c ****   __HAL_UNLOCK(hpcd);
 496:Drivers/STM32F0xx_HAL_Driver/Src/stm32f0xx_hal_pcd.c ****   return status;
 497:Drivers/STM32F0xx_HAL_Driver/Src/stm32f0xx_hal_pcd.c **** }
 498:Drivers/STM32F0xx_HAL_Driver/Src/stm32f0xx_hal_pcd.c **** 
 499:Drivers/STM32F0xx_HAL_Driver/Src/stm32f0xx_hal_pcd.c **** /**
 500:Drivers/STM32F0xx_HAL_Driver/Src/stm32f0xx_hal_pcd.c ****   * @brief  Register USB PCD Data OUT Stage Callback
 501:Drivers/STM32F0xx_HAL_Driver/Src/stm32f0xx_hal_pcd.c ****   *         To be used instead of the weak HAL_PCD_DataOutStageCallback() predefined callback
 502:Drivers/STM32F0xx_HAL_Driver/Src/stm32f0xx_hal_pcd.c ****   * @param  hpcd PCD handle
 503:Drivers/STM32F0xx_HAL_Driver/Src/stm32f0xx_hal_pcd.c ****   * @param  pCallback pointer to the USB PCD Data OUT Stage Callback function
 504:Drivers/STM32F0xx_HAL_Driver/Src/stm32f0xx_hal_pcd.c ****   * @retval HAL status
 505:Drivers/STM32F0xx_HAL_Driver/Src/stm32f0xx_hal_pcd.c ****   */
 506:Drivers/STM32F0xx_HAL_Driver/Src/stm32f0xx_hal_pcd.c **** HAL_StatusTypeDef HAL_PCD_RegisterDataOutStageCallback(PCD_HandleTypeDef *hpcd, pPCD_DataOutStageCa
 507:Drivers/STM32F0xx_HAL_Driver/Src/stm32f0xx_hal_pcd.c **** {
 508:Drivers/STM32F0xx_HAL_Driver/Src/stm32f0xx_hal_pcd.c ****   HAL_StatusTypeDef status = HAL_OK;
 509:Drivers/STM32F0xx_HAL_Driver/Src/stm32f0xx_hal_pcd.c **** 
 510:Drivers/STM32F0xx_HAL_Driver/Src/stm32f0xx_hal_pcd.c ****   if (pCallback == NULL)
 511:Drivers/STM32F0xx_HAL_Driver/Src/stm32f0xx_hal_pcd.c ****   {
 512:Drivers/STM32F0xx_HAL_Driver/Src/stm32f0xx_hal_pcd.c ****     /* Update the error code */
 513:Drivers/STM32F0xx_HAL_Driver/Src/stm32f0xx_hal_pcd.c ****     hpcd->ErrorCode |= HAL_PCD_ERROR_INVALID_CALLBACK;
 514:Drivers/STM32F0xx_HAL_Driver/Src/stm32f0xx_hal_pcd.c **** 
 515:Drivers/STM32F0xx_HAL_Driver/Src/stm32f0xx_hal_pcd.c ****     return HAL_ERROR;
 516:Drivers/STM32F0xx_HAL_Driver/Src/stm32f0xx_hal_pcd.c ****   }
 517:Drivers/STM32F0xx_HAL_Driver/Src/stm32f0xx_hal_pcd.c **** 
 518:Drivers/STM32F0xx_HAL_Driver/Src/stm32f0xx_hal_pcd.c ****   /* Process locked */
 519:Drivers/STM32F0xx_HAL_Driver/Src/stm32f0xx_hal_pcd.c ****   __HAL_LOCK(hpcd);
 520:Drivers/STM32F0xx_HAL_Driver/Src/stm32f0xx_hal_pcd.c **** 
 521:Drivers/STM32F0xx_HAL_Driver/Src/stm32f0xx_hal_pcd.c ****   if (hpcd->State == HAL_PCD_STATE_READY)
 522:Drivers/STM32F0xx_HAL_Driver/Src/stm32f0xx_hal_pcd.c ****   {
 523:Drivers/STM32F0xx_HAL_Driver/Src/stm32f0xx_hal_pcd.c ****     hpcd->DataOutStageCallback = pCallback;
 524:Drivers/STM32F0xx_HAL_Driver/Src/stm32f0xx_hal_pcd.c ****   }
 525:Drivers/STM32F0xx_HAL_Driver/Src/stm32f0xx_hal_pcd.c ****   else
 526:Drivers/STM32F0xx_HAL_Driver/Src/stm32f0xx_hal_pcd.c ****   {
 527:Drivers/STM32F0xx_HAL_Driver/Src/stm32f0xx_hal_pcd.c ****     /* Update the error code */
 528:Drivers/STM32F0xx_HAL_Driver/Src/stm32f0xx_hal_pcd.c ****     hpcd->ErrorCode |= HAL_PCD_ERROR_INVALID_CALLBACK;
 529:Drivers/STM32F0xx_HAL_Driver/Src/stm32f0xx_hal_pcd.c **** 
 530:Drivers/STM32F0xx_HAL_Driver/Src/stm32f0xx_hal_pcd.c ****     /* Return error status */
 531:Drivers/STM32F0xx_HAL_Driver/Src/stm32f0xx_hal_pcd.c ****     status =  HAL_ERROR;
 532:Drivers/STM32F0xx_HAL_Driver/Src/stm32f0xx_hal_pcd.c ****   }
 533:Drivers/STM32F0xx_HAL_Driver/Src/stm32f0xx_hal_pcd.c **** 
 534:Drivers/STM32F0xx_HAL_Driver/Src/stm32f0xx_hal_pcd.c ****   /* Release Lock */
 535:Drivers/STM32F0xx_HAL_Driver/Src/stm32f0xx_hal_pcd.c ****   __HAL_UNLOCK(hpcd);
 536:Drivers/STM32F0xx_HAL_Driver/Src/stm32f0xx_hal_pcd.c **** 
 537:Drivers/STM32F0xx_HAL_Driver/Src/stm32f0xx_hal_pcd.c ****   return status;
 538:Drivers/STM32F0xx_HAL_Driver/Src/stm32f0xx_hal_pcd.c **** }
 539:Drivers/STM32F0xx_HAL_Driver/Src/stm32f0xx_hal_pcd.c **** 
 540:Drivers/STM32F0xx_HAL_Driver/Src/stm32f0xx_hal_pcd.c **** /**
 541:Drivers/STM32F0xx_HAL_Driver/Src/stm32f0xx_hal_pcd.c ****   * @brief  UnRegister the USB PCD Data OUT Stage Callback
 542:Drivers/STM32F0xx_HAL_Driver/Src/stm32f0xx_hal_pcd.c ****   *         USB PCD Data OUT Stage Callback is redirected to the weak HAL_PCD_DataOutStageCallback(
ARM GAS  /tmp/ccrcqutw.s 			page 17


 543:Drivers/STM32F0xx_HAL_Driver/Src/stm32f0xx_hal_pcd.c ****   * @param  hpcd PCD handle
 544:Drivers/STM32F0xx_HAL_Driver/Src/stm32f0xx_hal_pcd.c ****   * @retval HAL status
 545:Drivers/STM32F0xx_HAL_Driver/Src/stm32f0xx_hal_pcd.c ****   */
 546:Drivers/STM32F0xx_HAL_Driver/Src/stm32f0xx_hal_pcd.c **** HAL_StatusTypeDef HAL_PCD_UnRegisterDataOutStageCallback(PCD_HandleTypeDef *hpcd)
 547:Drivers/STM32F0xx_HAL_Driver/Src/stm32f0xx_hal_pcd.c **** {
 548:Drivers/STM32F0xx_HAL_Driver/Src/stm32f0xx_hal_pcd.c ****   HAL_StatusTypeDef status = HAL_OK;
 549:Drivers/STM32F0xx_HAL_Driver/Src/stm32f0xx_hal_pcd.c **** 
 550:Drivers/STM32F0xx_HAL_Driver/Src/stm32f0xx_hal_pcd.c ****   /* Process locked */
 551:Drivers/STM32F0xx_HAL_Driver/Src/stm32f0xx_hal_pcd.c ****   __HAL_LOCK(hpcd);
 552:Drivers/STM32F0xx_HAL_Driver/Src/stm32f0xx_hal_pcd.c **** 
 553:Drivers/STM32F0xx_HAL_Driver/Src/stm32f0xx_hal_pcd.c ****   if (hpcd->State == HAL_PCD_STATE_READY)
 554:Drivers/STM32F0xx_HAL_Driver/Src/stm32f0xx_hal_pcd.c ****   {
 555:Drivers/STM32F0xx_HAL_Driver/Src/stm32f0xx_hal_pcd.c ****     hpcd->DataOutStageCallback = HAL_PCD_DataOutStageCallback; /* Legacy weak DataOutStageCallback 
 556:Drivers/STM32F0xx_HAL_Driver/Src/stm32f0xx_hal_pcd.c ****   }
 557:Drivers/STM32F0xx_HAL_Driver/Src/stm32f0xx_hal_pcd.c ****   else
 558:Drivers/STM32F0xx_HAL_Driver/Src/stm32f0xx_hal_pcd.c ****   {
 559:Drivers/STM32F0xx_HAL_Driver/Src/stm32f0xx_hal_pcd.c ****     /* Update the error code */
 560:Drivers/STM32F0xx_HAL_Driver/Src/stm32f0xx_hal_pcd.c ****     hpcd->ErrorCode |= HAL_PCD_ERROR_INVALID_CALLBACK;
 561:Drivers/STM32F0xx_HAL_Driver/Src/stm32f0xx_hal_pcd.c **** 
 562:Drivers/STM32F0xx_HAL_Driver/Src/stm32f0xx_hal_pcd.c ****     /* Return error status */
 563:Drivers/STM32F0xx_HAL_Driver/Src/stm32f0xx_hal_pcd.c ****     status =  HAL_ERROR;
 564:Drivers/STM32F0xx_HAL_Driver/Src/stm32f0xx_hal_pcd.c ****   }
 565:Drivers/STM32F0xx_HAL_Driver/Src/stm32f0xx_hal_pcd.c **** 
 566:Drivers/STM32F0xx_HAL_Driver/Src/stm32f0xx_hal_pcd.c ****   /* Release Lock */
 567:Drivers/STM32F0xx_HAL_Driver/Src/stm32f0xx_hal_pcd.c ****   __HAL_UNLOCK(hpcd);
 568:Drivers/STM32F0xx_HAL_Driver/Src/stm32f0xx_hal_pcd.c **** 
 569:Drivers/STM32F0xx_HAL_Driver/Src/stm32f0xx_hal_pcd.c ****   return status;
 570:Drivers/STM32F0xx_HAL_Driver/Src/stm32f0xx_hal_pcd.c **** }
 571:Drivers/STM32F0xx_HAL_Driver/Src/stm32f0xx_hal_pcd.c **** 
 572:Drivers/STM32F0xx_HAL_Driver/Src/stm32f0xx_hal_pcd.c **** /**
 573:Drivers/STM32F0xx_HAL_Driver/Src/stm32f0xx_hal_pcd.c ****   * @brief  Register USB PCD Data IN Stage Callback
 574:Drivers/STM32F0xx_HAL_Driver/Src/stm32f0xx_hal_pcd.c ****   *         To be used instead of the weak HAL_PCD_DataInStageCallback() predefined callback
 575:Drivers/STM32F0xx_HAL_Driver/Src/stm32f0xx_hal_pcd.c ****   * @param  hpcd PCD handle
 576:Drivers/STM32F0xx_HAL_Driver/Src/stm32f0xx_hal_pcd.c ****   * @param  pCallback pointer to the USB PCD Data IN Stage Callback function
 577:Drivers/STM32F0xx_HAL_Driver/Src/stm32f0xx_hal_pcd.c ****   * @retval HAL status
 578:Drivers/STM32F0xx_HAL_Driver/Src/stm32f0xx_hal_pcd.c ****   */
 579:Drivers/STM32F0xx_HAL_Driver/Src/stm32f0xx_hal_pcd.c **** HAL_StatusTypeDef HAL_PCD_RegisterDataInStageCallback(PCD_HandleTypeDef *hpcd, pPCD_DataInStageCall
 580:Drivers/STM32F0xx_HAL_Driver/Src/stm32f0xx_hal_pcd.c **** {
 581:Drivers/STM32F0xx_HAL_Driver/Src/stm32f0xx_hal_pcd.c ****   HAL_StatusTypeDef status = HAL_OK;
 582:Drivers/STM32F0xx_HAL_Driver/Src/stm32f0xx_hal_pcd.c **** 
 583:Drivers/STM32F0xx_HAL_Driver/Src/stm32f0xx_hal_pcd.c ****   if (pCallback == NULL)
 584:Drivers/STM32F0xx_HAL_Driver/Src/stm32f0xx_hal_pcd.c ****   {
 585:Drivers/STM32F0xx_HAL_Driver/Src/stm32f0xx_hal_pcd.c ****     /* Update the error code */
 586:Drivers/STM32F0xx_HAL_Driver/Src/stm32f0xx_hal_pcd.c ****     hpcd->ErrorCode |= HAL_PCD_ERROR_INVALID_CALLBACK;
 587:Drivers/STM32F0xx_HAL_Driver/Src/stm32f0xx_hal_pcd.c **** 
 588:Drivers/STM32F0xx_HAL_Driver/Src/stm32f0xx_hal_pcd.c ****     return HAL_ERROR;
 589:Drivers/STM32F0xx_HAL_Driver/Src/stm32f0xx_hal_pcd.c ****   }
 590:Drivers/STM32F0xx_HAL_Driver/Src/stm32f0xx_hal_pcd.c **** 
 591:Drivers/STM32F0xx_HAL_Driver/Src/stm32f0xx_hal_pcd.c ****   /* Process locked */
 592:Drivers/STM32F0xx_HAL_Driver/Src/stm32f0xx_hal_pcd.c ****   __HAL_LOCK(hpcd);
 593:Drivers/STM32F0xx_HAL_Driver/Src/stm32f0xx_hal_pcd.c **** 
 594:Drivers/STM32F0xx_HAL_Driver/Src/stm32f0xx_hal_pcd.c ****   if (hpcd->State == HAL_PCD_STATE_READY)
 595:Drivers/STM32F0xx_HAL_Driver/Src/stm32f0xx_hal_pcd.c ****   {
 596:Drivers/STM32F0xx_HAL_Driver/Src/stm32f0xx_hal_pcd.c ****     hpcd->DataInStageCallback = pCallback;
 597:Drivers/STM32F0xx_HAL_Driver/Src/stm32f0xx_hal_pcd.c ****   }
 598:Drivers/STM32F0xx_HAL_Driver/Src/stm32f0xx_hal_pcd.c ****   else
 599:Drivers/STM32F0xx_HAL_Driver/Src/stm32f0xx_hal_pcd.c ****   {
ARM GAS  /tmp/ccrcqutw.s 			page 18


 600:Drivers/STM32F0xx_HAL_Driver/Src/stm32f0xx_hal_pcd.c ****     /* Update the error code */
 601:Drivers/STM32F0xx_HAL_Driver/Src/stm32f0xx_hal_pcd.c ****     hpcd->ErrorCode |= HAL_PCD_ERROR_INVALID_CALLBACK;
 602:Drivers/STM32F0xx_HAL_Driver/Src/stm32f0xx_hal_pcd.c **** 
 603:Drivers/STM32F0xx_HAL_Driver/Src/stm32f0xx_hal_pcd.c ****     /* Return error status */
 604:Drivers/STM32F0xx_HAL_Driver/Src/stm32f0xx_hal_pcd.c ****     status =  HAL_ERROR;
 605:Drivers/STM32F0xx_HAL_Driver/Src/stm32f0xx_hal_pcd.c ****   }
 606:Drivers/STM32F0xx_HAL_Driver/Src/stm32f0xx_hal_pcd.c **** 
 607:Drivers/STM32F0xx_HAL_Driver/Src/stm32f0xx_hal_pcd.c ****   /* Release Lock */
 608:Drivers/STM32F0xx_HAL_Driver/Src/stm32f0xx_hal_pcd.c ****   __HAL_UNLOCK(hpcd);
 609:Drivers/STM32F0xx_HAL_Driver/Src/stm32f0xx_hal_pcd.c **** 
 610:Drivers/STM32F0xx_HAL_Driver/Src/stm32f0xx_hal_pcd.c ****   return status;
 611:Drivers/STM32F0xx_HAL_Driver/Src/stm32f0xx_hal_pcd.c **** }
 612:Drivers/STM32F0xx_HAL_Driver/Src/stm32f0xx_hal_pcd.c **** 
 613:Drivers/STM32F0xx_HAL_Driver/Src/stm32f0xx_hal_pcd.c **** /**
 614:Drivers/STM32F0xx_HAL_Driver/Src/stm32f0xx_hal_pcd.c ****   * @brief  UnRegister the USB PCD Data IN Stage Callback
 615:Drivers/STM32F0xx_HAL_Driver/Src/stm32f0xx_hal_pcd.c ****   *         USB PCD Data OUT Stage Callback is redirected to the weak HAL_PCD_DataInStageCallback()
 616:Drivers/STM32F0xx_HAL_Driver/Src/stm32f0xx_hal_pcd.c ****   * @param  hpcd PCD handle
 617:Drivers/STM32F0xx_HAL_Driver/Src/stm32f0xx_hal_pcd.c ****   * @retval HAL status
 618:Drivers/STM32F0xx_HAL_Driver/Src/stm32f0xx_hal_pcd.c ****   */
 619:Drivers/STM32F0xx_HAL_Driver/Src/stm32f0xx_hal_pcd.c **** HAL_StatusTypeDef HAL_PCD_UnRegisterDataInStageCallback(PCD_HandleTypeDef *hpcd)
 620:Drivers/STM32F0xx_HAL_Driver/Src/stm32f0xx_hal_pcd.c **** {
 621:Drivers/STM32F0xx_HAL_Driver/Src/stm32f0xx_hal_pcd.c ****   HAL_StatusTypeDef status = HAL_OK;
 622:Drivers/STM32F0xx_HAL_Driver/Src/stm32f0xx_hal_pcd.c **** 
 623:Drivers/STM32F0xx_HAL_Driver/Src/stm32f0xx_hal_pcd.c ****   /* Process locked */
 624:Drivers/STM32F0xx_HAL_Driver/Src/stm32f0xx_hal_pcd.c ****   __HAL_LOCK(hpcd);
 625:Drivers/STM32F0xx_HAL_Driver/Src/stm32f0xx_hal_pcd.c **** 
 626:Drivers/STM32F0xx_HAL_Driver/Src/stm32f0xx_hal_pcd.c ****   if (hpcd->State == HAL_PCD_STATE_READY)
 627:Drivers/STM32F0xx_HAL_Driver/Src/stm32f0xx_hal_pcd.c ****   {
 628:Drivers/STM32F0xx_HAL_Driver/Src/stm32f0xx_hal_pcd.c ****     hpcd->DataInStageCallback = HAL_PCD_DataInStageCallback; /* Legacy weak DataInStageCallback  */
 629:Drivers/STM32F0xx_HAL_Driver/Src/stm32f0xx_hal_pcd.c ****   }
 630:Drivers/STM32F0xx_HAL_Driver/Src/stm32f0xx_hal_pcd.c ****   else
 631:Drivers/STM32F0xx_HAL_Driver/Src/stm32f0xx_hal_pcd.c ****   {
 632:Drivers/STM32F0xx_HAL_Driver/Src/stm32f0xx_hal_pcd.c ****     /* Update the error code */
 633:Drivers/STM32F0xx_HAL_Driver/Src/stm32f0xx_hal_pcd.c ****     hpcd->ErrorCode |= HAL_PCD_ERROR_INVALID_CALLBACK;
 634:Drivers/STM32F0xx_HAL_Driver/Src/stm32f0xx_hal_pcd.c **** 
 635:Drivers/STM32F0xx_HAL_Driver/Src/stm32f0xx_hal_pcd.c ****     /* Return error status */
 636:Drivers/STM32F0xx_HAL_Driver/Src/stm32f0xx_hal_pcd.c ****     status =  HAL_ERROR;
 637:Drivers/STM32F0xx_HAL_Driver/Src/stm32f0xx_hal_pcd.c ****   }
 638:Drivers/STM32F0xx_HAL_Driver/Src/stm32f0xx_hal_pcd.c **** 
 639:Drivers/STM32F0xx_HAL_Driver/Src/stm32f0xx_hal_pcd.c ****   /* Release Lock */
 640:Drivers/STM32F0xx_HAL_Driver/Src/stm32f0xx_hal_pcd.c ****   __HAL_UNLOCK(hpcd);
 641:Drivers/STM32F0xx_HAL_Driver/Src/stm32f0xx_hal_pcd.c **** 
 642:Drivers/STM32F0xx_HAL_Driver/Src/stm32f0xx_hal_pcd.c ****   return status;
 643:Drivers/STM32F0xx_HAL_Driver/Src/stm32f0xx_hal_pcd.c **** }
 644:Drivers/STM32F0xx_HAL_Driver/Src/stm32f0xx_hal_pcd.c **** 
 645:Drivers/STM32F0xx_HAL_Driver/Src/stm32f0xx_hal_pcd.c **** /**
 646:Drivers/STM32F0xx_HAL_Driver/Src/stm32f0xx_hal_pcd.c ****   * @brief  Register USB PCD Iso OUT incomplete Callback
 647:Drivers/STM32F0xx_HAL_Driver/Src/stm32f0xx_hal_pcd.c ****   *         To be used instead of the weak HAL_PCD_ISOOUTIncompleteCallback() predefined callback
 648:Drivers/STM32F0xx_HAL_Driver/Src/stm32f0xx_hal_pcd.c ****   * @param  hpcd PCD handle
 649:Drivers/STM32F0xx_HAL_Driver/Src/stm32f0xx_hal_pcd.c ****   * @param  pCallback pointer to the USB PCD Iso OUT incomplete Callback function
 650:Drivers/STM32F0xx_HAL_Driver/Src/stm32f0xx_hal_pcd.c ****   * @retval HAL status
 651:Drivers/STM32F0xx_HAL_Driver/Src/stm32f0xx_hal_pcd.c ****   */
 652:Drivers/STM32F0xx_HAL_Driver/Src/stm32f0xx_hal_pcd.c **** HAL_StatusTypeDef HAL_PCD_RegisterIsoOutIncpltCallback(PCD_HandleTypeDef *hpcd, pPCD_IsoOutIncpltCa
 653:Drivers/STM32F0xx_HAL_Driver/Src/stm32f0xx_hal_pcd.c **** {
 654:Drivers/STM32F0xx_HAL_Driver/Src/stm32f0xx_hal_pcd.c ****   HAL_StatusTypeDef status = HAL_OK;
 655:Drivers/STM32F0xx_HAL_Driver/Src/stm32f0xx_hal_pcd.c **** 
 656:Drivers/STM32F0xx_HAL_Driver/Src/stm32f0xx_hal_pcd.c ****   if (pCallback == NULL)
ARM GAS  /tmp/ccrcqutw.s 			page 19


 657:Drivers/STM32F0xx_HAL_Driver/Src/stm32f0xx_hal_pcd.c ****   {
 658:Drivers/STM32F0xx_HAL_Driver/Src/stm32f0xx_hal_pcd.c ****     /* Update the error code */
 659:Drivers/STM32F0xx_HAL_Driver/Src/stm32f0xx_hal_pcd.c ****     hpcd->ErrorCode |= HAL_PCD_ERROR_INVALID_CALLBACK;
 660:Drivers/STM32F0xx_HAL_Driver/Src/stm32f0xx_hal_pcd.c **** 
 661:Drivers/STM32F0xx_HAL_Driver/Src/stm32f0xx_hal_pcd.c ****     return HAL_ERROR;
 662:Drivers/STM32F0xx_HAL_Driver/Src/stm32f0xx_hal_pcd.c ****   }
 663:Drivers/STM32F0xx_HAL_Driver/Src/stm32f0xx_hal_pcd.c **** 
 664:Drivers/STM32F0xx_HAL_Driver/Src/stm32f0xx_hal_pcd.c ****   /* Process locked */
 665:Drivers/STM32F0xx_HAL_Driver/Src/stm32f0xx_hal_pcd.c ****   __HAL_LOCK(hpcd);
 666:Drivers/STM32F0xx_HAL_Driver/Src/stm32f0xx_hal_pcd.c **** 
 667:Drivers/STM32F0xx_HAL_Driver/Src/stm32f0xx_hal_pcd.c ****   if (hpcd->State == HAL_PCD_STATE_READY)
 668:Drivers/STM32F0xx_HAL_Driver/Src/stm32f0xx_hal_pcd.c ****   {
 669:Drivers/STM32F0xx_HAL_Driver/Src/stm32f0xx_hal_pcd.c ****     hpcd->ISOOUTIncompleteCallback = pCallback;
 670:Drivers/STM32F0xx_HAL_Driver/Src/stm32f0xx_hal_pcd.c ****   }
 671:Drivers/STM32F0xx_HAL_Driver/Src/stm32f0xx_hal_pcd.c ****   else
 672:Drivers/STM32F0xx_HAL_Driver/Src/stm32f0xx_hal_pcd.c ****   {
 673:Drivers/STM32F0xx_HAL_Driver/Src/stm32f0xx_hal_pcd.c ****     /* Update the error code */
 674:Drivers/STM32F0xx_HAL_Driver/Src/stm32f0xx_hal_pcd.c ****     hpcd->ErrorCode |= HAL_PCD_ERROR_INVALID_CALLBACK;
 675:Drivers/STM32F0xx_HAL_Driver/Src/stm32f0xx_hal_pcd.c **** 
 676:Drivers/STM32F0xx_HAL_Driver/Src/stm32f0xx_hal_pcd.c ****     /* Return error status */
 677:Drivers/STM32F0xx_HAL_Driver/Src/stm32f0xx_hal_pcd.c ****     status =  HAL_ERROR;
 678:Drivers/STM32F0xx_HAL_Driver/Src/stm32f0xx_hal_pcd.c ****   }
 679:Drivers/STM32F0xx_HAL_Driver/Src/stm32f0xx_hal_pcd.c **** 
 680:Drivers/STM32F0xx_HAL_Driver/Src/stm32f0xx_hal_pcd.c ****   /* Release Lock */
 681:Drivers/STM32F0xx_HAL_Driver/Src/stm32f0xx_hal_pcd.c ****   __HAL_UNLOCK(hpcd);
 682:Drivers/STM32F0xx_HAL_Driver/Src/stm32f0xx_hal_pcd.c **** 
 683:Drivers/STM32F0xx_HAL_Driver/Src/stm32f0xx_hal_pcd.c ****   return status;
 684:Drivers/STM32F0xx_HAL_Driver/Src/stm32f0xx_hal_pcd.c **** }
 685:Drivers/STM32F0xx_HAL_Driver/Src/stm32f0xx_hal_pcd.c **** 
 686:Drivers/STM32F0xx_HAL_Driver/Src/stm32f0xx_hal_pcd.c **** /**
 687:Drivers/STM32F0xx_HAL_Driver/Src/stm32f0xx_hal_pcd.c ****   * @brief  UnRegister the USB PCD Iso OUT incomplete Callback
 688:Drivers/STM32F0xx_HAL_Driver/Src/stm32f0xx_hal_pcd.c ****   *         USB PCD Iso OUT incomplete Callback is redirected to the weak HAL_PCD_ISOOUTIncompleteC
 689:Drivers/STM32F0xx_HAL_Driver/Src/stm32f0xx_hal_pcd.c ****   * @param  hpcd PCD handle
 690:Drivers/STM32F0xx_HAL_Driver/Src/stm32f0xx_hal_pcd.c ****   * @retval HAL status
 691:Drivers/STM32F0xx_HAL_Driver/Src/stm32f0xx_hal_pcd.c ****   */
 692:Drivers/STM32F0xx_HAL_Driver/Src/stm32f0xx_hal_pcd.c **** HAL_StatusTypeDef HAL_PCD_UnRegisterIsoOutIncpltCallback(PCD_HandleTypeDef *hpcd)
 693:Drivers/STM32F0xx_HAL_Driver/Src/stm32f0xx_hal_pcd.c **** {
 694:Drivers/STM32F0xx_HAL_Driver/Src/stm32f0xx_hal_pcd.c ****   HAL_StatusTypeDef status = HAL_OK;
 695:Drivers/STM32F0xx_HAL_Driver/Src/stm32f0xx_hal_pcd.c **** 
 696:Drivers/STM32F0xx_HAL_Driver/Src/stm32f0xx_hal_pcd.c ****   /* Process locked */
 697:Drivers/STM32F0xx_HAL_Driver/Src/stm32f0xx_hal_pcd.c ****   __HAL_LOCK(hpcd);
 698:Drivers/STM32F0xx_HAL_Driver/Src/stm32f0xx_hal_pcd.c **** 
 699:Drivers/STM32F0xx_HAL_Driver/Src/stm32f0xx_hal_pcd.c ****   if (hpcd->State == HAL_PCD_STATE_READY)
 700:Drivers/STM32F0xx_HAL_Driver/Src/stm32f0xx_hal_pcd.c ****   {
 701:Drivers/STM32F0xx_HAL_Driver/Src/stm32f0xx_hal_pcd.c ****     hpcd->ISOOUTIncompleteCallback = HAL_PCD_ISOOUTIncompleteCallback; /* Legacy weak ISOOUTIncompl
 702:Drivers/STM32F0xx_HAL_Driver/Src/stm32f0xx_hal_pcd.c ****   }
 703:Drivers/STM32F0xx_HAL_Driver/Src/stm32f0xx_hal_pcd.c ****   else
 704:Drivers/STM32F0xx_HAL_Driver/Src/stm32f0xx_hal_pcd.c ****   {
 705:Drivers/STM32F0xx_HAL_Driver/Src/stm32f0xx_hal_pcd.c ****     /* Update the error code */
 706:Drivers/STM32F0xx_HAL_Driver/Src/stm32f0xx_hal_pcd.c ****     hpcd->ErrorCode |= HAL_PCD_ERROR_INVALID_CALLBACK;
 707:Drivers/STM32F0xx_HAL_Driver/Src/stm32f0xx_hal_pcd.c **** 
 708:Drivers/STM32F0xx_HAL_Driver/Src/stm32f0xx_hal_pcd.c ****     /* Return error status */
 709:Drivers/STM32F0xx_HAL_Driver/Src/stm32f0xx_hal_pcd.c ****     status =  HAL_ERROR;
 710:Drivers/STM32F0xx_HAL_Driver/Src/stm32f0xx_hal_pcd.c ****   }
 711:Drivers/STM32F0xx_HAL_Driver/Src/stm32f0xx_hal_pcd.c **** 
 712:Drivers/STM32F0xx_HAL_Driver/Src/stm32f0xx_hal_pcd.c ****   /* Release Lock */
 713:Drivers/STM32F0xx_HAL_Driver/Src/stm32f0xx_hal_pcd.c ****   __HAL_UNLOCK(hpcd);
ARM GAS  /tmp/ccrcqutw.s 			page 20


 714:Drivers/STM32F0xx_HAL_Driver/Src/stm32f0xx_hal_pcd.c **** 
 715:Drivers/STM32F0xx_HAL_Driver/Src/stm32f0xx_hal_pcd.c ****   return status;
 716:Drivers/STM32F0xx_HAL_Driver/Src/stm32f0xx_hal_pcd.c **** }
 717:Drivers/STM32F0xx_HAL_Driver/Src/stm32f0xx_hal_pcd.c **** 
 718:Drivers/STM32F0xx_HAL_Driver/Src/stm32f0xx_hal_pcd.c **** /**
 719:Drivers/STM32F0xx_HAL_Driver/Src/stm32f0xx_hal_pcd.c ****   * @brief  Register USB PCD Iso IN incomplete Callback
 720:Drivers/STM32F0xx_HAL_Driver/Src/stm32f0xx_hal_pcd.c ****   *         To be used instead of the weak HAL_PCD_ISOINIncompleteCallback() predefined callback
 721:Drivers/STM32F0xx_HAL_Driver/Src/stm32f0xx_hal_pcd.c ****   * @param  hpcd PCD handle
 722:Drivers/STM32F0xx_HAL_Driver/Src/stm32f0xx_hal_pcd.c ****   * @param  pCallback pointer to the USB PCD Iso IN incomplete Callback function
 723:Drivers/STM32F0xx_HAL_Driver/Src/stm32f0xx_hal_pcd.c ****   * @retval HAL status
 724:Drivers/STM32F0xx_HAL_Driver/Src/stm32f0xx_hal_pcd.c ****   */
 725:Drivers/STM32F0xx_HAL_Driver/Src/stm32f0xx_hal_pcd.c **** HAL_StatusTypeDef HAL_PCD_RegisterIsoInIncpltCallback(PCD_HandleTypeDef *hpcd, pPCD_IsoInIncpltCall
 726:Drivers/STM32F0xx_HAL_Driver/Src/stm32f0xx_hal_pcd.c **** {
 727:Drivers/STM32F0xx_HAL_Driver/Src/stm32f0xx_hal_pcd.c ****   HAL_StatusTypeDef status = HAL_OK;
 728:Drivers/STM32F0xx_HAL_Driver/Src/stm32f0xx_hal_pcd.c **** 
 729:Drivers/STM32F0xx_HAL_Driver/Src/stm32f0xx_hal_pcd.c ****   if (pCallback == NULL)
 730:Drivers/STM32F0xx_HAL_Driver/Src/stm32f0xx_hal_pcd.c ****   {
 731:Drivers/STM32F0xx_HAL_Driver/Src/stm32f0xx_hal_pcd.c ****     /* Update the error code */
 732:Drivers/STM32F0xx_HAL_Driver/Src/stm32f0xx_hal_pcd.c ****     hpcd->ErrorCode |= HAL_PCD_ERROR_INVALID_CALLBACK;
 733:Drivers/STM32F0xx_HAL_Driver/Src/stm32f0xx_hal_pcd.c **** 
 734:Drivers/STM32F0xx_HAL_Driver/Src/stm32f0xx_hal_pcd.c ****     return HAL_ERROR;
 735:Drivers/STM32F0xx_HAL_Driver/Src/stm32f0xx_hal_pcd.c ****   }
 736:Drivers/STM32F0xx_HAL_Driver/Src/stm32f0xx_hal_pcd.c **** 
 737:Drivers/STM32F0xx_HAL_Driver/Src/stm32f0xx_hal_pcd.c ****   /* Process locked */
 738:Drivers/STM32F0xx_HAL_Driver/Src/stm32f0xx_hal_pcd.c ****   __HAL_LOCK(hpcd);
 739:Drivers/STM32F0xx_HAL_Driver/Src/stm32f0xx_hal_pcd.c **** 
 740:Drivers/STM32F0xx_HAL_Driver/Src/stm32f0xx_hal_pcd.c ****   if (hpcd->State == HAL_PCD_STATE_READY)
 741:Drivers/STM32F0xx_HAL_Driver/Src/stm32f0xx_hal_pcd.c ****   {
 742:Drivers/STM32F0xx_HAL_Driver/Src/stm32f0xx_hal_pcd.c ****     hpcd->ISOINIncompleteCallback = pCallback;
 743:Drivers/STM32F0xx_HAL_Driver/Src/stm32f0xx_hal_pcd.c ****   }
 744:Drivers/STM32F0xx_HAL_Driver/Src/stm32f0xx_hal_pcd.c ****   else
 745:Drivers/STM32F0xx_HAL_Driver/Src/stm32f0xx_hal_pcd.c ****   {
 746:Drivers/STM32F0xx_HAL_Driver/Src/stm32f0xx_hal_pcd.c ****     /* Update the error code */
 747:Drivers/STM32F0xx_HAL_Driver/Src/stm32f0xx_hal_pcd.c ****     hpcd->ErrorCode |= HAL_PCD_ERROR_INVALID_CALLBACK;
 748:Drivers/STM32F0xx_HAL_Driver/Src/stm32f0xx_hal_pcd.c **** 
 749:Drivers/STM32F0xx_HAL_Driver/Src/stm32f0xx_hal_pcd.c ****     /* Return error status */
 750:Drivers/STM32F0xx_HAL_Driver/Src/stm32f0xx_hal_pcd.c ****     status =  HAL_ERROR;
 751:Drivers/STM32F0xx_HAL_Driver/Src/stm32f0xx_hal_pcd.c ****   }
 752:Drivers/STM32F0xx_HAL_Driver/Src/stm32f0xx_hal_pcd.c **** 
 753:Drivers/STM32F0xx_HAL_Driver/Src/stm32f0xx_hal_pcd.c ****   /* Release Lock */
 754:Drivers/STM32F0xx_HAL_Driver/Src/stm32f0xx_hal_pcd.c ****   __HAL_UNLOCK(hpcd);
 755:Drivers/STM32F0xx_HAL_Driver/Src/stm32f0xx_hal_pcd.c **** 
 756:Drivers/STM32F0xx_HAL_Driver/Src/stm32f0xx_hal_pcd.c ****   return status;
 757:Drivers/STM32F0xx_HAL_Driver/Src/stm32f0xx_hal_pcd.c **** }
 758:Drivers/STM32F0xx_HAL_Driver/Src/stm32f0xx_hal_pcd.c **** 
 759:Drivers/STM32F0xx_HAL_Driver/Src/stm32f0xx_hal_pcd.c **** /**
 760:Drivers/STM32F0xx_HAL_Driver/Src/stm32f0xx_hal_pcd.c ****   * @brief  UnRegister the USB PCD Iso IN incomplete Callback
 761:Drivers/STM32F0xx_HAL_Driver/Src/stm32f0xx_hal_pcd.c ****   *         USB PCD Iso IN incomplete Callback is redirected to the weak HAL_PCD_ISOINIncompleteCal
 762:Drivers/STM32F0xx_HAL_Driver/Src/stm32f0xx_hal_pcd.c ****   * @param  hpcd PCD handle
 763:Drivers/STM32F0xx_HAL_Driver/Src/stm32f0xx_hal_pcd.c ****   * @retval HAL status
 764:Drivers/STM32F0xx_HAL_Driver/Src/stm32f0xx_hal_pcd.c ****   */
 765:Drivers/STM32F0xx_HAL_Driver/Src/stm32f0xx_hal_pcd.c **** HAL_StatusTypeDef HAL_PCD_UnRegisterIsoInIncpltCallback(PCD_HandleTypeDef *hpcd)
 766:Drivers/STM32F0xx_HAL_Driver/Src/stm32f0xx_hal_pcd.c **** {
 767:Drivers/STM32F0xx_HAL_Driver/Src/stm32f0xx_hal_pcd.c ****   HAL_StatusTypeDef status = HAL_OK;
 768:Drivers/STM32F0xx_HAL_Driver/Src/stm32f0xx_hal_pcd.c **** 
 769:Drivers/STM32F0xx_HAL_Driver/Src/stm32f0xx_hal_pcd.c ****   /* Process locked */
 770:Drivers/STM32F0xx_HAL_Driver/Src/stm32f0xx_hal_pcd.c ****   __HAL_LOCK(hpcd);
ARM GAS  /tmp/ccrcqutw.s 			page 21


 771:Drivers/STM32F0xx_HAL_Driver/Src/stm32f0xx_hal_pcd.c **** 
 772:Drivers/STM32F0xx_HAL_Driver/Src/stm32f0xx_hal_pcd.c ****   if (hpcd->State == HAL_PCD_STATE_READY)
 773:Drivers/STM32F0xx_HAL_Driver/Src/stm32f0xx_hal_pcd.c ****   {
 774:Drivers/STM32F0xx_HAL_Driver/Src/stm32f0xx_hal_pcd.c ****     hpcd->ISOINIncompleteCallback = HAL_PCD_ISOINIncompleteCallback; /* Legacy weak ISOINIncomplete
 775:Drivers/STM32F0xx_HAL_Driver/Src/stm32f0xx_hal_pcd.c ****   }
 776:Drivers/STM32F0xx_HAL_Driver/Src/stm32f0xx_hal_pcd.c ****   else
 777:Drivers/STM32F0xx_HAL_Driver/Src/stm32f0xx_hal_pcd.c ****   {
 778:Drivers/STM32F0xx_HAL_Driver/Src/stm32f0xx_hal_pcd.c ****     /* Update the error code */
 779:Drivers/STM32F0xx_HAL_Driver/Src/stm32f0xx_hal_pcd.c ****     hpcd->ErrorCode |= HAL_PCD_ERROR_INVALID_CALLBACK;
 780:Drivers/STM32F0xx_HAL_Driver/Src/stm32f0xx_hal_pcd.c **** 
 781:Drivers/STM32F0xx_HAL_Driver/Src/stm32f0xx_hal_pcd.c ****     /* Return error status */
 782:Drivers/STM32F0xx_HAL_Driver/Src/stm32f0xx_hal_pcd.c ****     status =  HAL_ERROR;
 783:Drivers/STM32F0xx_HAL_Driver/Src/stm32f0xx_hal_pcd.c ****   }
 784:Drivers/STM32F0xx_HAL_Driver/Src/stm32f0xx_hal_pcd.c **** 
 785:Drivers/STM32F0xx_HAL_Driver/Src/stm32f0xx_hal_pcd.c ****   /* Release Lock */
 786:Drivers/STM32F0xx_HAL_Driver/Src/stm32f0xx_hal_pcd.c ****   __HAL_UNLOCK(hpcd);
 787:Drivers/STM32F0xx_HAL_Driver/Src/stm32f0xx_hal_pcd.c **** 
 788:Drivers/STM32F0xx_HAL_Driver/Src/stm32f0xx_hal_pcd.c ****   return status;
 789:Drivers/STM32F0xx_HAL_Driver/Src/stm32f0xx_hal_pcd.c **** }
 790:Drivers/STM32F0xx_HAL_Driver/Src/stm32f0xx_hal_pcd.c **** 
 791:Drivers/STM32F0xx_HAL_Driver/Src/stm32f0xx_hal_pcd.c **** /**
 792:Drivers/STM32F0xx_HAL_Driver/Src/stm32f0xx_hal_pcd.c ****   * @brief  Register USB PCD BCD Callback
 793:Drivers/STM32F0xx_HAL_Driver/Src/stm32f0xx_hal_pcd.c ****   *         To be used instead of the weak HAL_PCDEx_BCD_Callback() predefined callback
 794:Drivers/STM32F0xx_HAL_Driver/Src/stm32f0xx_hal_pcd.c ****   * @param  hpcd PCD handle
 795:Drivers/STM32F0xx_HAL_Driver/Src/stm32f0xx_hal_pcd.c ****   * @param  pCallback pointer to the USB PCD BCD Callback function
 796:Drivers/STM32F0xx_HAL_Driver/Src/stm32f0xx_hal_pcd.c ****   * @retval HAL status
 797:Drivers/STM32F0xx_HAL_Driver/Src/stm32f0xx_hal_pcd.c ****   */
 798:Drivers/STM32F0xx_HAL_Driver/Src/stm32f0xx_hal_pcd.c **** HAL_StatusTypeDef HAL_PCD_RegisterBcdCallback(PCD_HandleTypeDef *hpcd, pPCD_BcdCallbackTypeDef pCal
 799:Drivers/STM32F0xx_HAL_Driver/Src/stm32f0xx_hal_pcd.c **** {
 800:Drivers/STM32F0xx_HAL_Driver/Src/stm32f0xx_hal_pcd.c ****   HAL_StatusTypeDef status = HAL_OK;
 801:Drivers/STM32F0xx_HAL_Driver/Src/stm32f0xx_hal_pcd.c **** 
 802:Drivers/STM32F0xx_HAL_Driver/Src/stm32f0xx_hal_pcd.c ****   if (pCallback == NULL)
 803:Drivers/STM32F0xx_HAL_Driver/Src/stm32f0xx_hal_pcd.c ****   {
 804:Drivers/STM32F0xx_HAL_Driver/Src/stm32f0xx_hal_pcd.c ****     /* Update the error code */
 805:Drivers/STM32F0xx_HAL_Driver/Src/stm32f0xx_hal_pcd.c ****     hpcd->ErrorCode |= HAL_PCD_ERROR_INVALID_CALLBACK;
 806:Drivers/STM32F0xx_HAL_Driver/Src/stm32f0xx_hal_pcd.c **** 
 807:Drivers/STM32F0xx_HAL_Driver/Src/stm32f0xx_hal_pcd.c ****     return HAL_ERROR;
 808:Drivers/STM32F0xx_HAL_Driver/Src/stm32f0xx_hal_pcd.c ****   }
 809:Drivers/STM32F0xx_HAL_Driver/Src/stm32f0xx_hal_pcd.c **** 
 810:Drivers/STM32F0xx_HAL_Driver/Src/stm32f0xx_hal_pcd.c ****   /* Process locked */
 811:Drivers/STM32F0xx_HAL_Driver/Src/stm32f0xx_hal_pcd.c ****   __HAL_LOCK(hpcd);
 812:Drivers/STM32F0xx_HAL_Driver/Src/stm32f0xx_hal_pcd.c **** 
 813:Drivers/STM32F0xx_HAL_Driver/Src/stm32f0xx_hal_pcd.c ****   if (hpcd->State == HAL_PCD_STATE_READY)
 814:Drivers/STM32F0xx_HAL_Driver/Src/stm32f0xx_hal_pcd.c ****   {
 815:Drivers/STM32F0xx_HAL_Driver/Src/stm32f0xx_hal_pcd.c ****     hpcd->BCDCallback = pCallback;
 816:Drivers/STM32F0xx_HAL_Driver/Src/stm32f0xx_hal_pcd.c ****   }
 817:Drivers/STM32F0xx_HAL_Driver/Src/stm32f0xx_hal_pcd.c ****   else
 818:Drivers/STM32F0xx_HAL_Driver/Src/stm32f0xx_hal_pcd.c ****   {
 819:Drivers/STM32F0xx_HAL_Driver/Src/stm32f0xx_hal_pcd.c ****     /* Update the error code */
 820:Drivers/STM32F0xx_HAL_Driver/Src/stm32f0xx_hal_pcd.c ****     hpcd->ErrorCode |= HAL_PCD_ERROR_INVALID_CALLBACK;
 821:Drivers/STM32F0xx_HAL_Driver/Src/stm32f0xx_hal_pcd.c **** 
 822:Drivers/STM32F0xx_HAL_Driver/Src/stm32f0xx_hal_pcd.c ****     /* Return error status */
 823:Drivers/STM32F0xx_HAL_Driver/Src/stm32f0xx_hal_pcd.c ****     status =  HAL_ERROR;
 824:Drivers/STM32F0xx_HAL_Driver/Src/stm32f0xx_hal_pcd.c ****   }
 825:Drivers/STM32F0xx_HAL_Driver/Src/stm32f0xx_hal_pcd.c **** 
 826:Drivers/STM32F0xx_HAL_Driver/Src/stm32f0xx_hal_pcd.c ****   /* Release Lock */
 827:Drivers/STM32F0xx_HAL_Driver/Src/stm32f0xx_hal_pcd.c ****   __HAL_UNLOCK(hpcd);
ARM GAS  /tmp/ccrcqutw.s 			page 22


 828:Drivers/STM32F0xx_HAL_Driver/Src/stm32f0xx_hal_pcd.c **** 
 829:Drivers/STM32F0xx_HAL_Driver/Src/stm32f0xx_hal_pcd.c ****   return status;
 830:Drivers/STM32F0xx_HAL_Driver/Src/stm32f0xx_hal_pcd.c **** }
 831:Drivers/STM32F0xx_HAL_Driver/Src/stm32f0xx_hal_pcd.c **** 
 832:Drivers/STM32F0xx_HAL_Driver/Src/stm32f0xx_hal_pcd.c **** /**
 833:Drivers/STM32F0xx_HAL_Driver/Src/stm32f0xx_hal_pcd.c ****   * @brief  UnRegister the USB PCD BCD Callback
 834:Drivers/STM32F0xx_HAL_Driver/Src/stm32f0xx_hal_pcd.c ****   *         USB BCD Callback is redirected to the weak HAL_PCDEx_BCD_Callback() predefined callback
 835:Drivers/STM32F0xx_HAL_Driver/Src/stm32f0xx_hal_pcd.c ****   * @param  hpcd PCD handle
 836:Drivers/STM32F0xx_HAL_Driver/Src/stm32f0xx_hal_pcd.c ****   * @retval HAL status
 837:Drivers/STM32F0xx_HAL_Driver/Src/stm32f0xx_hal_pcd.c ****   */
 838:Drivers/STM32F0xx_HAL_Driver/Src/stm32f0xx_hal_pcd.c **** HAL_StatusTypeDef HAL_PCD_UnRegisterBcdCallback(PCD_HandleTypeDef *hpcd)
 839:Drivers/STM32F0xx_HAL_Driver/Src/stm32f0xx_hal_pcd.c **** {
 840:Drivers/STM32F0xx_HAL_Driver/Src/stm32f0xx_hal_pcd.c ****   HAL_StatusTypeDef status = HAL_OK;
 841:Drivers/STM32F0xx_HAL_Driver/Src/stm32f0xx_hal_pcd.c **** 
 842:Drivers/STM32F0xx_HAL_Driver/Src/stm32f0xx_hal_pcd.c ****   /* Process locked */
 843:Drivers/STM32F0xx_HAL_Driver/Src/stm32f0xx_hal_pcd.c ****   __HAL_LOCK(hpcd);
 844:Drivers/STM32F0xx_HAL_Driver/Src/stm32f0xx_hal_pcd.c **** 
 845:Drivers/STM32F0xx_HAL_Driver/Src/stm32f0xx_hal_pcd.c ****   if (hpcd->State == HAL_PCD_STATE_READY)
 846:Drivers/STM32F0xx_HAL_Driver/Src/stm32f0xx_hal_pcd.c ****   {
 847:Drivers/STM32F0xx_HAL_Driver/Src/stm32f0xx_hal_pcd.c ****     hpcd->BCDCallback = HAL_PCDEx_BCD_Callback; /* Legacy weak HAL_PCDEx_BCD_Callback  */
 848:Drivers/STM32F0xx_HAL_Driver/Src/stm32f0xx_hal_pcd.c ****   }
 849:Drivers/STM32F0xx_HAL_Driver/Src/stm32f0xx_hal_pcd.c ****   else
 850:Drivers/STM32F0xx_HAL_Driver/Src/stm32f0xx_hal_pcd.c ****   {
 851:Drivers/STM32F0xx_HAL_Driver/Src/stm32f0xx_hal_pcd.c ****     /* Update the error code */
 852:Drivers/STM32F0xx_HAL_Driver/Src/stm32f0xx_hal_pcd.c ****     hpcd->ErrorCode |= HAL_PCD_ERROR_INVALID_CALLBACK;
 853:Drivers/STM32F0xx_HAL_Driver/Src/stm32f0xx_hal_pcd.c **** 
 854:Drivers/STM32F0xx_HAL_Driver/Src/stm32f0xx_hal_pcd.c ****     /* Return error status */
 855:Drivers/STM32F0xx_HAL_Driver/Src/stm32f0xx_hal_pcd.c ****     status =  HAL_ERROR;
 856:Drivers/STM32F0xx_HAL_Driver/Src/stm32f0xx_hal_pcd.c ****   }
 857:Drivers/STM32F0xx_HAL_Driver/Src/stm32f0xx_hal_pcd.c **** 
 858:Drivers/STM32F0xx_HAL_Driver/Src/stm32f0xx_hal_pcd.c ****   /* Release Lock */
 859:Drivers/STM32F0xx_HAL_Driver/Src/stm32f0xx_hal_pcd.c ****   __HAL_UNLOCK(hpcd);
 860:Drivers/STM32F0xx_HAL_Driver/Src/stm32f0xx_hal_pcd.c **** 
 861:Drivers/STM32F0xx_HAL_Driver/Src/stm32f0xx_hal_pcd.c ****   return status;
 862:Drivers/STM32F0xx_HAL_Driver/Src/stm32f0xx_hal_pcd.c **** }
 863:Drivers/STM32F0xx_HAL_Driver/Src/stm32f0xx_hal_pcd.c **** 
 864:Drivers/STM32F0xx_HAL_Driver/Src/stm32f0xx_hal_pcd.c **** /**
 865:Drivers/STM32F0xx_HAL_Driver/Src/stm32f0xx_hal_pcd.c ****   * @brief  Register USB PCD LPM Callback
 866:Drivers/STM32F0xx_HAL_Driver/Src/stm32f0xx_hal_pcd.c ****   *         To be used instead of the weak HAL_PCDEx_LPM_Callback() predefined callback
 867:Drivers/STM32F0xx_HAL_Driver/Src/stm32f0xx_hal_pcd.c ****   * @param  hpcd PCD handle
 868:Drivers/STM32F0xx_HAL_Driver/Src/stm32f0xx_hal_pcd.c ****   * @param  pCallback pointer to the USB PCD LPM Callback function
 869:Drivers/STM32F0xx_HAL_Driver/Src/stm32f0xx_hal_pcd.c ****   * @retval HAL status
 870:Drivers/STM32F0xx_HAL_Driver/Src/stm32f0xx_hal_pcd.c ****   */
 871:Drivers/STM32F0xx_HAL_Driver/Src/stm32f0xx_hal_pcd.c **** HAL_StatusTypeDef HAL_PCD_RegisterLpmCallback(PCD_HandleTypeDef *hpcd, pPCD_LpmCallbackTypeDef pCal
 872:Drivers/STM32F0xx_HAL_Driver/Src/stm32f0xx_hal_pcd.c **** {
 873:Drivers/STM32F0xx_HAL_Driver/Src/stm32f0xx_hal_pcd.c ****   HAL_StatusTypeDef status = HAL_OK;
 874:Drivers/STM32F0xx_HAL_Driver/Src/stm32f0xx_hal_pcd.c **** 
 875:Drivers/STM32F0xx_HAL_Driver/Src/stm32f0xx_hal_pcd.c ****   if (pCallback == NULL)
 876:Drivers/STM32F0xx_HAL_Driver/Src/stm32f0xx_hal_pcd.c ****   {
 877:Drivers/STM32F0xx_HAL_Driver/Src/stm32f0xx_hal_pcd.c ****     /* Update the error code */
 878:Drivers/STM32F0xx_HAL_Driver/Src/stm32f0xx_hal_pcd.c ****     hpcd->ErrorCode |= HAL_PCD_ERROR_INVALID_CALLBACK;
 879:Drivers/STM32F0xx_HAL_Driver/Src/stm32f0xx_hal_pcd.c **** 
 880:Drivers/STM32F0xx_HAL_Driver/Src/stm32f0xx_hal_pcd.c ****     return HAL_ERROR;
 881:Drivers/STM32F0xx_HAL_Driver/Src/stm32f0xx_hal_pcd.c ****   }
 882:Drivers/STM32F0xx_HAL_Driver/Src/stm32f0xx_hal_pcd.c **** 
 883:Drivers/STM32F0xx_HAL_Driver/Src/stm32f0xx_hal_pcd.c ****   /* Process locked */
 884:Drivers/STM32F0xx_HAL_Driver/Src/stm32f0xx_hal_pcd.c ****   __HAL_LOCK(hpcd);
ARM GAS  /tmp/ccrcqutw.s 			page 23


 885:Drivers/STM32F0xx_HAL_Driver/Src/stm32f0xx_hal_pcd.c **** 
 886:Drivers/STM32F0xx_HAL_Driver/Src/stm32f0xx_hal_pcd.c ****   if (hpcd->State == HAL_PCD_STATE_READY)
 887:Drivers/STM32F0xx_HAL_Driver/Src/stm32f0xx_hal_pcd.c ****   {
 888:Drivers/STM32F0xx_HAL_Driver/Src/stm32f0xx_hal_pcd.c ****     hpcd->LPMCallback = pCallback;
 889:Drivers/STM32F0xx_HAL_Driver/Src/stm32f0xx_hal_pcd.c ****   }
 890:Drivers/STM32F0xx_HAL_Driver/Src/stm32f0xx_hal_pcd.c ****   else
 891:Drivers/STM32F0xx_HAL_Driver/Src/stm32f0xx_hal_pcd.c ****   {
 892:Drivers/STM32F0xx_HAL_Driver/Src/stm32f0xx_hal_pcd.c ****     /* Update the error code */
 893:Drivers/STM32F0xx_HAL_Driver/Src/stm32f0xx_hal_pcd.c ****     hpcd->ErrorCode |= HAL_PCD_ERROR_INVALID_CALLBACK;
 894:Drivers/STM32F0xx_HAL_Driver/Src/stm32f0xx_hal_pcd.c **** 
 895:Drivers/STM32F0xx_HAL_Driver/Src/stm32f0xx_hal_pcd.c ****     /* Return error status */
 896:Drivers/STM32F0xx_HAL_Driver/Src/stm32f0xx_hal_pcd.c ****     status =  HAL_ERROR;
 897:Drivers/STM32F0xx_HAL_Driver/Src/stm32f0xx_hal_pcd.c ****   }
 898:Drivers/STM32F0xx_HAL_Driver/Src/stm32f0xx_hal_pcd.c **** 
 899:Drivers/STM32F0xx_HAL_Driver/Src/stm32f0xx_hal_pcd.c ****   /* Release Lock */
 900:Drivers/STM32F0xx_HAL_Driver/Src/stm32f0xx_hal_pcd.c ****   __HAL_UNLOCK(hpcd);
 901:Drivers/STM32F0xx_HAL_Driver/Src/stm32f0xx_hal_pcd.c **** 
 902:Drivers/STM32F0xx_HAL_Driver/Src/stm32f0xx_hal_pcd.c ****   return status;
 903:Drivers/STM32F0xx_HAL_Driver/Src/stm32f0xx_hal_pcd.c **** }
 904:Drivers/STM32F0xx_HAL_Driver/Src/stm32f0xx_hal_pcd.c **** 
 905:Drivers/STM32F0xx_HAL_Driver/Src/stm32f0xx_hal_pcd.c **** /**
 906:Drivers/STM32F0xx_HAL_Driver/Src/stm32f0xx_hal_pcd.c ****   * @brief  UnRegister the USB PCD LPM Callback
 907:Drivers/STM32F0xx_HAL_Driver/Src/stm32f0xx_hal_pcd.c ****   *         USB LPM Callback is redirected to the weak HAL_PCDEx_LPM_Callback() predefined callback
 908:Drivers/STM32F0xx_HAL_Driver/Src/stm32f0xx_hal_pcd.c ****   * @param  hpcd PCD handle
 909:Drivers/STM32F0xx_HAL_Driver/Src/stm32f0xx_hal_pcd.c ****   * @retval HAL status
 910:Drivers/STM32F0xx_HAL_Driver/Src/stm32f0xx_hal_pcd.c ****   */
 911:Drivers/STM32F0xx_HAL_Driver/Src/stm32f0xx_hal_pcd.c **** HAL_StatusTypeDef HAL_PCD_UnRegisterLpmCallback(PCD_HandleTypeDef *hpcd)
 912:Drivers/STM32F0xx_HAL_Driver/Src/stm32f0xx_hal_pcd.c **** {
 913:Drivers/STM32F0xx_HAL_Driver/Src/stm32f0xx_hal_pcd.c ****   HAL_StatusTypeDef status = HAL_OK;
 914:Drivers/STM32F0xx_HAL_Driver/Src/stm32f0xx_hal_pcd.c **** 
 915:Drivers/STM32F0xx_HAL_Driver/Src/stm32f0xx_hal_pcd.c ****   /* Process locked */
 916:Drivers/STM32F0xx_HAL_Driver/Src/stm32f0xx_hal_pcd.c ****   __HAL_LOCK(hpcd);
 917:Drivers/STM32F0xx_HAL_Driver/Src/stm32f0xx_hal_pcd.c **** 
 918:Drivers/STM32F0xx_HAL_Driver/Src/stm32f0xx_hal_pcd.c ****   if (hpcd->State == HAL_PCD_STATE_READY)
 919:Drivers/STM32F0xx_HAL_Driver/Src/stm32f0xx_hal_pcd.c ****   {
 920:Drivers/STM32F0xx_HAL_Driver/Src/stm32f0xx_hal_pcd.c ****     hpcd->LPMCallback = HAL_PCDEx_LPM_Callback; /* Legacy weak HAL_PCDEx_LPM_Callback  */
 921:Drivers/STM32F0xx_HAL_Driver/Src/stm32f0xx_hal_pcd.c ****   }
 922:Drivers/STM32F0xx_HAL_Driver/Src/stm32f0xx_hal_pcd.c ****   else
 923:Drivers/STM32F0xx_HAL_Driver/Src/stm32f0xx_hal_pcd.c ****   {
 924:Drivers/STM32F0xx_HAL_Driver/Src/stm32f0xx_hal_pcd.c ****     /* Update the error code */
 925:Drivers/STM32F0xx_HAL_Driver/Src/stm32f0xx_hal_pcd.c ****     hpcd->ErrorCode |= HAL_PCD_ERROR_INVALID_CALLBACK;
 926:Drivers/STM32F0xx_HAL_Driver/Src/stm32f0xx_hal_pcd.c **** 
 927:Drivers/STM32F0xx_HAL_Driver/Src/stm32f0xx_hal_pcd.c ****     /* Return error status */
 928:Drivers/STM32F0xx_HAL_Driver/Src/stm32f0xx_hal_pcd.c ****     status =  HAL_ERROR;
 929:Drivers/STM32F0xx_HAL_Driver/Src/stm32f0xx_hal_pcd.c ****   }
 930:Drivers/STM32F0xx_HAL_Driver/Src/stm32f0xx_hal_pcd.c **** 
 931:Drivers/STM32F0xx_HAL_Driver/Src/stm32f0xx_hal_pcd.c ****   /* Release Lock */
 932:Drivers/STM32F0xx_HAL_Driver/Src/stm32f0xx_hal_pcd.c ****   __HAL_UNLOCK(hpcd);
 933:Drivers/STM32F0xx_HAL_Driver/Src/stm32f0xx_hal_pcd.c **** 
 934:Drivers/STM32F0xx_HAL_Driver/Src/stm32f0xx_hal_pcd.c ****   return status;
 935:Drivers/STM32F0xx_HAL_Driver/Src/stm32f0xx_hal_pcd.c **** }
 936:Drivers/STM32F0xx_HAL_Driver/Src/stm32f0xx_hal_pcd.c **** #endif /* USE_HAL_PCD_REGISTER_CALLBACKS */
 937:Drivers/STM32F0xx_HAL_Driver/Src/stm32f0xx_hal_pcd.c **** 
 938:Drivers/STM32F0xx_HAL_Driver/Src/stm32f0xx_hal_pcd.c **** /**
 939:Drivers/STM32F0xx_HAL_Driver/Src/stm32f0xx_hal_pcd.c ****   * @}
 940:Drivers/STM32F0xx_HAL_Driver/Src/stm32f0xx_hal_pcd.c ****   */
 941:Drivers/STM32F0xx_HAL_Driver/Src/stm32f0xx_hal_pcd.c **** 
ARM GAS  /tmp/ccrcqutw.s 			page 24


 942:Drivers/STM32F0xx_HAL_Driver/Src/stm32f0xx_hal_pcd.c **** /** @defgroup PCD_Exported_Functions_Group2 Input and Output operation functions
 943:Drivers/STM32F0xx_HAL_Driver/Src/stm32f0xx_hal_pcd.c ****  *  @brief   Data transfers functions
 944:Drivers/STM32F0xx_HAL_Driver/Src/stm32f0xx_hal_pcd.c ****  *
 945:Drivers/STM32F0xx_HAL_Driver/Src/stm32f0xx_hal_pcd.c **** @verbatim
 946:Drivers/STM32F0xx_HAL_Driver/Src/stm32f0xx_hal_pcd.c ****  ===============================================================================
 947:Drivers/STM32F0xx_HAL_Driver/Src/stm32f0xx_hal_pcd.c ****                       ##### IO operation functions #####
 948:Drivers/STM32F0xx_HAL_Driver/Src/stm32f0xx_hal_pcd.c ****  ===============================================================================
 949:Drivers/STM32F0xx_HAL_Driver/Src/stm32f0xx_hal_pcd.c ****     [..]
 950:Drivers/STM32F0xx_HAL_Driver/Src/stm32f0xx_hal_pcd.c ****     This subsection provides a set of functions allowing to manage the PCD data
 951:Drivers/STM32F0xx_HAL_Driver/Src/stm32f0xx_hal_pcd.c ****     transfers.
 952:Drivers/STM32F0xx_HAL_Driver/Src/stm32f0xx_hal_pcd.c **** 
 953:Drivers/STM32F0xx_HAL_Driver/Src/stm32f0xx_hal_pcd.c **** @endverbatim
 954:Drivers/STM32F0xx_HAL_Driver/Src/stm32f0xx_hal_pcd.c ****   * @{
 955:Drivers/STM32F0xx_HAL_Driver/Src/stm32f0xx_hal_pcd.c ****   */
 956:Drivers/STM32F0xx_HAL_Driver/Src/stm32f0xx_hal_pcd.c **** 
 957:Drivers/STM32F0xx_HAL_Driver/Src/stm32f0xx_hal_pcd.c **** /**
 958:Drivers/STM32F0xx_HAL_Driver/Src/stm32f0xx_hal_pcd.c ****   * @brief  Start the USB device
 959:Drivers/STM32F0xx_HAL_Driver/Src/stm32f0xx_hal_pcd.c ****   * @param  hpcd PCD handle
 960:Drivers/STM32F0xx_HAL_Driver/Src/stm32f0xx_hal_pcd.c ****   * @retval HAL status
 961:Drivers/STM32F0xx_HAL_Driver/Src/stm32f0xx_hal_pcd.c ****   */
 962:Drivers/STM32F0xx_HAL_Driver/Src/stm32f0xx_hal_pcd.c **** HAL_StatusTypeDef HAL_PCD_Start(PCD_HandleTypeDef *hpcd)
 963:Drivers/STM32F0xx_HAL_Driver/Src/stm32f0xx_hal_pcd.c **** {
 304              		.loc 1 963 1 is_stmt 1 view -0
 305              		.cfi_startproc
 306              		@ args = 0, pretend = 0, frame = 0
 307              		@ frame_needed = 0, uses_anonymous_args = 0
 308              		.loc 1 963 1 is_stmt 0 view .LVU81
 309 0000 70B5     		push	{r4, r5, r6, lr}
 310              	.LCFI2:
 311              		.cfi_def_cfa_offset 16
 312              		.cfi_offset 4, -16
 313              		.cfi_offset 5, -12
 314              		.cfi_offset 6, -8
 315              		.cfi_offset 14, -4
 316 0002 0400     		movs	r4, r0
 964:Drivers/STM32F0xx_HAL_Driver/Src/stm32f0xx_hal_pcd.c ****   __HAL_LOCK(hpcd);
 317              		.loc 1 964 3 is_stmt 1 view .LVU82
 318              		.loc 1 964 3 view .LVU83
 319 0004 8A23     		movs	r3, #138
 320 0006 9B00     		lsls	r3, r3, #2
 321 0008 C35C     		ldrb	r3, [r0, r3]
 322 000a 012B     		cmp	r3, #1
 323 000c 0DD0     		beq	.L19
 324              		.loc 1 964 3 discriminator 2 view .LVU84
 325 000e 8A25     		movs	r5, #138
 326 0010 AD00     		lsls	r5, r5, #2
 327 0012 0123     		movs	r3, #1
 328 0014 4355     		strb	r3, [r0, r5]
 329              		.loc 1 964 3 discriminator 2 view .LVU85
 965:Drivers/STM32F0xx_HAL_Driver/Src/stm32f0xx_hal_pcd.c ****   (void)USB_DevConnect(hpcd->Instance);
 330              		.loc 1 965 3 discriminator 2 view .LVU86
 331              		.loc 1 965 9 is_stmt 0 discriminator 2 view .LVU87
 332 0016 0068     		ldr	r0, [r0]
 333              	.LVL22:
 334              		.loc 1 965 9 discriminator 2 view .LVU88
 335 0018 FFF7FEFF 		bl	USB_DevConnect
 336              	.LVL23:
ARM GAS  /tmp/ccrcqutw.s 			page 25


 966:Drivers/STM32F0xx_HAL_Driver/Src/stm32f0xx_hal_pcd.c ****   __HAL_PCD_ENABLE(hpcd);
 337              		.loc 1 966 3 is_stmt 1 discriminator 2 view .LVU89
 338 001c 2068     		ldr	r0, [r4]
 339 001e FFF7FEFF 		bl	USB_EnableGlobalInt
 340              	.LVL24:
 967:Drivers/STM32F0xx_HAL_Driver/Src/stm32f0xx_hal_pcd.c ****   __HAL_UNLOCK(hpcd);
 341              		.loc 1 967 3 discriminator 2 view .LVU90
 342              		.loc 1 967 3 discriminator 2 view .LVU91
 343 0022 0023     		movs	r3, #0
 344 0024 6355     		strb	r3, [r4, r5]
 345              		.loc 1 967 3 discriminator 2 view .LVU92
 968:Drivers/STM32F0xx_HAL_Driver/Src/stm32f0xx_hal_pcd.c ****   return HAL_OK;
 346              		.loc 1 968 3 discriminator 2 view .LVU93
 347              		.loc 1 968 10 is_stmt 0 discriminator 2 view .LVU94
 348 0026 0020     		movs	r0, #0
 349              	.L18:
 969:Drivers/STM32F0xx_HAL_Driver/Src/stm32f0xx_hal_pcd.c **** }
 350              		.loc 1 969 1 view .LVU95
 351              		@ sp needed
 352              	.LVL25:
 353              		.loc 1 969 1 view .LVU96
 354 0028 70BD     		pop	{r4, r5, r6, pc}
 355              	.LVL26:
 356              	.L19:
 964:Drivers/STM32F0xx_HAL_Driver/Src/stm32f0xx_hal_pcd.c ****   (void)USB_DevConnect(hpcd->Instance);
 357              		.loc 1 964 3 view .LVU97
 358 002a 0220     		movs	r0, #2
 359              	.LVL27:
 964:Drivers/STM32F0xx_HAL_Driver/Src/stm32f0xx_hal_pcd.c ****   (void)USB_DevConnect(hpcd->Instance);
 360              		.loc 1 964 3 view .LVU98
 361 002c FCE7     		b	.L18
 362              		.cfi_endproc
 363              	.LFE44:
 365              		.section	.text.HAL_PCD_Stop,"ax",%progbits
 366              		.align	1
 367              		.global	HAL_PCD_Stop
 368              		.syntax unified
 369              		.code	16
 370              		.thumb_func
 371              		.fpu softvfp
 373              	HAL_PCD_Stop:
 374              	.LVL28:
 375              	.LFB45:
 970:Drivers/STM32F0xx_HAL_Driver/Src/stm32f0xx_hal_pcd.c **** 
 971:Drivers/STM32F0xx_HAL_Driver/Src/stm32f0xx_hal_pcd.c **** /**
 972:Drivers/STM32F0xx_HAL_Driver/Src/stm32f0xx_hal_pcd.c ****   * @brief  Stop the USB device.
 973:Drivers/STM32F0xx_HAL_Driver/Src/stm32f0xx_hal_pcd.c ****   * @param  hpcd PCD handle
 974:Drivers/STM32F0xx_HAL_Driver/Src/stm32f0xx_hal_pcd.c ****   * @retval HAL status
 975:Drivers/STM32F0xx_HAL_Driver/Src/stm32f0xx_hal_pcd.c ****   */
 976:Drivers/STM32F0xx_HAL_Driver/Src/stm32f0xx_hal_pcd.c **** HAL_StatusTypeDef HAL_PCD_Stop(PCD_HandleTypeDef *hpcd)
 977:Drivers/STM32F0xx_HAL_Driver/Src/stm32f0xx_hal_pcd.c **** {
 376              		.loc 1 977 1 is_stmt 1 view -0
 377              		.cfi_startproc
 378              		@ args = 0, pretend = 0, frame = 0
 379              		@ frame_needed = 0, uses_anonymous_args = 0
 380              		.loc 1 977 1 is_stmt 0 view .LVU100
 381 0000 70B5     		push	{r4, r5, r6, lr}
ARM GAS  /tmp/ccrcqutw.s 			page 26


 382              	.LCFI3:
 383              		.cfi_def_cfa_offset 16
 384              		.cfi_offset 4, -16
 385              		.cfi_offset 5, -12
 386              		.cfi_offset 6, -8
 387              		.cfi_offset 14, -4
 388 0002 0400     		movs	r4, r0
 978:Drivers/STM32F0xx_HAL_Driver/Src/stm32f0xx_hal_pcd.c ****   __HAL_LOCK(hpcd);
 389              		.loc 1 978 3 is_stmt 1 view .LVU101
 390              		.loc 1 978 3 view .LVU102
 391 0004 8A23     		movs	r3, #138
 392 0006 9B00     		lsls	r3, r3, #2
 393 0008 C35C     		ldrb	r3, [r0, r3]
 394 000a 012B     		cmp	r3, #1
 395 000c 0DD0     		beq	.L22
 396              		.loc 1 978 3 discriminator 2 view .LVU103
 397 000e 8A25     		movs	r5, #138
 398 0010 AD00     		lsls	r5, r5, #2
 399 0012 0123     		movs	r3, #1
 400 0014 4355     		strb	r3, [r0, r5]
 401              		.loc 1 978 3 discriminator 2 view .LVU104
 979:Drivers/STM32F0xx_HAL_Driver/Src/stm32f0xx_hal_pcd.c ****   __HAL_PCD_DISABLE(hpcd);
 402              		.loc 1 979 3 discriminator 2 view .LVU105
 403 0016 0068     		ldr	r0, [r0]
 404              	.LVL29:
 405              		.loc 1 979 3 is_stmt 0 discriminator 2 view .LVU106
 406 0018 FFF7FEFF 		bl	USB_DisableGlobalInt
 407              	.LVL30:
 980:Drivers/STM32F0xx_HAL_Driver/Src/stm32f0xx_hal_pcd.c **** 
 981:Drivers/STM32F0xx_HAL_Driver/Src/stm32f0xx_hal_pcd.c ****   (void)USB_StopDevice(hpcd->Instance);
 408              		.loc 1 981 3 is_stmt 1 discriminator 2 view .LVU107
 409              		.loc 1 981 9 is_stmt 0 discriminator 2 view .LVU108
 410 001c 2068     		ldr	r0, [r4]
 411 001e FFF7FEFF 		bl	USB_StopDevice
 412              	.LVL31:
 982:Drivers/STM32F0xx_HAL_Driver/Src/stm32f0xx_hal_pcd.c **** 
 983:Drivers/STM32F0xx_HAL_Driver/Src/stm32f0xx_hal_pcd.c ****   __HAL_UNLOCK(hpcd);
 413              		.loc 1 983 3 is_stmt 1 discriminator 2 view .LVU109
 414              		.loc 1 983 3 discriminator 2 view .LVU110
 415 0022 0023     		movs	r3, #0
 416 0024 6355     		strb	r3, [r4, r5]
 417              		.loc 1 983 3 discriminator 2 view .LVU111
 984:Drivers/STM32F0xx_HAL_Driver/Src/stm32f0xx_hal_pcd.c **** 
 985:Drivers/STM32F0xx_HAL_Driver/Src/stm32f0xx_hal_pcd.c ****   return HAL_OK;
 418              		.loc 1 985 3 discriminator 2 view .LVU112
 419              		.loc 1 985 10 is_stmt 0 discriminator 2 view .LVU113
 420 0026 0020     		movs	r0, #0
 421              	.L21:
 986:Drivers/STM32F0xx_HAL_Driver/Src/stm32f0xx_hal_pcd.c **** }
 422              		.loc 1 986 1 view .LVU114
 423              		@ sp needed
 424              	.LVL32:
 425              		.loc 1 986 1 view .LVU115
 426 0028 70BD     		pop	{r4, r5, r6, pc}
 427              	.LVL33:
 428              	.L22:
 978:Drivers/STM32F0xx_HAL_Driver/Src/stm32f0xx_hal_pcd.c ****   __HAL_PCD_DISABLE(hpcd);
ARM GAS  /tmp/ccrcqutw.s 			page 27


 429              		.loc 1 978 3 view .LVU116
 430 002a 0220     		movs	r0, #2
 431              	.LVL34:
 978:Drivers/STM32F0xx_HAL_Driver/Src/stm32f0xx_hal_pcd.c ****   __HAL_PCD_DISABLE(hpcd);
 432              		.loc 1 978 3 view .LVU117
 433 002c FCE7     		b	.L21
 434              		.cfi_endproc
 435              	.LFE45:
 437              		.section	.text.HAL_PCD_DeInit,"ax",%progbits
 438              		.align	1
 439              		.global	HAL_PCD_DeInit
 440              		.syntax unified
 441              		.code	16
 442              		.thumb_func
 443              		.fpu softvfp
 445              	HAL_PCD_DeInit:
 446              	.LVL35:
 447              	.LFB41:
 217:Drivers/STM32F0xx_HAL_Driver/Src/stm32f0xx_hal_pcd.c ****   /* Check the PCD handle allocation */
 448              		.loc 1 217 1 is_stmt 1 view -0
 449              		.cfi_startproc
 450              		@ args = 0, pretend = 0, frame = 0
 451              		@ frame_needed = 0, uses_anonymous_args = 0
 217:Drivers/STM32F0xx_HAL_Driver/Src/stm32f0xx_hal_pcd.c ****   /* Check the PCD handle allocation */
 452              		.loc 1 217 1 is_stmt 0 view .LVU119
 453 0000 70B5     		push	{r4, r5, r6, lr}
 454              	.LCFI4:
 455              		.cfi_def_cfa_offset 16
 456              		.cfi_offset 4, -16
 457              		.cfi_offset 5, -12
 458              		.cfi_offset 6, -8
 459              		.cfi_offset 14, -4
 460 0002 041E     		subs	r4, r0, #0
 219:Drivers/STM32F0xx_HAL_Driver/Src/stm32f0xx_hal_pcd.c ****   {
 461              		.loc 1 219 3 is_stmt 1 view .LVU120
 219:Drivers/STM32F0xx_HAL_Driver/Src/stm32f0xx_hal_pcd.c ****   {
 462              		.loc 1 219 6 is_stmt 0 view .LVU121
 463 0004 0BD0     		beq	.L25
 224:Drivers/STM32F0xx_HAL_Driver/Src/stm32f0xx_hal_pcd.c **** 
 464              		.loc 1 224 3 is_stmt 1 view .LVU122
 224:Drivers/STM32F0xx_HAL_Driver/Src/stm32f0xx_hal_pcd.c **** 
 465              		.loc 1 224 15 is_stmt 0 view .LVU123
 466 0006 074D     		ldr	r5, .L26
 467 0008 0323     		movs	r3, #3
 468 000a 4355     		strb	r3, [r0, r5]
 227:Drivers/STM32F0xx_HAL_Driver/Src/stm32f0xx_hal_pcd.c **** 
 469              		.loc 1 227 3 is_stmt 1 view .LVU124
 227:Drivers/STM32F0xx_HAL_Driver/Src/stm32f0xx_hal_pcd.c **** 
 470              		.loc 1 227 9 is_stmt 0 view .LVU125
 471 000c FFF7FEFF 		bl	HAL_PCD_Stop
 472              	.LVL36:
 239:Drivers/STM32F0xx_HAL_Driver/Src/stm32f0xx_hal_pcd.c **** #endif /* USE_HAL_PCD_REGISTER_CALLBACKS */
 473              		.loc 1 239 3 is_stmt 1 view .LVU126
 474 0010 2000     		movs	r0, r4
 475 0012 FFF7FEFF 		bl	HAL_PCD_MspDeInit
 476              	.LVL37:
 242:Drivers/STM32F0xx_HAL_Driver/Src/stm32f0xx_hal_pcd.c **** 
ARM GAS  /tmp/ccrcqutw.s 			page 28


 477              		.loc 1 242 3 view .LVU127
 242:Drivers/STM32F0xx_HAL_Driver/Src/stm32f0xx_hal_pcd.c **** 
 478              		.loc 1 242 15 is_stmt 0 view .LVU128
 479 0016 0023     		movs	r3, #0
 480 0018 6355     		strb	r3, [r4, r5]
 244:Drivers/STM32F0xx_HAL_Driver/Src/stm32f0xx_hal_pcd.c **** }
 481              		.loc 1 244 3 is_stmt 1 view .LVU129
 244:Drivers/STM32F0xx_HAL_Driver/Src/stm32f0xx_hal_pcd.c **** }
 482              		.loc 1 244 10 is_stmt 0 view .LVU130
 483 001a 0020     		movs	r0, #0
 484              	.L24:
 245:Drivers/STM32F0xx_HAL_Driver/Src/stm32f0xx_hal_pcd.c **** 
 485              		.loc 1 245 1 view .LVU131
 486              		@ sp needed
 487              	.LVL38:
 245:Drivers/STM32F0xx_HAL_Driver/Src/stm32f0xx_hal_pcd.c **** 
 488              		.loc 1 245 1 view .LVU132
 489 001c 70BD     		pop	{r4, r5, r6, pc}
 490              	.LVL39:
 491              	.L25:
 221:Drivers/STM32F0xx_HAL_Driver/Src/stm32f0xx_hal_pcd.c ****   }
 492              		.loc 1 221 12 view .LVU133
 493 001e 0120     		movs	r0, #1
 494              	.LVL40:
 221:Drivers/STM32F0xx_HAL_Driver/Src/stm32f0xx_hal_pcd.c ****   }
 495              		.loc 1 221 12 view .LVU134
 496 0020 FCE7     		b	.L24
 497              	.L27:
 498 0022 C046     		.align	2
 499              	.L26:
 500 0024 29020000 		.word	553
 501              		.cfi_endproc
 502              	.LFE41:
 504              		.section	.text.HAL_PCD_DataOutStageCallback,"ax",%progbits
 505              		.align	1
 506              		.weak	HAL_PCD_DataOutStageCallback
 507              		.syntax unified
 508              		.code	16
 509              		.thumb_func
 510              		.fpu softvfp
 512              	HAL_PCD_DataOutStageCallback:
 513              	.LVL41:
 514              	.LFB47:
 987:Drivers/STM32F0xx_HAL_Driver/Src/stm32f0xx_hal_pcd.c **** 
 988:Drivers/STM32F0xx_HAL_Driver/Src/stm32f0xx_hal_pcd.c **** 
 989:Drivers/STM32F0xx_HAL_Driver/Src/stm32f0xx_hal_pcd.c **** /**
 990:Drivers/STM32F0xx_HAL_Driver/Src/stm32f0xx_hal_pcd.c ****   * @brief  This function handles PCD interrupt request.
 991:Drivers/STM32F0xx_HAL_Driver/Src/stm32f0xx_hal_pcd.c ****   * @param  hpcd PCD handle
 992:Drivers/STM32F0xx_HAL_Driver/Src/stm32f0xx_hal_pcd.c ****   * @retval HAL status
 993:Drivers/STM32F0xx_HAL_Driver/Src/stm32f0xx_hal_pcd.c ****   */
 994:Drivers/STM32F0xx_HAL_Driver/Src/stm32f0xx_hal_pcd.c **** void HAL_PCD_IRQHandler(PCD_HandleTypeDef *hpcd)
 995:Drivers/STM32F0xx_HAL_Driver/Src/stm32f0xx_hal_pcd.c **** {
 996:Drivers/STM32F0xx_HAL_Driver/Src/stm32f0xx_hal_pcd.c ****   if (__HAL_PCD_GET_FLAG(hpcd, USB_ISTR_CTR))
 997:Drivers/STM32F0xx_HAL_Driver/Src/stm32f0xx_hal_pcd.c ****   {
 998:Drivers/STM32F0xx_HAL_Driver/Src/stm32f0xx_hal_pcd.c ****     /* servicing of the endpoint correct transfer interrupt */
 999:Drivers/STM32F0xx_HAL_Driver/Src/stm32f0xx_hal_pcd.c ****     /* clear of the CTR flag into the sub */
1000:Drivers/STM32F0xx_HAL_Driver/Src/stm32f0xx_hal_pcd.c ****     (void)PCD_EP_ISR_Handler(hpcd);
ARM GAS  /tmp/ccrcqutw.s 			page 29


1001:Drivers/STM32F0xx_HAL_Driver/Src/stm32f0xx_hal_pcd.c ****   }
1002:Drivers/STM32F0xx_HAL_Driver/Src/stm32f0xx_hal_pcd.c **** 
1003:Drivers/STM32F0xx_HAL_Driver/Src/stm32f0xx_hal_pcd.c ****   if (__HAL_PCD_GET_FLAG(hpcd, USB_ISTR_RESET))
1004:Drivers/STM32F0xx_HAL_Driver/Src/stm32f0xx_hal_pcd.c ****   {
1005:Drivers/STM32F0xx_HAL_Driver/Src/stm32f0xx_hal_pcd.c ****     __HAL_PCD_CLEAR_FLAG(hpcd, USB_ISTR_RESET);
1006:Drivers/STM32F0xx_HAL_Driver/Src/stm32f0xx_hal_pcd.c **** 
1007:Drivers/STM32F0xx_HAL_Driver/Src/stm32f0xx_hal_pcd.c **** #if (USE_HAL_PCD_REGISTER_CALLBACKS == 1U)
1008:Drivers/STM32F0xx_HAL_Driver/Src/stm32f0xx_hal_pcd.c ****     hpcd->ResetCallback(hpcd);
1009:Drivers/STM32F0xx_HAL_Driver/Src/stm32f0xx_hal_pcd.c **** #else
1010:Drivers/STM32F0xx_HAL_Driver/Src/stm32f0xx_hal_pcd.c ****     HAL_PCD_ResetCallback(hpcd);
1011:Drivers/STM32F0xx_HAL_Driver/Src/stm32f0xx_hal_pcd.c **** #endif /* USE_HAL_PCD_REGISTER_CALLBACKS */
1012:Drivers/STM32F0xx_HAL_Driver/Src/stm32f0xx_hal_pcd.c **** 
1013:Drivers/STM32F0xx_HAL_Driver/Src/stm32f0xx_hal_pcd.c ****     (void)HAL_PCD_SetAddress(hpcd, 0U);
1014:Drivers/STM32F0xx_HAL_Driver/Src/stm32f0xx_hal_pcd.c ****   }
1015:Drivers/STM32F0xx_HAL_Driver/Src/stm32f0xx_hal_pcd.c **** 
1016:Drivers/STM32F0xx_HAL_Driver/Src/stm32f0xx_hal_pcd.c ****   if (__HAL_PCD_GET_FLAG(hpcd, USB_ISTR_PMAOVR))
1017:Drivers/STM32F0xx_HAL_Driver/Src/stm32f0xx_hal_pcd.c ****   {
1018:Drivers/STM32F0xx_HAL_Driver/Src/stm32f0xx_hal_pcd.c ****     __HAL_PCD_CLEAR_FLAG(hpcd, USB_ISTR_PMAOVR);
1019:Drivers/STM32F0xx_HAL_Driver/Src/stm32f0xx_hal_pcd.c ****   }
1020:Drivers/STM32F0xx_HAL_Driver/Src/stm32f0xx_hal_pcd.c **** 
1021:Drivers/STM32F0xx_HAL_Driver/Src/stm32f0xx_hal_pcd.c ****   if (__HAL_PCD_GET_FLAG(hpcd, USB_ISTR_ERR))
1022:Drivers/STM32F0xx_HAL_Driver/Src/stm32f0xx_hal_pcd.c ****   {
1023:Drivers/STM32F0xx_HAL_Driver/Src/stm32f0xx_hal_pcd.c ****     __HAL_PCD_CLEAR_FLAG(hpcd, USB_ISTR_ERR);
1024:Drivers/STM32F0xx_HAL_Driver/Src/stm32f0xx_hal_pcd.c ****   }
1025:Drivers/STM32F0xx_HAL_Driver/Src/stm32f0xx_hal_pcd.c **** 
1026:Drivers/STM32F0xx_HAL_Driver/Src/stm32f0xx_hal_pcd.c ****   if (__HAL_PCD_GET_FLAG(hpcd, USB_ISTR_WKUP))
1027:Drivers/STM32F0xx_HAL_Driver/Src/stm32f0xx_hal_pcd.c ****   {
1028:Drivers/STM32F0xx_HAL_Driver/Src/stm32f0xx_hal_pcd.c ****     hpcd->Instance->CNTR &= (uint16_t) ~(USB_CNTR_LPMODE);
1029:Drivers/STM32F0xx_HAL_Driver/Src/stm32f0xx_hal_pcd.c ****     hpcd->Instance->CNTR &= (uint16_t) ~(USB_CNTR_FSUSP);
1030:Drivers/STM32F0xx_HAL_Driver/Src/stm32f0xx_hal_pcd.c **** 
1031:Drivers/STM32F0xx_HAL_Driver/Src/stm32f0xx_hal_pcd.c ****     if (hpcd->LPM_State == LPM_L1)
1032:Drivers/STM32F0xx_HAL_Driver/Src/stm32f0xx_hal_pcd.c ****     {
1033:Drivers/STM32F0xx_HAL_Driver/Src/stm32f0xx_hal_pcd.c ****       hpcd->LPM_State = LPM_L0;
1034:Drivers/STM32F0xx_HAL_Driver/Src/stm32f0xx_hal_pcd.c **** #if (USE_HAL_PCD_REGISTER_CALLBACKS == 1U)
1035:Drivers/STM32F0xx_HAL_Driver/Src/stm32f0xx_hal_pcd.c ****       hpcd->LPMCallback(hpcd, PCD_LPM_L0_ACTIVE);
1036:Drivers/STM32F0xx_HAL_Driver/Src/stm32f0xx_hal_pcd.c **** #else
1037:Drivers/STM32F0xx_HAL_Driver/Src/stm32f0xx_hal_pcd.c ****       HAL_PCDEx_LPM_Callback(hpcd, PCD_LPM_L0_ACTIVE);
1038:Drivers/STM32F0xx_HAL_Driver/Src/stm32f0xx_hal_pcd.c **** #endif /* USE_HAL_PCD_REGISTER_CALLBACKS */
1039:Drivers/STM32F0xx_HAL_Driver/Src/stm32f0xx_hal_pcd.c ****     }
1040:Drivers/STM32F0xx_HAL_Driver/Src/stm32f0xx_hal_pcd.c **** 
1041:Drivers/STM32F0xx_HAL_Driver/Src/stm32f0xx_hal_pcd.c **** #if (USE_HAL_PCD_REGISTER_CALLBACKS == 1U)
1042:Drivers/STM32F0xx_HAL_Driver/Src/stm32f0xx_hal_pcd.c ****     hpcd->ResumeCallback(hpcd);
1043:Drivers/STM32F0xx_HAL_Driver/Src/stm32f0xx_hal_pcd.c **** #else
1044:Drivers/STM32F0xx_HAL_Driver/Src/stm32f0xx_hal_pcd.c ****     HAL_PCD_ResumeCallback(hpcd);
1045:Drivers/STM32F0xx_HAL_Driver/Src/stm32f0xx_hal_pcd.c **** #endif /* USE_HAL_PCD_REGISTER_CALLBACKS */
1046:Drivers/STM32F0xx_HAL_Driver/Src/stm32f0xx_hal_pcd.c **** 
1047:Drivers/STM32F0xx_HAL_Driver/Src/stm32f0xx_hal_pcd.c ****     __HAL_PCD_CLEAR_FLAG(hpcd, USB_ISTR_WKUP);
1048:Drivers/STM32F0xx_HAL_Driver/Src/stm32f0xx_hal_pcd.c ****   }
1049:Drivers/STM32F0xx_HAL_Driver/Src/stm32f0xx_hal_pcd.c **** 
1050:Drivers/STM32F0xx_HAL_Driver/Src/stm32f0xx_hal_pcd.c ****   if (__HAL_PCD_GET_FLAG(hpcd, USB_ISTR_SUSP))
1051:Drivers/STM32F0xx_HAL_Driver/Src/stm32f0xx_hal_pcd.c ****   {
1052:Drivers/STM32F0xx_HAL_Driver/Src/stm32f0xx_hal_pcd.c ****     /* Force low-power mode in the macrocell */
1053:Drivers/STM32F0xx_HAL_Driver/Src/stm32f0xx_hal_pcd.c ****     hpcd->Instance->CNTR |= USB_CNTR_FSUSP;
1054:Drivers/STM32F0xx_HAL_Driver/Src/stm32f0xx_hal_pcd.c **** 
1055:Drivers/STM32F0xx_HAL_Driver/Src/stm32f0xx_hal_pcd.c ****     /* clear of the ISTR bit must be done after setting of CNTR_FSUSP */
1056:Drivers/STM32F0xx_HAL_Driver/Src/stm32f0xx_hal_pcd.c ****     __HAL_PCD_CLEAR_FLAG(hpcd, USB_ISTR_SUSP);
1057:Drivers/STM32F0xx_HAL_Driver/Src/stm32f0xx_hal_pcd.c **** 
ARM GAS  /tmp/ccrcqutw.s 			page 30


1058:Drivers/STM32F0xx_HAL_Driver/Src/stm32f0xx_hal_pcd.c ****     hpcd->Instance->CNTR |= USB_CNTR_LPMODE;
1059:Drivers/STM32F0xx_HAL_Driver/Src/stm32f0xx_hal_pcd.c **** 
1060:Drivers/STM32F0xx_HAL_Driver/Src/stm32f0xx_hal_pcd.c ****     if (__HAL_PCD_GET_FLAG(hpcd, USB_ISTR_WKUP) == 0U)
1061:Drivers/STM32F0xx_HAL_Driver/Src/stm32f0xx_hal_pcd.c ****     {
1062:Drivers/STM32F0xx_HAL_Driver/Src/stm32f0xx_hal_pcd.c **** #if (USE_HAL_PCD_REGISTER_CALLBACKS == 1U)
1063:Drivers/STM32F0xx_HAL_Driver/Src/stm32f0xx_hal_pcd.c ****       hpcd->SuspendCallback(hpcd);
1064:Drivers/STM32F0xx_HAL_Driver/Src/stm32f0xx_hal_pcd.c **** #else
1065:Drivers/STM32F0xx_HAL_Driver/Src/stm32f0xx_hal_pcd.c ****       HAL_PCD_SuspendCallback(hpcd);
1066:Drivers/STM32F0xx_HAL_Driver/Src/stm32f0xx_hal_pcd.c **** #endif /* USE_HAL_PCD_REGISTER_CALLBACKS */
1067:Drivers/STM32F0xx_HAL_Driver/Src/stm32f0xx_hal_pcd.c ****     }
1068:Drivers/STM32F0xx_HAL_Driver/Src/stm32f0xx_hal_pcd.c ****   }
1069:Drivers/STM32F0xx_HAL_Driver/Src/stm32f0xx_hal_pcd.c **** 
1070:Drivers/STM32F0xx_HAL_Driver/Src/stm32f0xx_hal_pcd.c ****   /* Handle LPM Interrupt */
1071:Drivers/STM32F0xx_HAL_Driver/Src/stm32f0xx_hal_pcd.c ****   if (__HAL_PCD_GET_FLAG(hpcd, USB_ISTR_L1REQ))
1072:Drivers/STM32F0xx_HAL_Driver/Src/stm32f0xx_hal_pcd.c ****   {
1073:Drivers/STM32F0xx_HAL_Driver/Src/stm32f0xx_hal_pcd.c ****     __HAL_PCD_CLEAR_FLAG(hpcd, USB_ISTR_L1REQ);
1074:Drivers/STM32F0xx_HAL_Driver/Src/stm32f0xx_hal_pcd.c ****     if (hpcd->LPM_State == LPM_L0)
1075:Drivers/STM32F0xx_HAL_Driver/Src/stm32f0xx_hal_pcd.c ****     {
1076:Drivers/STM32F0xx_HAL_Driver/Src/stm32f0xx_hal_pcd.c ****       /* Force suspend and low-power mode before going to L1 state*/
1077:Drivers/STM32F0xx_HAL_Driver/Src/stm32f0xx_hal_pcd.c ****       hpcd->Instance->CNTR |= USB_CNTR_LPMODE;
1078:Drivers/STM32F0xx_HAL_Driver/Src/stm32f0xx_hal_pcd.c ****       hpcd->Instance->CNTR |= USB_CNTR_FSUSP;
1079:Drivers/STM32F0xx_HAL_Driver/Src/stm32f0xx_hal_pcd.c **** 
1080:Drivers/STM32F0xx_HAL_Driver/Src/stm32f0xx_hal_pcd.c ****       hpcd->LPM_State = LPM_L1;
1081:Drivers/STM32F0xx_HAL_Driver/Src/stm32f0xx_hal_pcd.c ****       hpcd->BESL = ((uint32_t)hpcd->Instance->LPMCSR & USB_LPMCSR_BESL) >> 2;
1082:Drivers/STM32F0xx_HAL_Driver/Src/stm32f0xx_hal_pcd.c **** #if (USE_HAL_PCD_REGISTER_CALLBACKS == 1U)
1083:Drivers/STM32F0xx_HAL_Driver/Src/stm32f0xx_hal_pcd.c ****       hpcd->LPMCallback(hpcd, PCD_LPM_L1_ACTIVE);
1084:Drivers/STM32F0xx_HAL_Driver/Src/stm32f0xx_hal_pcd.c **** #else
1085:Drivers/STM32F0xx_HAL_Driver/Src/stm32f0xx_hal_pcd.c ****       HAL_PCDEx_LPM_Callback(hpcd, PCD_LPM_L1_ACTIVE);
1086:Drivers/STM32F0xx_HAL_Driver/Src/stm32f0xx_hal_pcd.c **** #endif /* USE_HAL_PCD_REGISTER_CALLBACKS */
1087:Drivers/STM32F0xx_HAL_Driver/Src/stm32f0xx_hal_pcd.c ****     }
1088:Drivers/STM32F0xx_HAL_Driver/Src/stm32f0xx_hal_pcd.c ****     else
1089:Drivers/STM32F0xx_HAL_Driver/Src/stm32f0xx_hal_pcd.c ****     {
1090:Drivers/STM32F0xx_HAL_Driver/Src/stm32f0xx_hal_pcd.c **** #if (USE_HAL_PCD_REGISTER_CALLBACKS == 1U)
1091:Drivers/STM32F0xx_HAL_Driver/Src/stm32f0xx_hal_pcd.c ****       hpcd->SuspendCallback(hpcd);
1092:Drivers/STM32F0xx_HAL_Driver/Src/stm32f0xx_hal_pcd.c **** #else
1093:Drivers/STM32F0xx_HAL_Driver/Src/stm32f0xx_hal_pcd.c ****       HAL_PCD_SuspendCallback(hpcd);
1094:Drivers/STM32F0xx_HAL_Driver/Src/stm32f0xx_hal_pcd.c **** #endif /* USE_HAL_PCD_REGISTER_CALLBACKS */
1095:Drivers/STM32F0xx_HAL_Driver/Src/stm32f0xx_hal_pcd.c ****     }
1096:Drivers/STM32F0xx_HAL_Driver/Src/stm32f0xx_hal_pcd.c ****   }
1097:Drivers/STM32F0xx_HAL_Driver/Src/stm32f0xx_hal_pcd.c **** 
1098:Drivers/STM32F0xx_HAL_Driver/Src/stm32f0xx_hal_pcd.c ****   if (__HAL_PCD_GET_FLAG(hpcd, USB_ISTR_SOF))
1099:Drivers/STM32F0xx_HAL_Driver/Src/stm32f0xx_hal_pcd.c ****   {
1100:Drivers/STM32F0xx_HAL_Driver/Src/stm32f0xx_hal_pcd.c ****     __HAL_PCD_CLEAR_FLAG(hpcd, USB_ISTR_SOF);
1101:Drivers/STM32F0xx_HAL_Driver/Src/stm32f0xx_hal_pcd.c **** 
1102:Drivers/STM32F0xx_HAL_Driver/Src/stm32f0xx_hal_pcd.c **** #if (USE_HAL_PCD_REGISTER_CALLBACKS == 1U)
1103:Drivers/STM32F0xx_HAL_Driver/Src/stm32f0xx_hal_pcd.c ****     hpcd->SOFCallback(hpcd);
1104:Drivers/STM32F0xx_HAL_Driver/Src/stm32f0xx_hal_pcd.c **** #else
1105:Drivers/STM32F0xx_HAL_Driver/Src/stm32f0xx_hal_pcd.c ****     HAL_PCD_SOFCallback(hpcd);
1106:Drivers/STM32F0xx_HAL_Driver/Src/stm32f0xx_hal_pcd.c **** #endif /* USE_HAL_PCD_REGISTER_CALLBACKS */
1107:Drivers/STM32F0xx_HAL_Driver/Src/stm32f0xx_hal_pcd.c ****   }
1108:Drivers/STM32F0xx_HAL_Driver/Src/stm32f0xx_hal_pcd.c **** 
1109:Drivers/STM32F0xx_HAL_Driver/Src/stm32f0xx_hal_pcd.c ****   if (__HAL_PCD_GET_FLAG(hpcd, USB_ISTR_ESOF))
1110:Drivers/STM32F0xx_HAL_Driver/Src/stm32f0xx_hal_pcd.c ****   {
1111:Drivers/STM32F0xx_HAL_Driver/Src/stm32f0xx_hal_pcd.c ****     /* clear ESOF flag in ISTR */
1112:Drivers/STM32F0xx_HAL_Driver/Src/stm32f0xx_hal_pcd.c ****     __HAL_PCD_CLEAR_FLAG(hpcd, USB_ISTR_ESOF);
1113:Drivers/STM32F0xx_HAL_Driver/Src/stm32f0xx_hal_pcd.c ****   }
1114:Drivers/STM32F0xx_HAL_Driver/Src/stm32f0xx_hal_pcd.c **** }
ARM GAS  /tmp/ccrcqutw.s 			page 31


1115:Drivers/STM32F0xx_HAL_Driver/Src/stm32f0xx_hal_pcd.c **** 
1116:Drivers/STM32F0xx_HAL_Driver/Src/stm32f0xx_hal_pcd.c **** 
1117:Drivers/STM32F0xx_HAL_Driver/Src/stm32f0xx_hal_pcd.c **** /**
1118:Drivers/STM32F0xx_HAL_Driver/Src/stm32f0xx_hal_pcd.c ****   * @brief  Data OUT stage callback.
1119:Drivers/STM32F0xx_HAL_Driver/Src/stm32f0xx_hal_pcd.c ****   * @param  hpcd PCD handle
1120:Drivers/STM32F0xx_HAL_Driver/Src/stm32f0xx_hal_pcd.c ****   * @param  epnum endpoint number
1121:Drivers/STM32F0xx_HAL_Driver/Src/stm32f0xx_hal_pcd.c ****   * @retval None
1122:Drivers/STM32F0xx_HAL_Driver/Src/stm32f0xx_hal_pcd.c ****   */
1123:Drivers/STM32F0xx_HAL_Driver/Src/stm32f0xx_hal_pcd.c **** __weak void HAL_PCD_DataOutStageCallback(PCD_HandleTypeDef *hpcd, uint8_t epnum)
1124:Drivers/STM32F0xx_HAL_Driver/Src/stm32f0xx_hal_pcd.c **** {
 515              		.loc 1 1124 1 is_stmt 1 view -0
 516              		.cfi_startproc
 517              		@ args = 0, pretend = 0, frame = 0
 518              		@ frame_needed = 0, uses_anonymous_args = 0
 519              		@ link register save eliminated.
1125:Drivers/STM32F0xx_HAL_Driver/Src/stm32f0xx_hal_pcd.c ****   /* Prevent unused argument(s) compilation warning */
1126:Drivers/STM32F0xx_HAL_Driver/Src/stm32f0xx_hal_pcd.c ****   UNUSED(hpcd);
 520              		.loc 1 1126 3 view .LVU136
1127:Drivers/STM32F0xx_HAL_Driver/Src/stm32f0xx_hal_pcd.c ****   UNUSED(epnum);
 521              		.loc 1 1127 3 view .LVU137
1128:Drivers/STM32F0xx_HAL_Driver/Src/stm32f0xx_hal_pcd.c **** 
1129:Drivers/STM32F0xx_HAL_Driver/Src/stm32f0xx_hal_pcd.c ****   /* NOTE : This function should not be modified, when the callback is needed,
1130:Drivers/STM32F0xx_HAL_Driver/Src/stm32f0xx_hal_pcd.c ****             the HAL_PCD_DataOutStageCallback could be implemented in the user file
1131:Drivers/STM32F0xx_HAL_Driver/Src/stm32f0xx_hal_pcd.c ****    */
1132:Drivers/STM32F0xx_HAL_Driver/Src/stm32f0xx_hal_pcd.c **** }
 522              		.loc 1 1132 1 is_stmt 0 view .LVU138
 523              		@ sp needed
 524 0000 7047     		bx	lr
 525              		.cfi_endproc
 526              	.LFE47:
 528              		.section	.text.HAL_PCD_DataInStageCallback,"ax",%progbits
 529              		.align	1
 530              		.weak	HAL_PCD_DataInStageCallback
 531              		.syntax unified
 532              		.code	16
 533              		.thumb_func
 534              		.fpu softvfp
 536              	HAL_PCD_DataInStageCallback:
 537              	.LVL42:
 538              	.LFB48:
1133:Drivers/STM32F0xx_HAL_Driver/Src/stm32f0xx_hal_pcd.c **** 
1134:Drivers/STM32F0xx_HAL_Driver/Src/stm32f0xx_hal_pcd.c **** /**
1135:Drivers/STM32F0xx_HAL_Driver/Src/stm32f0xx_hal_pcd.c ****   * @brief  Data IN stage callback
1136:Drivers/STM32F0xx_HAL_Driver/Src/stm32f0xx_hal_pcd.c ****   * @param  hpcd PCD handle
1137:Drivers/STM32F0xx_HAL_Driver/Src/stm32f0xx_hal_pcd.c ****   * @param  epnum endpoint number
1138:Drivers/STM32F0xx_HAL_Driver/Src/stm32f0xx_hal_pcd.c ****   * @retval None
1139:Drivers/STM32F0xx_HAL_Driver/Src/stm32f0xx_hal_pcd.c ****   */
1140:Drivers/STM32F0xx_HAL_Driver/Src/stm32f0xx_hal_pcd.c **** __weak void HAL_PCD_DataInStageCallback(PCD_HandleTypeDef *hpcd, uint8_t epnum)
1141:Drivers/STM32F0xx_HAL_Driver/Src/stm32f0xx_hal_pcd.c **** {
 539              		.loc 1 1141 1 is_stmt 1 view -0
 540              		.cfi_startproc
 541              		@ args = 0, pretend = 0, frame = 0
 542              		@ frame_needed = 0, uses_anonymous_args = 0
 543              		@ link register save eliminated.
1142:Drivers/STM32F0xx_HAL_Driver/Src/stm32f0xx_hal_pcd.c ****   /* Prevent unused argument(s) compilation warning */
1143:Drivers/STM32F0xx_HAL_Driver/Src/stm32f0xx_hal_pcd.c ****   UNUSED(hpcd);
 544              		.loc 1 1143 3 view .LVU140
ARM GAS  /tmp/ccrcqutw.s 			page 32


1144:Drivers/STM32F0xx_HAL_Driver/Src/stm32f0xx_hal_pcd.c ****   UNUSED(epnum);
 545              		.loc 1 1144 3 view .LVU141
1145:Drivers/STM32F0xx_HAL_Driver/Src/stm32f0xx_hal_pcd.c **** 
1146:Drivers/STM32F0xx_HAL_Driver/Src/stm32f0xx_hal_pcd.c ****   /* NOTE : This function should not be modified, when the callback is needed,
1147:Drivers/STM32F0xx_HAL_Driver/Src/stm32f0xx_hal_pcd.c ****             the HAL_PCD_DataInStageCallback could be implemented in the user file
1148:Drivers/STM32F0xx_HAL_Driver/Src/stm32f0xx_hal_pcd.c ****    */
1149:Drivers/STM32F0xx_HAL_Driver/Src/stm32f0xx_hal_pcd.c **** }
 546              		.loc 1 1149 1 is_stmt 0 view .LVU142
 547              		@ sp needed
 548 0000 7047     		bx	lr
 549              		.cfi_endproc
 550              	.LFE48:
 552              		.section	.text.HAL_PCD_SetupStageCallback,"ax",%progbits
 553              		.align	1
 554              		.weak	HAL_PCD_SetupStageCallback
 555              		.syntax unified
 556              		.code	16
 557              		.thumb_func
 558              		.fpu softvfp
 560              	HAL_PCD_SetupStageCallback:
 561              	.LVL43:
 562              	.LFB49:
1150:Drivers/STM32F0xx_HAL_Driver/Src/stm32f0xx_hal_pcd.c **** /**
1151:Drivers/STM32F0xx_HAL_Driver/Src/stm32f0xx_hal_pcd.c ****   * @brief  Setup stage callback
1152:Drivers/STM32F0xx_HAL_Driver/Src/stm32f0xx_hal_pcd.c ****   * @param  hpcd PCD handle
1153:Drivers/STM32F0xx_HAL_Driver/Src/stm32f0xx_hal_pcd.c ****   * @retval None
1154:Drivers/STM32F0xx_HAL_Driver/Src/stm32f0xx_hal_pcd.c ****   */
1155:Drivers/STM32F0xx_HAL_Driver/Src/stm32f0xx_hal_pcd.c **** __weak void HAL_PCD_SetupStageCallback(PCD_HandleTypeDef *hpcd)
1156:Drivers/STM32F0xx_HAL_Driver/Src/stm32f0xx_hal_pcd.c **** {
 563              		.loc 1 1156 1 is_stmt 1 view -0
 564              		.cfi_startproc
 565              		@ args = 0, pretend = 0, frame = 0
 566              		@ frame_needed = 0, uses_anonymous_args = 0
 567              		@ link register save eliminated.
1157:Drivers/STM32F0xx_HAL_Driver/Src/stm32f0xx_hal_pcd.c ****   /* Prevent unused argument(s) compilation warning */
1158:Drivers/STM32F0xx_HAL_Driver/Src/stm32f0xx_hal_pcd.c ****   UNUSED(hpcd);
 568              		.loc 1 1158 3 view .LVU144
1159:Drivers/STM32F0xx_HAL_Driver/Src/stm32f0xx_hal_pcd.c **** 
1160:Drivers/STM32F0xx_HAL_Driver/Src/stm32f0xx_hal_pcd.c ****   /* NOTE : This function should not be modified, when the callback is needed,
1161:Drivers/STM32F0xx_HAL_Driver/Src/stm32f0xx_hal_pcd.c ****             the HAL_PCD_SetupStageCallback could be implemented in the user file
1162:Drivers/STM32F0xx_HAL_Driver/Src/stm32f0xx_hal_pcd.c ****    */
1163:Drivers/STM32F0xx_HAL_Driver/Src/stm32f0xx_hal_pcd.c **** }
 569              		.loc 1 1163 1 is_stmt 0 view .LVU145
 570              		@ sp needed
 571 0000 7047     		bx	lr
 572              		.cfi_endproc
 573              	.LFE49:
 575              		.section	.text.HAL_PCD_SOFCallback,"ax",%progbits
 576              		.align	1
 577              		.weak	HAL_PCD_SOFCallback
 578              		.syntax unified
 579              		.code	16
 580              		.thumb_func
 581              		.fpu softvfp
 583              	HAL_PCD_SOFCallback:
 584              	.LVL44:
 585              	.LFB50:
ARM GAS  /tmp/ccrcqutw.s 			page 33


1164:Drivers/STM32F0xx_HAL_Driver/Src/stm32f0xx_hal_pcd.c **** 
1165:Drivers/STM32F0xx_HAL_Driver/Src/stm32f0xx_hal_pcd.c **** /**
1166:Drivers/STM32F0xx_HAL_Driver/Src/stm32f0xx_hal_pcd.c ****   * @brief  USB Start Of Frame callback.
1167:Drivers/STM32F0xx_HAL_Driver/Src/stm32f0xx_hal_pcd.c ****   * @param  hpcd PCD handle
1168:Drivers/STM32F0xx_HAL_Driver/Src/stm32f0xx_hal_pcd.c ****   * @retval None
1169:Drivers/STM32F0xx_HAL_Driver/Src/stm32f0xx_hal_pcd.c ****   */
1170:Drivers/STM32F0xx_HAL_Driver/Src/stm32f0xx_hal_pcd.c **** __weak void HAL_PCD_SOFCallback(PCD_HandleTypeDef *hpcd)
1171:Drivers/STM32F0xx_HAL_Driver/Src/stm32f0xx_hal_pcd.c **** {
 586              		.loc 1 1171 1 is_stmt 1 view -0
 587              		.cfi_startproc
 588              		@ args = 0, pretend = 0, frame = 0
 589              		@ frame_needed = 0, uses_anonymous_args = 0
 590              		@ link register save eliminated.
1172:Drivers/STM32F0xx_HAL_Driver/Src/stm32f0xx_hal_pcd.c ****   /* Prevent unused argument(s) compilation warning */
1173:Drivers/STM32F0xx_HAL_Driver/Src/stm32f0xx_hal_pcd.c ****   UNUSED(hpcd);
 591              		.loc 1 1173 3 view .LVU147
1174:Drivers/STM32F0xx_HAL_Driver/Src/stm32f0xx_hal_pcd.c **** 
1175:Drivers/STM32F0xx_HAL_Driver/Src/stm32f0xx_hal_pcd.c ****   /* NOTE : This function should not be modified, when the callback is needed,
1176:Drivers/STM32F0xx_HAL_Driver/Src/stm32f0xx_hal_pcd.c ****             the HAL_PCD_SOFCallback could be implemented in the user file
1177:Drivers/STM32F0xx_HAL_Driver/Src/stm32f0xx_hal_pcd.c ****    */
1178:Drivers/STM32F0xx_HAL_Driver/Src/stm32f0xx_hal_pcd.c **** }
 592              		.loc 1 1178 1 is_stmt 0 view .LVU148
 593              		@ sp needed
 594 0000 7047     		bx	lr
 595              		.cfi_endproc
 596              	.LFE50:
 598              		.section	.text.HAL_PCD_ResetCallback,"ax",%progbits
 599              		.align	1
 600              		.weak	HAL_PCD_ResetCallback
 601              		.syntax unified
 602              		.code	16
 603              		.thumb_func
 604              		.fpu softvfp
 606              	HAL_PCD_ResetCallback:
 607              	.LVL45:
 608              	.LFB51:
1179:Drivers/STM32F0xx_HAL_Driver/Src/stm32f0xx_hal_pcd.c **** 
1180:Drivers/STM32F0xx_HAL_Driver/Src/stm32f0xx_hal_pcd.c **** /**
1181:Drivers/STM32F0xx_HAL_Driver/Src/stm32f0xx_hal_pcd.c ****   * @brief  USB Reset callback.
1182:Drivers/STM32F0xx_HAL_Driver/Src/stm32f0xx_hal_pcd.c ****   * @param  hpcd PCD handle
1183:Drivers/STM32F0xx_HAL_Driver/Src/stm32f0xx_hal_pcd.c ****   * @retval None
1184:Drivers/STM32F0xx_HAL_Driver/Src/stm32f0xx_hal_pcd.c ****   */
1185:Drivers/STM32F0xx_HAL_Driver/Src/stm32f0xx_hal_pcd.c **** __weak void HAL_PCD_ResetCallback(PCD_HandleTypeDef *hpcd)
1186:Drivers/STM32F0xx_HAL_Driver/Src/stm32f0xx_hal_pcd.c **** {
 609              		.loc 1 1186 1 is_stmt 1 view -0
 610              		.cfi_startproc
 611              		@ args = 0, pretend = 0, frame = 0
 612              		@ frame_needed = 0, uses_anonymous_args = 0
 613              		@ link register save eliminated.
1187:Drivers/STM32F0xx_HAL_Driver/Src/stm32f0xx_hal_pcd.c ****   /* Prevent unused argument(s) compilation warning */
1188:Drivers/STM32F0xx_HAL_Driver/Src/stm32f0xx_hal_pcd.c ****   UNUSED(hpcd);
 614              		.loc 1 1188 3 view .LVU150
1189:Drivers/STM32F0xx_HAL_Driver/Src/stm32f0xx_hal_pcd.c **** 
1190:Drivers/STM32F0xx_HAL_Driver/Src/stm32f0xx_hal_pcd.c ****   /* NOTE : This function should not be modified, when the callback is needed,
1191:Drivers/STM32F0xx_HAL_Driver/Src/stm32f0xx_hal_pcd.c ****             the HAL_PCD_ResetCallback could be implemented in the user file
1192:Drivers/STM32F0xx_HAL_Driver/Src/stm32f0xx_hal_pcd.c ****    */
1193:Drivers/STM32F0xx_HAL_Driver/Src/stm32f0xx_hal_pcd.c **** }
ARM GAS  /tmp/ccrcqutw.s 			page 34


 615              		.loc 1 1193 1 is_stmt 0 view .LVU151
 616              		@ sp needed
 617 0000 7047     		bx	lr
 618              		.cfi_endproc
 619              	.LFE51:
 621              		.section	.text.HAL_PCD_SuspendCallback,"ax",%progbits
 622              		.align	1
 623              		.weak	HAL_PCD_SuspendCallback
 624              		.syntax unified
 625              		.code	16
 626              		.thumb_func
 627              		.fpu softvfp
 629              	HAL_PCD_SuspendCallback:
 630              	.LVL46:
 631              	.LFB52:
1194:Drivers/STM32F0xx_HAL_Driver/Src/stm32f0xx_hal_pcd.c **** 
1195:Drivers/STM32F0xx_HAL_Driver/Src/stm32f0xx_hal_pcd.c **** /**
1196:Drivers/STM32F0xx_HAL_Driver/Src/stm32f0xx_hal_pcd.c ****   * @brief  Suspend event callback.
1197:Drivers/STM32F0xx_HAL_Driver/Src/stm32f0xx_hal_pcd.c ****   * @param  hpcd PCD handle
1198:Drivers/STM32F0xx_HAL_Driver/Src/stm32f0xx_hal_pcd.c ****   * @retval None
1199:Drivers/STM32F0xx_HAL_Driver/Src/stm32f0xx_hal_pcd.c ****   */
1200:Drivers/STM32F0xx_HAL_Driver/Src/stm32f0xx_hal_pcd.c **** __weak void HAL_PCD_SuspendCallback(PCD_HandleTypeDef *hpcd)
1201:Drivers/STM32F0xx_HAL_Driver/Src/stm32f0xx_hal_pcd.c **** {
 632              		.loc 1 1201 1 is_stmt 1 view -0
 633              		.cfi_startproc
 634              		@ args = 0, pretend = 0, frame = 0
 635              		@ frame_needed = 0, uses_anonymous_args = 0
 636              		@ link register save eliminated.
1202:Drivers/STM32F0xx_HAL_Driver/Src/stm32f0xx_hal_pcd.c ****   /* Prevent unused argument(s) compilation warning */
1203:Drivers/STM32F0xx_HAL_Driver/Src/stm32f0xx_hal_pcd.c ****   UNUSED(hpcd);
 637              		.loc 1 1203 3 view .LVU153
1204:Drivers/STM32F0xx_HAL_Driver/Src/stm32f0xx_hal_pcd.c **** 
1205:Drivers/STM32F0xx_HAL_Driver/Src/stm32f0xx_hal_pcd.c ****   /* NOTE : This function should not be modified, when the callback is needed,
1206:Drivers/STM32F0xx_HAL_Driver/Src/stm32f0xx_hal_pcd.c ****             the HAL_PCD_SuspendCallback could be implemented in the user file
1207:Drivers/STM32F0xx_HAL_Driver/Src/stm32f0xx_hal_pcd.c ****    */
1208:Drivers/STM32F0xx_HAL_Driver/Src/stm32f0xx_hal_pcd.c **** }
 638              		.loc 1 1208 1 is_stmt 0 view .LVU154
 639              		@ sp needed
 640 0000 7047     		bx	lr
 641              		.cfi_endproc
 642              	.LFE52:
 644              		.section	.text.HAL_PCD_ResumeCallback,"ax",%progbits
 645              		.align	1
 646              		.weak	HAL_PCD_ResumeCallback
 647              		.syntax unified
 648              		.code	16
 649              		.thumb_func
 650              		.fpu softvfp
 652              	HAL_PCD_ResumeCallback:
 653              	.LVL47:
 654              	.LFB53:
1209:Drivers/STM32F0xx_HAL_Driver/Src/stm32f0xx_hal_pcd.c **** 
1210:Drivers/STM32F0xx_HAL_Driver/Src/stm32f0xx_hal_pcd.c **** /**
1211:Drivers/STM32F0xx_HAL_Driver/Src/stm32f0xx_hal_pcd.c ****   * @brief  Resume event callback.
1212:Drivers/STM32F0xx_HAL_Driver/Src/stm32f0xx_hal_pcd.c ****   * @param  hpcd PCD handle
1213:Drivers/STM32F0xx_HAL_Driver/Src/stm32f0xx_hal_pcd.c ****   * @retval None
1214:Drivers/STM32F0xx_HAL_Driver/Src/stm32f0xx_hal_pcd.c ****   */
ARM GAS  /tmp/ccrcqutw.s 			page 35


1215:Drivers/STM32F0xx_HAL_Driver/Src/stm32f0xx_hal_pcd.c **** __weak void HAL_PCD_ResumeCallback(PCD_HandleTypeDef *hpcd)
1216:Drivers/STM32F0xx_HAL_Driver/Src/stm32f0xx_hal_pcd.c **** {
 655              		.loc 1 1216 1 is_stmt 1 view -0
 656              		.cfi_startproc
 657              		@ args = 0, pretend = 0, frame = 0
 658              		@ frame_needed = 0, uses_anonymous_args = 0
 659              		@ link register save eliminated.
1217:Drivers/STM32F0xx_HAL_Driver/Src/stm32f0xx_hal_pcd.c ****   /* Prevent unused argument(s) compilation warning */
1218:Drivers/STM32F0xx_HAL_Driver/Src/stm32f0xx_hal_pcd.c ****   UNUSED(hpcd);
 660              		.loc 1 1218 3 view .LVU156
1219:Drivers/STM32F0xx_HAL_Driver/Src/stm32f0xx_hal_pcd.c **** 
1220:Drivers/STM32F0xx_HAL_Driver/Src/stm32f0xx_hal_pcd.c ****   /* NOTE : This function should not be modified, when the callback is needed,
1221:Drivers/STM32F0xx_HAL_Driver/Src/stm32f0xx_hal_pcd.c ****             the HAL_PCD_ResumeCallback could be implemented in the user file
1222:Drivers/STM32F0xx_HAL_Driver/Src/stm32f0xx_hal_pcd.c ****    */
1223:Drivers/STM32F0xx_HAL_Driver/Src/stm32f0xx_hal_pcd.c **** }
 661              		.loc 1 1223 1 is_stmt 0 view .LVU157
 662              		@ sp needed
 663 0000 7047     		bx	lr
 664              		.cfi_endproc
 665              	.LFE53:
 667              		.section	.text.HAL_PCD_ISOOUTIncompleteCallback,"ax",%progbits
 668              		.align	1
 669              		.weak	HAL_PCD_ISOOUTIncompleteCallback
 670              		.syntax unified
 671              		.code	16
 672              		.thumb_func
 673              		.fpu softvfp
 675              	HAL_PCD_ISOOUTIncompleteCallback:
 676              	.LVL48:
 677              	.LFB54:
1224:Drivers/STM32F0xx_HAL_Driver/Src/stm32f0xx_hal_pcd.c **** 
1225:Drivers/STM32F0xx_HAL_Driver/Src/stm32f0xx_hal_pcd.c **** /**
1226:Drivers/STM32F0xx_HAL_Driver/Src/stm32f0xx_hal_pcd.c ****   * @brief  Incomplete ISO OUT callback.
1227:Drivers/STM32F0xx_HAL_Driver/Src/stm32f0xx_hal_pcd.c ****   * @param  hpcd PCD handle
1228:Drivers/STM32F0xx_HAL_Driver/Src/stm32f0xx_hal_pcd.c ****   * @param  epnum endpoint number
1229:Drivers/STM32F0xx_HAL_Driver/Src/stm32f0xx_hal_pcd.c ****   * @retval None
1230:Drivers/STM32F0xx_HAL_Driver/Src/stm32f0xx_hal_pcd.c ****   */
1231:Drivers/STM32F0xx_HAL_Driver/Src/stm32f0xx_hal_pcd.c **** __weak void HAL_PCD_ISOOUTIncompleteCallback(PCD_HandleTypeDef *hpcd, uint8_t epnum)
1232:Drivers/STM32F0xx_HAL_Driver/Src/stm32f0xx_hal_pcd.c **** {
 678              		.loc 1 1232 1 is_stmt 1 view -0
 679              		.cfi_startproc
 680              		@ args = 0, pretend = 0, frame = 0
 681              		@ frame_needed = 0, uses_anonymous_args = 0
 682              		@ link register save eliminated.
1233:Drivers/STM32F0xx_HAL_Driver/Src/stm32f0xx_hal_pcd.c ****   /* Prevent unused argument(s) compilation warning */
1234:Drivers/STM32F0xx_HAL_Driver/Src/stm32f0xx_hal_pcd.c ****   UNUSED(hpcd);
 683              		.loc 1 1234 3 view .LVU159
1235:Drivers/STM32F0xx_HAL_Driver/Src/stm32f0xx_hal_pcd.c ****   UNUSED(epnum);
 684              		.loc 1 1235 3 view .LVU160
1236:Drivers/STM32F0xx_HAL_Driver/Src/stm32f0xx_hal_pcd.c **** 
1237:Drivers/STM32F0xx_HAL_Driver/Src/stm32f0xx_hal_pcd.c ****   /* NOTE : This function should not be modified, when the callback is needed,
1238:Drivers/STM32F0xx_HAL_Driver/Src/stm32f0xx_hal_pcd.c ****             the HAL_PCD_ISOOUTIncompleteCallback could be implemented in the user file
1239:Drivers/STM32F0xx_HAL_Driver/Src/stm32f0xx_hal_pcd.c ****    */
1240:Drivers/STM32F0xx_HAL_Driver/Src/stm32f0xx_hal_pcd.c **** }
 685              		.loc 1 1240 1 is_stmt 0 view .LVU161
 686              		@ sp needed
 687 0000 7047     		bx	lr
ARM GAS  /tmp/ccrcqutw.s 			page 36


 688              		.cfi_endproc
 689              	.LFE54:
 691              		.section	.text.HAL_PCD_ISOINIncompleteCallback,"ax",%progbits
 692              		.align	1
 693              		.weak	HAL_PCD_ISOINIncompleteCallback
 694              		.syntax unified
 695              		.code	16
 696              		.thumb_func
 697              		.fpu softvfp
 699              	HAL_PCD_ISOINIncompleteCallback:
 700              	.LVL49:
 701              	.LFB55:
1241:Drivers/STM32F0xx_HAL_Driver/Src/stm32f0xx_hal_pcd.c **** 
1242:Drivers/STM32F0xx_HAL_Driver/Src/stm32f0xx_hal_pcd.c **** /**
1243:Drivers/STM32F0xx_HAL_Driver/Src/stm32f0xx_hal_pcd.c ****   * @brief  Incomplete ISO IN callback.
1244:Drivers/STM32F0xx_HAL_Driver/Src/stm32f0xx_hal_pcd.c ****   * @param  hpcd PCD handle
1245:Drivers/STM32F0xx_HAL_Driver/Src/stm32f0xx_hal_pcd.c ****   * @param  epnum endpoint number
1246:Drivers/STM32F0xx_HAL_Driver/Src/stm32f0xx_hal_pcd.c ****   * @retval None
1247:Drivers/STM32F0xx_HAL_Driver/Src/stm32f0xx_hal_pcd.c ****   */
1248:Drivers/STM32F0xx_HAL_Driver/Src/stm32f0xx_hal_pcd.c **** __weak void HAL_PCD_ISOINIncompleteCallback(PCD_HandleTypeDef *hpcd, uint8_t epnum)
1249:Drivers/STM32F0xx_HAL_Driver/Src/stm32f0xx_hal_pcd.c **** {
 702              		.loc 1 1249 1 is_stmt 1 view -0
 703              		.cfi_startproc
 704              		@ args = 0, pretend = 0, frame = 0
 705              		@ frame_needed = 0, uses_anonymous_args = 0
 706              		@ link register save eliminated.
1250:Drivers/STM32F0xx_HAL_Driver/Src/stm32f0xx_hal_pcd.c ****   /* Prevent unused argument(s) compilation warning */
1251:Drivers/STM32F0xx_HAL_Driver/Src/stm32f0xx_hal_pcd.c ****   UNUSED(hpcd);
 707              		.loc 1 1251 3 view .LVU163
1252:Drivers/STM32F0xx_HAL_Driver/Src/stm32f0xx_hal_pcd.c ****   UNUSED(epnum);
 708              		.loc 1 1252 3 view .LVU164
1253:Drivers/STM32F0xx_HAL_Driver/Src/stm32f0xx_hal_pcd.c **** 
1254:Drivers/STM32F0xx_HAL_Driver/Src/stm32f0xx_hal_pcd.c ****   /* NOTE : This function should not be modified, when the callback is needed,
1255:Drivers/STM32F0xx_HAL_Driver/Src/stm32f0xx_hal_pcd.c ****             the HAL_PCD_ISOINIncompleteCallback could be implemented in the user file
1256:Drivers/STM32F0xx_HAL_Driver/Src/stm32f0xx_hal_pcd.c ****    */
1257:Drivers/STM32F0xx_HAL_Driver/Src/stm32f0xx_hal_pcd.c **** }
 709              		.loc 1 1257 1 is_stmt 0 view .LVU165
 710              		@ sp needed
 711 0000 7047     		bx	lr
 712              		.cfi_endproc
 713              	.LFE55:
 715              		.section	.text.HAL_PCD_ConnectCallback,"ax",%progbits
 716              		.align	1
 717              		.weak	HAL_PCD_ConnectCallback
 718              		.syntax unified
 719              		.code	16
 720              		.thumb_func
 721              		.fpu softvfp
 723              	HAL_PCD_ConnectCallback:
 724              	.LVL50:
 725              	.LFB56:
1258:Drivers/STM32F0xx_HAL_Driver/Src/stm32f0xx_hal_pcd.c **** 
1259:Drivers/STM32F0xx_HAL_Driver/Src/stm32f0xx_hal_pcd.c **** /**
1260:Drivers/STM32F0xx_HAL_Driver/Src/stm32f0xx_hal_pcd.c ****   * @brief  Connection event callback.
1261:Drivers/STM32F0xx_HAL_Driver/Src/stm32f0xx_hal_pcd.c ****   * @param  hpcd PCD handle
1262:Drivers/STM32F0xx_HAL_Driver/Src/stm32f0xx_hal_pcd.c ****   * @retval None
1263:Drivers/STM32F0xx_HAL_Driver/Src/stm32f0xx_hal_pcd.c ****   */
ARM GAS  /tmp/ccrcqutw.s 			page 37


1264:Drivers/STM32F0xx_HAL_Driver/Src/stm32f0xx_hal_pcd.c **** __weak void HAL_PCD_ConnectCallback(PCD_HandleTypeDef *hpcd)
1265:Drivers/STM32F0xx_HAL_Driver/Src/stm32f0xx_hal_pcd.c **** {
 726              		.loc 1 1265 1 is_stmt 1 view -0
 727              		.cfi_startproc
 728              		@ args = 0, pretend = 0, frame = 0
 729              		@ frame_needed = 0, uses_anonymous_args = 0
 730              		@ link register save eliminated.
1266:Drivers/STM32F0xx_HAL_Driver/Src/stm32f0xx_hal_pcd.c ****   /* Prevent unused argument(s) compilation warning */
1267:Drivers/STM32F0xx_HAL_Driver/Src/stm32f0xx_hal_pcd.c ****   UNUSED(hpcd);
 731              		.loc 1 1267 3 view .LVU167
1268:Drivers/STM32F0xx_HAL_Driver/Src/stm32f0xx_hal_pcd.c **** 
1269:Drivers/STM32F0xx_HAL_Driver/Src/stm32f0xx_hal_pcd.c ****   /* NOTE : This function should not be modified, when the callback is needed,
1270:Drivers/STM32F0xx_HAL_Driver/Src/stm32f0xx_hal_pcd.c ****             the HAL_PCD_ConnectCallback could be implemented in the user file
1271:Drivers/STM32F0xx_HAL_Driver/Src/stm32f0xx_hal_pcd.c ****    */
1272:Drivers/STM32F0xx_HAL_Driver/Src/stm32f0xx_hal_pcd.c **** }
 732              		.loc 1 1272 1 is_stmt 0 view .LVU168
 733              		@ sp needed
 734 0000 7047     		bx	lr
 735              		.cfi_endproc
 736              	.LFE56:
 738              		.section	.text.HAL_PCD_DisconnectCallback,"ax",%progbits
 739              		.align	1
 740              		.weak	HAL_PCD_DisconnectCallback
 741              		.syntax unified
 742              		.code	16
 743              		.thumb_func
 744              		.fpu softvfp
 746              	HAL_PCD_DisconnectCallback:
 747              	.LVL51:
 748              	.LFB57:
1273:Drivers/STM32F0xx_HAL_Driver/Src/stm32f0xx_hal_pcd.c **** 
1274:Drivers/STM32F0xx_HAL_Driver/Src/stm32f0xx_hal_pcd.c **** /**
1275:Drivers/STM32F0xx_HAL_Driver/Src/stm32f0xx_hal_pcd.c ****   * @brief  Disconnection event callback.
1276:Drivers/STM32F0xx_HAL_Driver/Src/stm32f0xx_hal_pcd.c ****   * @param  hpcd PCD handle
1277:Drivers/STM32F0xx_HAL_Driver/Src/stm32f0xx_hal_pcd.c ****   * @retval None
1278:Drivers/STM32F0xx_HAL_Driver/Src/stm32f0xx_hal_pcd.c ****   */
1279:Drivers/STM32F0xx_HAL_Driver/Src/stm32f0xx_hal_pcd.c **** __weak void HAL_PCD_DisconnectCallback(PCD_HandleTypeDef *hpcd)
1280:Drivers/STM32F0xx_HAL_Driver/Src/stm32f0xx_hal_pcd.c **** {
 749              		.loc 1 1280 1 is_stmt 1 view -0
 750              		.cfi_startproc
 751              		@ args = 0, pretend = 0, frame = 0
 752              		@ frame_needed = 0, uses_anonymous_args = 0
 753              		@ link register save eliminated.
1281:Drivers/STM32F0xx_HAL_Driver/Src/stm32f0xx_hal_pcd.c ****   /* Prevent unused argument(s) compilation warning */
1282:Drivers/STM32F0xx_HAL_Driver/Src/stm32f0xx_hal_pcd.c ****   UNUSED(hpcd);
 754              		.loc 1 1282 3 view .LVU170
1283:Drivers/STM32F0xx_HAL_Driver/Src/stm32f0xx_hal_pcd.c **** 
1284:Drivers/STM32F0xx_HAL_Driver/Src/stm32f0xx_hal_pcd.c ****   /* NOTE : This function should not be modified, when the callback is needed,
1285:Drivers/STM32F0xx_HAL_Driver/Src/stm32f0xx_hal_pcd.c ****             the HAL_PCD_DisconnectCallback could be implemented in the user file
1286:Drivers/STM32F0xx_HAL_Driver/Src/stm32f0xx_hal_pcd.c ****    */
1287:Drivers/STM32F0xx_HAL_Driver/Src/stm32f0xx_hal_pcd.c **** }
 755              		.loc 1 1287 1 is_stmt 0 view .LVU171
 756              		@ sp needed
 757 0000 7047     		bx	lr
 758              		.cfi_endproc
 759              	.LFE57:
 761              		.section	.text.HAL_PCD_DevConnect,"ax",%progbits
ARM GAS  /tmp/ccrcqutw.s 			page 38


 762              		.align	1
 763              		.global	HAL_PCD_DevConnect
 764              		.syntax unified
 765              		.code	16
 766              		.thumb_func
 767              		.fpu softvfp
 769              	HAL_PCD_DevConnect:
 770              	.LVL52:
 771              	.LFB58:
1288:Drivers/STM32F0xx_HAL_Driver/Src/stm32f0xx_hal_pcd.c **** 
1289:Drivers/STM32F0xx_HAL_Driver/Src/stm32f0xx_hal_pcd.c **** /**
1290:Drivers/STM32F0xx_HAL_Driver/Src/stm32f0xx_hal_pcd.c ****   * @}
1291:Drivers/STM32F0xx_HAL_Driver/Src/stm32f0xx_hal_pcd.c ****   */
1292:Drivers/STM32F0xx_HAL_Driver/Src/stm32f0xx_hal_pcd.c **** 
1293:Drivers/STM32F0xx_HAL_Driver/Src/stm32f0xx_hal_pcd.c **** /** @defgroup PCD_Exported_Functions_Group3 Peripheral Control functions
1294:Drivers/STM32F0xx_HAL_Driver/Src/stm32f0xx_hal_pcd.c ****  *  @brief   management functions
1295:Drivers/STM32F0xx_HAL_Driver/Src/stm32f0xx_hal_pcd.c ****  *
1296:Drivers/STM32F0xx_HAL_Driver/Src/stm32f0xx_hal_pcd.c **** @verbatim
1297:Drivers/STM32F0xx_HAL_Driver/Src/stm32f0xx_hal_pcd.c ****  ===============================================================================
1298:Drivers/STM32F0xx_HAL_Driver/Src/stm32f0xx_hal_pcd.c ****                       ##### Peripheral Control functions #####
1299:Drivers/STM32F0xx_HAL_Driver/Src/stm32f0xx_hal_pcd.c ****  ===============================================================================
1300:Drivers/STM32F0xx_HAL_Driver/Src/stm32f0xx_hal_pcd.c ****     [..]
1301:Drivers/STM32F0xx_HAL_Driver/Src/stm32f0xx_hal_pcd.c ****     This subsection provides a set of functions allowing to control the PCD data
1302:Drivers/STM32F0xx_HAL_Driver/Src/stm32f0xx_hal_pcd.c ****     transfers.
1303:Drivers/STM32F0xx_HAL_Driver/Src/stm32f0xx_hal_pcd.c **** 
1304:Drivers/STM32F0xx_HAL_Driver/Src/stm32f0xx_hal_pcd.c **** @endverbatim
1305:Drivers/STM32F0xx_HAL_Driver/Src/stm32f0xx_hal_pcd.c ****   * @{
1306:Drivers/STM32F0xx_HAL_Driver/Src/stm32f0xx_hal_pcd.c ****   */
1307:Drivers/STM32F0xx_HAL_Driver/Src/stm32f0xx_hal_pcd.c **** 
1308:Drivers/STM32F0xx_HAL_Driver/Src/stm32f0xx_hal_pcd.c **** /**
1309:Drivers/STM32F0xx_HAL_Driver/Src/stm32f0xx_hal_pcd.c ****   * @brief  Connect the USB device
1310:Drivers/STM32F0xx_HAL_Driver/Src/stm32f0xx_hal_pcd.c ****   * @param  hpcd PCD handle
1311:Drivers/STM32F0xx_HAL_Driver/Src/stm32f0xx_hal_pcd.c ****   * @retval HAL status
1312:Drivers/STM32F0xx_HAL_Driver/Src/stm32f0xx_hal_pcd.c ****   */
1313:Drivers/STM32F0xx_HAL_Driver/Src/stm32f0xx_hal_pcd.c **** HAL_StatusTypeDef HAL_PCD_DevConnect(PCD_HandleTypeDef *hpcd)
1314:Drivers/STM32F0xx_HAL_Driver/Src/stm32f0xx_hal_pcd.c **** {
 772              		.loc 1 1314 1 is_stmt 1 view -0
 773              		.cfi_startproc
 774              		@ args = 0, pretend = 0, frame = 0
 775              		@ frame_needed = 0, uses_anonymous_args = 0
 776              		.loc 1 1314 1 is_stmt 0 view .LVU173
 777 0000 70B5     		push	{r4, r5, r6, lr}
 778              	.LCFI5:
 779              		.cfi_def_cfa_offset 16
 780              		.cfi_offset 4, -16
 781              		.cfi_offset 5, -12
 782              		.cfi_offset 6, -8
 783              		.cfi_offset 14, -4
 784 0002 0400     		movs	r4, r0
1315:Drivers/STM32F0xx_HAL_Driver/Src/stm32f0xx_hal_pcd.c ****   __HAL_LOCK(hpcd);
 785              		.loc 1 1315 3 is_stmt 1 view .LVU174
 786              		.loc 1 1315 3 view .LVU175
 787 0004 8A23     		movs	r3, #138
 788 0006 9B00     		lsls	r3, r3, #2
 789 0008 C35C     		ldrb	r3, [r0, r3]
 790 000a 012B     		cmp	r3, #1
 791 000c 0AD0     		beq	.L41
ARM GAS  /tmp/ccrcqutw.s 			page 39


 792              		.loc 1 1315 3 discriminator 2 view .LVU176
 793 000e 8A25     		movs	r5, #138
 794 0010 AD00     		lsls	r5, r5, #2
 795 0012 0123     		movs	r3, #1
 796 0014 4355     		strb	r3, [r0, r5]
 797              		.loc 1 1315 3 discriminator 2 view .LVU177
1316:Drivers/STM32F0xx_HAL_Driver/Src/stm32f0xx_hal_pcd.c ****   (void)USB_DevConnect(hpcd->Instance);
 798              		.loc 1 1316 3 discriminator 2 view .LVU178
 799              		.loc 1 1316 9 is_stmt 0 discriminator 2 view .LVU179
 800 0016 0068     		ldr	r0, [r0]
 801              	.LVL53:
 802              		.loc 1 1316 9 discriminator 2 view .LVU180
 803 0018 FFF7FEFF 		bl	USB_DevConnect
 804              	.LVL54:
1317:Drivers/STM32F0xx_HAL_Driver/Src/stm32f0xx_hal_pcd.c ****   __HAL_UNLOCK(hpcd);
 805              		.loc 1 1317 3 is_stmt 1 discriminator 2 view .LVU181
 806              		.loc 1 1317 3 discriminator 2 view .LVU182
 807 001c 0023     		movs	r3, #0
 808 001e 6355     		strb	r3, [r4, r5]
 809              		.loc 1 1317 3 discriminator 2 view .LVU183
1318:Drivers/STM32F0xx_HAL_Driver/Src/stm32f0xx_hal_pcd.c ****   return HAL_OK;
 810              		.loc 1 1318 3 discriminator 2 view .LVU184
 811              		.loc 1 1318 10 is_stmt 0 discriminator 2 view .LVU185
 812 0020 0020     		movs	r0, #0
 813              	.L40:
1319:Drivers/STM32F0xx_HAL_Driver/Src/stm32f0xx_hal_pcd.c **** }
 814              		.loc 1 1319 1 view .LVU186
 815              		@ sp needed
 816              	.LVL55:
 817              		.loc 1 1319 1 view .LVU187
 818 0022 70BD     		pop	{r4, r5, r6, pc}
 819              	.LVL56:
 820              	.L41:
1315:Drivers/STM32F0xx_HAL_Driver/Src/stm32f0xx_hal_pcd.c ****   (void)USB_DevConnect(hpcd->Instance);
 821              		.loc 1 1315 3 view .LVU188
 822 0024 0220     		movs	r0, #2
 823              	.LVL57:
1315:Drivers/STM32F0xx_HAL_Driver/Src/stm32f0xx_hal_pcd.c ****   (void)USB_DevConnect(hpcd->Instance);
 824              		.loc 1 1315 3 view .LVU189
 825 0026 FCE7     		b	.L40
 826              		.cfi_endproc
 827              	.LFE58:
 829              		.section	.text.HAL_PCD_DevDisconnect,"ax",%progbits
 830              		.align	1
 831              		.global	HAL_PCD_DevDisconnect
 832              		.syntax unified
 833              		.code	16
 834              		.thumb_func
 835              		.fpu softvfp
 837              	HAL_PCD_DevDisconnect:
 838              	.LVL58:
 839              	.LFB59:
1320:Drivers/STM32F0xx_HAL_Driver/Src/stm32f0xx_hal_pcd.c **** 
1321:Drivers/STM32F0xx_HAL_Driver/Src/stm32f0xx_hal_pcd.c **** /**
1322:Drivers/STM32F0xx_HAL_Driver/Src/stm32f0xx_hal_pcd.c ****   * @brief  Disconnect the USB device.
1323:Drivers/STM32F0xx_HAL_Driver/Src/stm32f0xx_hal_pcd.c ****   * @param  hpcd PCD handle
1324:Drivers/STM32F0xx_HAL_Driver/Src/stm32f0xx_hal_pcd.c ****   * @retval HAL status
ARM GAS  /tmp/ccrcqutw.s 			page 40


1325:Drivers/STM32F0xx_HAL_Driver/Src/stm32f0xx_hal_pcd.c ****   */
1326:Drivers/STM32F0xx_HAL_Driver/Src/stm32f0xx_hal_pcd.c **** HAL_StatusTypeDef HAL_PCD_DevDisconnect(PCD_HandleTypeDef *hpcd)
1327:Drivers/STM32F0xx_HAL_Driver/Src/stm32f0xx_hal_pcd.c **** {
 840              		.loc 1 1327 1 is_stmt 1 view -0
 841              		.cfi_startproc
 842              		@ args = 0, pretend = 0, frame = 0
 843              		@ frame_needed = 0, uses_anonymous_args = 0
 844              		.loc 1 1327 1 is_stmt 0 view .LVU191
 845 0000 70B5     		push	{r4, r5, r6, lr}
 846              	.LCFI6:
 847              		.cfi_def_cfa_offset 16
 848              		.cfi_offset 4, -16
 849              		.cfi_offset 5, -12
 850              		.cfi_offset 6, -8
 851              		.cfi_offset 14, -4
 852 0002 0400     		movs	r4, r0
1328:Drivers/STM32F0xx_HAL_Driver/Src/stm32f0xx_hal_pcd.c ****   __HAL_LOCK(hpcd);
 853              		.loc 1 1328 3 is_stmt 1 view .LVU192
 854              		.loc 1 1328 3 view .LVU193
 855 0004 8A23     		movs	r3, #138
 856 0006 9B00     		lsls	r3, r3, #2
 857 0008 C35C     		ldrb	r3, [r0, r3]
 858 000a 012B     		cmp	r3, #1
 859 000c 0AD0     		beq	.L44
 860              		.loc 1 1328 3 discriminator 2 view .LVU194
 861 000e 8A25     		movs	r5, #138
 862 0010 AD00     		lsls	r5, r5, #2
 863 0012 0123     		movs	r3, #1
 864 0014 4355     		strb	r3, [r0, r5]
 865              		.loc 1 1328 3 discriminator 2 view .LVU195
1329:Drivers/STM32F0xx_HAL_Driver/Src/stm32f0xx_hal_pcd.c ****   (void)USB_DevDisconnect(hpcd->Instance);
 866              		.loc 1 1329 3 discriminator 2 view .LVU196
 867              		.loc 1 1329 9 is_stmt 0 discriminator 2 view .LVU197
 868 0016 0068     		ldr	r0, [r0]
 869              	.LVL59:
 870              		.loc 1 1329 9 discriminator 2 view .LVU198
 871 0018 FFF7FEFF 		bl	USB_DevDisconnect
 872              	.LVL60:
1330:Drivers/STM32F0xx_HAL_Driver/Src/stm32f0xx_hal_pcd.c ****   __HAL_UNLOCK(hpcd);
 873              		.loc 1 1330 3 is_stmt 1 discriminator 2 view .LVU199
 874              		.loc 1 1330 3 discriminator 2 view .LVU200
 875 001c 0023     		movs	r3, #0
 876 001e 6355     		strb	r3, [r4, r5]
 877              		.loc 1 1330 3 discriminator 2 view .LVU201
1331:Drivers/STM32F0xx_HAL_Driver/Src/stm32f0xx_hal_pcd.c ****   return HAL_OK;
 878              		.loc 1 1331 3 discriminator 2 view .LVU202
 879              		.loc 1 1331 10 is_stmt 0 discriminator 2 view .LVU203
 880 0020 0020     		movs	r0, #0
 881              	.L43:
1332:Drivers/STM32F0xx_HAL_Driver/Src/stm32f0xx_hal_pcd.c **** }
 882              		.loc 1 1332 1 view .LVU204
 883              		@ sp needed
 884              	.LVL61:
 885              		.loc 1 1332 1 view .LVU205
 886 0022 70BD     		pop	{r4, r5, r6, pc}
 887              	.LVL62:
 888              	.L44:
ARM GAS  /tmp/ccrcqutw.s 			page 41


1328:Drivers/STM32F0xx_HAL_Driver/Src/stm32f0xx_hal_pcd.c ****   (void)USB_DevDisconnect(hpcd->Instance);
 889              		.loc 1 1328 3 view .LVU206
 890 0024 0220     		movs	r0, #2
 891              	.LVL63:
1328:Drivers/STM32F0xx_HAL_Driver/Src/stm32f0xx_hal_pcd.c ****   (void)USB_DevDisconnect(hpcd->Instance);
 892              		.loc 1 1328 3 view .LVU207
 893 0026 FCE7     		b	.L43
 894              		.cfi_endproc
 895              	.LFE59:
 897              		.section	.text.HAL_PCD_SetAddress,"ax",%progbits
 898              		.align	1
 899              		.global	HAL_PCD_SetAddress
 900              		.syntax unified
 901              		.code	16
 902              		.thumb_func
 903              		.fpu softvfp
 905              	HAL_PCD_SetAddress:
 906              	.LVL64:
 907              	.LFB60:
1333:Drivers/STM32F0xx_HAL_Driver/Src/stm32f0xx_hal_pcd.c **** 
1334:Drivers/STM32F0xx_HAL_Driver/Src/stm32f0xx_hal_pcd.c **** /**
1335:Drivers/STM32F0xx_HAL_Driver/Src/stm32f0xx_hal_pcd.c ****   * @brief  Set the USB Device address.
1336:Drivers/STM32F0xx_HAL_Driver/Src/stm32f0xx_hal_pcd.c ****   * @param  hpcd PCD handle
1337:Drivers/STM32F0xx_HAL_Driver/Src/stm32f0xx_hal_pcd.c ****   * @param  address new device address
1338:Drivers/STM32F0xx_HAL_Driver/Src/stm32f0xx_hal_pcd.c ****   * @retval HAL status
1339:Drivers/STM32F0xx_HAL_Driver/Src/stm32f0xx_hal_pcd.c ****   */
1340:Drivers/STM32F0xx_HAL_Driver/Src/stm32f0xx_hal_pcd.c **** HAL_StatusTypeDef HAL_PCD_SetAddress(PCD_HandleTypeDef *hpcd, uint8_t address)
1341:Drivers/STM32F0xx_HAL_Driver/Src/stm32f0xx_hal_pcd.c **** {
 908              		.loc 1 1341 1 is_stmt 1 view -0
 909              		.cfi_startproc
 910              		@ args = 0, pretend = 0, frame = 0
 911              		@ frame_needed = 0, uses_anonymous_args = 0
 912              		.loc 1 1341 1 is_stmt 0 view .LVU209
 913 0000 70B5     		push	{r4, r5, r6, lr}
 914              	.LCFI7:
 915              		.cfi_def_cfa_offset 16
 916              		.cfi_offset 4, -16
 917              		.cfi_offset 5, -12
 918              		.cfi_offset 6, -8
 919              		.cfi_offset 14, -4
 920 0002 0400     		movs	r4, r0
1342:Drivers/STM32F0xx_HAL_Driver/Src/stm32f0xx_hal_pcd.c ****   __HAL_LOCK(hpcd);
 921              		.loc 1 1342 3 is_stmt 1 view .LVU210
 922              		.loc 1 1342 3 view .LVU211
 923 0004 8A23     		movs	r3, #138
 924 0006 9B00     		lsls	r3, r3, #2
 925 0008 C35C     		ldrb	r3, [r0, r3]
 926 000a 012B     		cmp	r3, #1
 927 000c 0CD0     		beq	.L47
 928              		.loc 1 1342 3 discriminator 2 view .LVU212
 929 000e 8A25     		movs	r5, #138
 930 0010 AD00     		lsls	r5, r5, #2
 931 0012 0123     		movs	r3, #1
 932 0014 4355     		strb	r3, [r0, r5]
 933              		.loc 1 1342 3 discriminator 2 view .LVU213
1343:Drivers/STM32F0xx_HAL_Driver/Src/stm32f0xx_hal_pcd.c ****   hpcd->USB_Address = address;
 934              		.loc 1 1343 3 discriminator 2 view .LVU214
ARM GAS  /tmp/ccrcqutw.s 			page 42


 935              		.loc 1 1343 21 is_stmt 0 discriminator 2 view .LVU215
 936 0016 2333     		adds	r3, r3, #35
 937 0018 C154     		strb	r1, [r0, r3]
1344:Drivers/STM32F0xx_HAL_Driver/Src/stm32f0xx_hal_pcd.c ****   (void)USB_SetDevAddress(hpcd->Instance, address);
 938              		.loc 1 1344 3 is_stmt 1 discriminator 2 view .LVU216
 939              		.loc 1 1344 9 is_stmt 0 discriminator 2 view .LVU217
 940 001a 0068     		ldr	r0, [r0]
 941              	.LVL65:
 942              		.loc 1 1344 9 discriminator 2 view .LVU218
 943 001c FFF7FEFF 		bl	USB_SetDevAddress
 944              	.LVL66:
1345:Drivers/STM32F0xx_HAL_Driver/Src/stm32f0xx_hal_pcd.c ****   __HAL_UNLOCK(hpcd);
 945              		.loc 1 1345 3 is_stmt 1 discriminator 2 view .LVU219
 946              		.loc 1 1345 3 discriminator 2 view .LVU220
 947 0020 0023     		movs	r3, #0
 948 0022 6355     		strb	r3, [r4, r5]
 949              		.loc 1 1345 3 discriminator 2 view .LVU221
1346:Drivers/STM32F0xx_HAL_Driver/Src/stm32f0xx_hal_pcd.c ****   return HAL_OK;
 950              		.loc 1 1346 3 discriminator 2 view .LVU222
 951              		.loc 1 1346 10 is_stmt 0 discriminator 2 view .LVU223
 952 0024 0020     		movs	r0, #0
 953              	.L46:
1347:Drivers/STM32F0xx_HAL_Driver/Src/stm32f0xx_hal_pcd.c **** }
 954              		.loc 1 1347 1 view .LVU224
 955              		@ sp needed
 956              	.LVL67:
 957              		.loc 1 1347 1 view .LVU225
 958 0026 70BD     		pop	{r4, r5, r6, pc}
 959              	.LVL68:
 960              	.L47:
1342:Drivers/STM32F0xx_HAL_Driver/Src/stm32f0xx_hal_pcd.c ****   hpcd->USB_Address = address;
 961              		.loc 1 1342 3 view .LVU226
 962 0028 0220     		movs	r0, #2
 963              	.LVL69:
1342:Drivers/STM32F0xx_HAL_Driver/Src/stm32f0xx_hal_pcd.c ****   hpcd->USB_Address = address;
 964              		.loc 1 1342 3 view .LVU227
 965 002a FCE7     		b	.L46
 966              		.cfi_endproc
 967              	.LFE60:
 969              		.section	.text.HAL_PCD_EP_Open,"ax",%progbits
 970              		.align	1
 971              		.global	HAL_PCD_EP_Open
 972              		.syntax unified
 973              		.code	16
 974              		.thumb_func
 975              		.fpu softvfp
 977              	HAL_PCD_EP_Open:
 978              	.LVL70:
 979              	.LFB61:
1348:Drivers/STM32F0xx_HAL_Driver/Src/stm32f0xx_hal_pcd.c **** /**
1349:Drivers/STM32F0xx_HAL_Driver/Src/stm32f0xx_hal_pcd.c ****   * @brief  Open and configure an endpoint.
1350:Drivers/STM32F0xx_HAL_Driver/Src/stm32f0xx_hal_pcd.c ****   * @param  hpcd PCD handle
1351:Drivers/STM32F0xx_HAL_Driver/Src/stm32f0xx_hal_pcd.c ****   * @param  ep_addr endpoint address
1352:Drivers/STM32F0xx_HAL_Driver/Src/stm32f0xx_hal_pcd.c ****   * @param  ep_mps endpoint max packet size
1353:Drivers/STM32F0xx_HAL_Driver/Src/stm32f0xx_hal_pcd.c ****   * @param  ep_type endpoint type
1354:Drivers/STM32F0xx_HAL_Driver/Src/stm32f0xx_hal_pcd.c ****   * @retval HAL status
1355:Drivers/STM32F0xx_HAL_Driver/Src/stm32f0xx_hal_pcd.c ****   */
ARM GAS  /tmp/ccrcqutw.s 			page 43


1356:Drivers/STM32F0xx_HAL_Driver/Src/stm32f0xx_hal_pcd.c **** HAL_StatusTypeDef HAL_PCD_EP_Open(PCD_HandleTypeDef *hpcd, uint8_t ep_addr, uint16_t ep_mps, uint8_
1357:Drivers/STM32F0xx_HAL_Driver/Src/stm32f0xx_hal_pcd.c **** {
 980              		.loc 1 1357 1 is_stmt 1 view -0
 981              		.cfi_startproc
 982              		@ args = 0, pretend = 0, frame = 0
 983              		@ frame_needed = 0, uses_anonymous_args = 0
 984              		.loc 1 1357 1 is_stmt 0 view .LVU229
 985 0000 70B5     		push	{r4, r5, r6, lr}
 986              	.LCFI8:
 987              		.cfi_def_cfa_offset 16
 988              		.cfi_offset 4, -16
 989              		.cfi_offset 5, -12
 990              		.cfi_offset 6, -8
 991              		.cfi_offset 14, -4
 992 0002 0400     		movs	r4, r0
 993 0004 0D00     		movs	r5, r1
1358:Drivers/STM32F0xx_HAL_Driver/Src/stm32f0xx_hal_pcd.c ****   HAL_StatusTypeDef  ret = HAL_OK;
 994              		.loc 1 1358 3 is_stmt 1 view .LVU230
 995              	.LVL71:
1359:Drivers/STM32F0xx_HAL_Driver/Src/stm32f0xx_hal_pcd.c ****   PCD_EPTypeDef *ep;
 996              		.loc 1 1359 3 view .LVU231
1360:Drivers/STM32F0xx_HAL_Driver/Src/stm32f0xx_hal_pcd.c **** 
1361:Drivers/STM32F0xx_HAL_Driver/Src/stm32f0xx_hal_pcd.c ****   if ((ep_addr & 0x80U) == 0x80U)
 997              		.loc 1 1361 3 view .LVU232
 998              		.loc 1 1361 25 is_stmt 0 view .LVU233
 999 0006 49B2     		sxtb	r1, r1
 1000              		.loc 1 1361 6 view .LVU234
 1001 0008 0029     		cmp	r1, #0
 1002 000a 26DB     		blt	.L55
1362:Drivers/STM32F0xx_HAL_Driver/Src/stm32f0xx_hal_pcd.c ****   {
1363:Drivers/STM32F0xx_HAL_Driver/Src/stm32f0xx_hal_pcd.c ****     ep = &hpcd->IN_ep[ep_addr & EP_ADDR_MSK];
1364:Drivers/STM32F0xx_HAL_Driver/Src/stm32f0xx_hal_pcd.c ****     ep->is_in = 1U;
1365:Drivers/STM32F0xx_HAL_Driver/Src/stm32f0xx_hal_pcd.c ****   }
1366:Drivers/STM32F0xx_HAL_Driver/Src/stm32f0xx_hal_pcd.c ****   else
1367:Drivers/STM32F0xx_HAL_Driver/Src/stm32f0xx_hal_pcd.c ****   {
1368:Drivers/STM32F0xx_HAL_Driver/Src/stm32f0xx_hal_pcd.c ****     ep = &hpcd->OUT_ep[ep_addr & EP_ADDR_MSK];
 1003              		.loc 1 1368 5 is_stmt 1 view .LVU235
 1004              		.loc 1 1368 32 is_stmt 0 view .LVU236
 1005 000c 0720     		movs	r0, #7
 1006              	.LVL72:
 1007              		.loc 1 1368 32 view .LVU237
 1008 000e 2840     		ands	r0, r5
 1009              		.loc 1 1368 8 view .LVU238
 1010 0010 4001     		lsls	r0, r0, #5
 1011 0012 0100     		movs	r1, r0
 1012              	.LVL73:
 1013              		.loc 1 1368 8 view .LVU239
 1014 0014 2931     		adds	r1, r1, #41
 1015 0016 FF31     		adds	r1, r1, #255
 1016 0018 6118     		adds	r1, r4, r1
 1017              	.LVL74:
1369:Drivers/STM32F0xx_HAL_Driver/Src/stm32f0xx_hal_pcd.c ****     ep->is_in = 0U;
 1018              		.loc 1 1369 5 is_stmt 1 view .LVU240
 1019              		.loc 1 1369 15 is_stmt 0 view .LVU241
 1020 001a 2018     		adds	r0, r4, r0
 1021 001c 2A30     		adds	r0, r0, #42
 1022 001e FF30     		adds	r0, r0, #255
ARM GAS  /tmp/ccrcqutw.s 			page 44


 1023 0020 0026     		movs	r6, #0
 1024 0022 0670     		strb	r6, [r0]
 1025              	.L50:
1370:Drivers/STM32F0xx_HAL_Driver/Src/stm32f0xx_hal_pcd.c ****   }
1371:Drivers/STM32F0xx_HAL_Driver/Src/stm32f0xx_hal_pcd.c **** 
1372:Drivers/STM32F0xx_HAL_Driver/Src/stm32f0xx_hal_pcd.c ****   ep->num = ep_addr & EP_ADDR_MSK;
 1026              		.loc 1 1372 3 is_stmt 1 view .LVU242
 1027              		.loc 1 1372 21 is_stmt 0 view .LVU243
 1028 0024 0720     		movs	r0, #7
 1029 0026 0540     		ands	r5, r0
 1030              		.loc 1 1372 11 view .LVU244
 1031 0028 0D70     		strb	r5, [r1]
1373:Drivers/STM32F0xx_HAL_Driver/Src/stm32f0xx_hal_pcd.c ****   ep->maxpacket = ep_mps;
 1032              		.loc 1 1373 3 is_stmt 1 view .LVU245
 1033              		.loc 1 1373 17 is_stmt 0 view .LVU246
 1034 002a 0A61     		str	r2, [r1, #16]
1374:Drivers/STM32F0xx_HAL_Driver/Src/stm32f0xx_hal_pcd.c ****   ep->type = ep_type;
 1035              		.loc 1 1374 3 is_stmt 1 view .LVU247
 1036              		.loc 1 1374 12 is_stmt 0 view .LVU248
 1037 002c CB70     		strb	r3, [r1, #3]
1375:Drivers/STM32F0xx_HAL_Driver/Src/stm32f0xx_hal_pcd.c **** 
1376:Drivers/STM32F0xx_HAL_Driver/Src/stm32f0xx_hal_pcd.c ****   if (ep->is_in != 0U)
 1038              		.loc 1 1376 3 is_stmt 1 view .LVU249
 1039              		.loc 1 1376 9 is_stmt 0 view .LVU250
 1040 002e 4A78     		ldrb	r2, [r1, #1]
 1041              	.LVL75:
 1042              		.loc 1 1376 6 view .LVU251
 1043 0030 002A     		cmp	r2, #0
 1044 0032 00D0     		beq	.L51
1377:Drivers/STM32F0xx_HAL_Driver/Src/stm32f0xx_hal_pcd.c ****   {
1378:Drivers/STM32F0xx_HAL_Driver/Src/stm32f0xx_hal_pcd.c ****     /* Assign a Tx FIFO */
1379:Drivers/STM32F0xx_HAL_Driver/Src/stm32f0xx_hal_pcd.c ****     ep->tx_fifo_num = ep->num;
 1045              		.loc 1 1379 5 is_stmt 1 view .LVU252
 1046              		.loc 1 1379 21 is_stmt 0 view .LVU253
 1047 0034 CD81     		strh	r5, [r1, #14]
 1048              	.L51:
1380:Drivers/STM32F0xx_HAL_Driver/Src/stm32f0xx_hal_pcd.c ****   }
1381:Drivers/STM32F0xx_HAL_Driver/Src/stm32f0xx_hal_pcd.c ****   /* Set initial data PID. */
1382:Drivers/STM32F0xx_HAL_Driver/Src/stm32f0xx_hal_pcd.c ****   if (ep_type == EP_TYPE_BULK)
 1049              		.loc 1 1382 3 is_stmt 1 view .LVU254
 1050              		.loc 1 1382 6 is_stmt 0 view .LVU255
 1051 0036 022B     		cmp	r3, #2
 1052 0038 1AD0     		beq	.L56
 1053              	.LVL76:
 1054              	.L52:
1383:Drivers/STM32F0xx_HAL_Driver/Src/stm32f0xx_hal_pcd.c ****   {
1384:Drivers/STM32F0xx_HAL_Driver/Src/stm32f0xx_hal_pcd.c ****     ep->data_pid_start = 0U;
1385:Drivers/STM32F0xx_HAL_Driver/Src/stm32f0xx_hal_pcd.c ****   }
1386:Drivers/STM32F0xx_HAL_Driver/Src/stm32f0xx_hal_pcd.c **** 
1387:Drivers/STM32F0xx_HAL_Driver/Src/stm32f0xx_hal_pcd.c ****   __HAL_LOCK(hpcd);
 1055              		.loc 1 1387 3 is_stmt 1 view .LVU256
 1056              		.loc 1 1387 3 view .LVU257
 1057 003a 8A23     		movs	r3, #138
 1058 003c 9B00     		lsls	r3, r3, #2
 1059 003e E35C     		ldrb	r3, [r4, r3]
 1060 0040 012B     		cmp	r3, #1
 1061 0042 18D0     		beq	.L54
ARM GAS  /tmp/ccrcqutw.s 			page 45


 1062              		.loc 1 1387 3 discriminator 2 view .LVU258
 1063 0044 8A25     		movs	r5, #138
 1064 0046 AD00     		lsls	r5, r5, #2
 1065 0048 0123     		movs	r3, #1
 1066 004a 6355     		strb	r3, [r4, r5]
 1067              	.LVL77:
 1068              		.loc 1 1387 3 discriminator 2 view .LVU259
1388:Drivers/STM32F0xx_HAL_Driver/Src/stm32f0xx_hal_pcd.c ****   (void)USB_ActivateEndpoint(hpcd->Instance, ep);
 1069              		.loc 1 1388 3 discriminator 2 view .LVU260
 1070              		.loc 1 1388 9 is_stmt 0 discriminator 2 view .LVU261
 1071 004c 2068     		ldr	r0, [r4]
 1072 004e FFF7FEFF 		bl	USB_ActivateEndpoint
 1073              	.LVL78:
1389:Drivers/STM32F0xx_HAL_Driver/Src/stm32f0xx_hal_pcd.c ****   __HAL_UNLOCK(hpcd);
 1074              		.loc 1 1389 3 is_stmt 1 discriminator 2 view .LVU262
 1075              		.loc 1 1389 3 discriminator 2 view .LVU263
 1076 0052 0023     		movs	r3, #0
 1077 0054 6355     		strb	r3, [r4, r5]
 1078              		.loc 1 1389 3 discriminator 2 view .LVU264
1390:Drivers/STM32F0xx_HAL_Driver/Src/stm32f0xx_hal_pcd.c **** 
1391:Drivers/STM32F0xx_HAL_Driver/Src/stm32f0xx_hal_pcd.c ****   return ret;
 1079              		.loc 1 1391 3 discriminator 2 view .LVU265
 1080              		.loc 1 1391 10 is_stmt 0 discriminator 2 view .LVU266
 1081 0056 0020     		movs	r0, #0
 1082              	.L53:
1392:Drivers/STM32F0xx_HAL_Driver/Src/stm32f0xx_hal_pcd.c **** }
 1083              		.loc 1 1392 1 view .LVU267
 1084              		@ sp needed
 1085              	.LVL79:
 1086              		.loc 1 1392 1 view .LVU268
 1087 0058 70BD     		pop	{r4, r5, r6, pc}
 1088              	.LVL80:
 1089              	.L55:
1363:Drivers/STM32F0xx_HAL_Driver/Src/stm32f0xx_hal_pcd.c ****     ep->is_in = 1U;
 1090              		.loc 1 1363 5 is_stmt 1 view .LVU269
1363:Drivers/STM32F0xx_HAL_Driver/Src/stm32f0xx_hal_pcd.c ****     ep->is_in = 1U;
 1091              		.loc 1 1363 31 is_stmt 0 view .LVU270
 1092 005a 0720     		movs	r0, #7
 1093              	.LVL81:
1363:Drivers/STM32F0xx_HAL_Driver/Src/stm32f0xx_hal_pcd.c ****     ep->is_in = 1U;
 1094              		.loc 1 1363 31 view .LVU271
 1095 005c 2840     		ands	r0, r5
1363:Drivers/STM32F0xx_HAL_Driver/Src/stm32f0xx_hal_pcd.c ****     ep->is_in = 1U;
 1096              		.loc 1 1363 8 view .LVU272
 1097 005e 4001     		lsls	r0, r0, #5
 1098 0060 0100     		movs	r1, r0
 1099 0062 2831     		adds	r1, r1, #40
 1100 0064 6118     		adds	r1, r4, r1
 1101              	.LVL82:
1364:Drivers/STM32F0xx_HAL_Driver/Src/stm32f0xx_hal_pcd.c ****   }
 1102              		.loc 1 1364 5 is_stmt 1 view .LVU273
1364:Drivers/STM32F0xx_HAL_Driver/Src/stm32f0xx_hal_pcd.c ****   }
 1103              		.loc 1 1364 15 is_stmt 0 view .LVU274
 1104 0066 2018     		adds	r0, r4, r0
 1105 0068 2930     		adds	r0, r0, #41
 1106 006a 0126     		movs	r6, #1
 1107 006c 0670     		strb	r6, [r0]
ARM GAS  /tmp/ccrcqutw.s 			page 46


 1108 006e D9E7     		b	.L50
 1109              	.LVL83:
 1110              	.L56:
1384:Drivers/STM32F0xx_HAL_Driver/Src/stm32f0xx_hal_pcd.c ****   }
 1111              		.loc 1 1384 5 is_stmt 1 view .LVU275
1384:Drivers/STM32F0xx_HAL_Driver/Src/stm32f0xx_hal_pcd.c ****   }
 1112              		.loc 1 1384 24 is_stmt 0 view .LVU276
 1113 0070 0023     		movs	r3, #0
 1114              	.LVL84:
1384:Drivers/STM32F0xx_HAL_Driver/Src/stm32f0xx_hal_pcd.c ****   }
 1115              		.loc 1 1384 24 view .LVU277
 1116 0072 0B71     		strb	r3, [r1, #4]
 1117 0074 E1E7     		b	.L52
 1118              	.L54:
1387:Drivers/STM32F0xx_HAL_Driver/Src/stm32f0xx_hal_pcd.c ****   (void)USB_ActivateEndpoint(hpcd->Instance, ep);
 1119              		.loc 1 1387 3 view .LVU278
 1120 0076 0220     		movs	r0, #2
 1121 0078 EEE7     		b	.L53
 1122              		.cfi_endproc
 1123              	.LFE61:
 1125              		.section	.text.HAL_PCD_EP_Close,"ax",%progbits
 1126              		.align	1
 1127              		.global	HAL_PCD_EP_Close
 1128              		.syntax unified
 1129              		.code	16
 1130              		.thumb_func
 1131              		.fpu softvfp
 1133              	HAL_PCD_EP_Close:
 1134              	.LVL85:
 1135              	.LFB62:
1393:Drivers/STM32F0xx_HAL_Driver/Src/stm32f0xx_hal_pcd.c **** 
1394:Drivers/STM32F0xx_HAL_Driver/Src/stm32f0xx_hal_pcd.c **** /**
1395:Drivers/STM32F0xx_HAL_Driver/Src/stm32f0xx_hal_pcd.c ****   * @brief  Deactivate an endpoint.
1396:Drivers/STM32F0xx_HAL_Driver/Src/stm32f0xx_hal_pcd.c ****   * @param  hpcd PCD handle
1397:Drivers/STM32F0xx_HAL_Driver/Src/stm32f0xx_hal_pcd.c ****   * @param  ep_addr endpoint address
1398:Drivers/STM32F0xx_HAL_Driver/Src/stm32f0xx_hal_pcd.c ****   * @retval HAL status
1399:Drivers/STM32F0xx_HAL_Driver/Src/stm32f0xx_hal_pcd.c ****   */
1400:Drivers/STM32F0xx_HAL_Driver/Src/stm32f0xx_hal_pcd.c **** HAL_StatusTypeDef HAL_PCD_EP_Close(PCD_HandleTypeDef *hpcd, uint8_t ep_addr)
1401:Drivers/STM32F0xx_HAL_Driver/Src/stm32f0xx_hal_pcd.c **** {
 1136              		.loc 1 1401 1 is_stmt 1 view -0
 1137              		.cfi_startproc
 1138              		@ args = 0, pretend = 0, frame = 0
 1139              		@ frame_needed = 0, uses_anonymous_args = 0
 1140              		.loc 1 1401 1 is_stmt 0 view .LVU280
 1141 0000 70B5     		push	{r4, r5, r6, lr}
 1142              	.LCFI9:
 1143              		.cfi_def_cfa_offset 16
 1144              		.cfi_offset 4, -16
 1145              		.cfi_offset 5, -12
 1146              		.cfi_offset 6, -8
 1147              		.cfi_offset 14, -4
 1148 0002 0400     		movs	r4, r0
 1149 0004 0A00     		movs	r2, r1
1402:Drivers/STM32F0xx_HAL_Driver/Src/stm32f0xx_hal_pcd.c ****   PCD_EPTypeDef *ep;
 1150              		.loc 1 1402 3 is_stmt 1 view .LVU281
1403:Drivers/STM32F0xx_HAL_Driver/Src/stm32f0xx_hal_pcd.c **** 
1404:Drivers/STM32F0xx_HAL_Driver/Src/stm32f0xx_hal_pcd.c ****   if ((ep_addr & 0x80U) == 0x80U)
ARM GAS  /tmp/ccrcqutw.s 			page 47


 1151              		.loc 1 1404 3 view .LVU282
 1152              		.loc 1 1404 25 is_stmt 0 view .LVU283
 1153 0006 4BB2     		sxtb	r3, r1
 1154              		.loc 1 1404 6 view .LVU284
 1155 0008 002B     		cmp	r3, #0
 1156 000a 1EDB     		blt	.L62
1405:Drivers/STM32F0xx_HAL_Driver/Src/stm32f0xx_hal_pcd.c ****   {
1406:Drivers/STM32F0xx_HAL_Driver/Src/stm32f0xx_hal_pcd.c ****     ep = &hpcd->IN_ep[ep_addr & EP_ADDR_MSK];
1407:Drivers/STM32F0xx_HAL_Driver/Src/stm32f0xx_hal_pcd.c ****     ep->is_in = 1U;
1408:Drivers/STM32F0xx_HAL_Driver/Src/stm32f0xx_hal_pcd.c ****   }
1409:Drivers/STM32F0xx_HAL_Driver/Src/stm32f0xx_hal_pcd.c ****   else
1410:Drivers/STM32F0xx_HAL_Driver/Src/stm32f0xx_hal_pcd.c ****   {
1411:Drivers/STM32F0xx_HAL_Driver/Src/stm32f0xx_hal_pcd.c ****     ep = &hpcd->OUT_ep[ep_addr & EP_ADDR_MSK];
 1157              		.loc 1 1411 5 is_stmt 1 view .LVU285
 1158              		.loc 1 1411 32 is_stmt 0 view .LVU286
 1159 000c 0723     		movs	r3, #7
 1160 000e 0B40     		ands	r3, r1
 1161              		.loc 1 1411 8 view .LVU287
 1162 0010 5B01     		lsls	r3, r3, #5
 1163 0012 1900     		movs	r1, r3
 1164              	.LVL86:
 1165              		.loc 1 1411 8 view .LVU288
 1166 0014 2931     		adds	r1, r1, #41
 1167 0016 FF31     		adds	r1, r1, #255
 1168 0018 4118     		adds	r1, r0, r1
 1169              	.LVL87:
1412:Drivers/STM32F0xx_HAL_Driver/Src/stm32f0xx_hal_pcd.c ****     ep->is_in = 0U;
 1170              		.loc 1 1412 5 is_stmt 1 view .LVU289
 1171              		.loc 1 1412 15 is_stmt 0 view .LVU290
 1172 001a C318     		adds	r3, r0, r3
 1173 001c 2A33     		adds	r3, r3, #42
 1174 001e FF33     		adds	r3, r3, #255
 1175 0020 0020     		movs	r0, #0
 1176              	.LVL88:
 1177              		.loc 1 1412 15 view .LVU291
 1178 0022 1870     		strb	r0, [r3]
 1179              	.L59:
1413:Drivers/STM32F0xx_HAL_Driver/Src/stm32f0xx_hal_pcd.c ****   }
1414:Drivers/STM32F0xx_HAL_Driver/Src/stm32f0xx_hal_pcd.c ****   ep->num   = ep_addr & EP_ADDR_MSK;
 1180              		.loc 1 1414 3 is_stmt 1 view .LVU292
 1181              		.loc 1 1414 23 is_stmt 0 view .LVU293
 1182 0024 0723     		movs	r3, #7
 1183 0026 1A40     		ands	r2, r3
 1184              		.loc 1 1414 13 view .LVU294
 1185 0028 0A70     		strb	r2, [r1]
1415:Drivers/STM32F0xx_HAL_Driver/Src/stm32f0xx_hal_pcd.c **** 
1416:Drivers/STM32F0xx_HAL_Driver/Src/stm32f0xx_hal_pcd.c ****   __HAL_LOCK(hpcd);
 1186              		.loc 1 1416 3 is_stmt 1 view .LVU295
 1187              		.loc 1 1416 3 view .LVU296
 1188 002a 8A23     		movs	r3, #138
 1189 002c 9B00     		lsls	r3, r3, #2
 1190 002e E35C     		ldrb	r3, [r4, r3]
 1191 0030 012B     		cmp	r3, #1
 1192 0032 15D0     		beq	.L61
 1193              		.loc 1 1416 3 discriminator 2 view .LVU297
 1194 0034 8A25     		movs	r5, #138
 1195 0036 AD00     		lsls	r5, r5, #2
ARM GAS  /tmp/ccrcqutw.s 			page 48


 1196 0038 0123     		movs	r3, #1
 1197 003a 6355     		strb	r3, [r4, r5]
 1198              		.loc 1 1416 3 discriminator 2 view .LVU298
1417:Drivers/STM32F0xx_HAL_Driver/Src/stm32f0xx_hal_pcd.c ****   (void)USB_DeactivateEndpoint(hpcd->Instance, ep);
 1199              		.loc 1 1417 3 discriminator 2 view .LVU299
 1200              		.loc 1 1417 9 is_stmt 0 discriminator 2 view .LVU300
 1201 003c 2068     		ldr	r0, [r4]
 1202 003e FFF7FEFF 		bl	USB_DeactivateEndpoint
 1203              	.LVL89:
1418:Drivers/STM32F0xx_HAL_Driver/Src/stm32f0xx_hal_pcd.c ****   __HAL_UNLOCK(hpcd);
 1204              		.loc 1 1418 3 is_stmt 1 discriminator 2 view .LVU301
 1205              		.loc 1 1418 3 discriminator 2 view .LVU302
 1206 0042 0023     		movs	r3, #0
 1207 0044 6355     		strb	r3, [r4, r5]
 1208              		.loc 1 1418 3 discriminator 2 view .LVU303
1419:Drivers/STM32F0xx_HAL_Driver/Src/stm32f0xx_hal_pcd.c ****   return HAL_OK;
 1209              		.loc 1 1419 3 discriminator 2 view .LVU304
 1210              		.loc 1 1419 10 is_stmt 0 discriminator 2 view .LVU305
 1211 0046 0020     		movs	r0, #0
 1212              	.L60:
1420:Drivers/STM32F0xx_HAL_Driver/Src/stm32f0xx_hal_pcd.c **** }
 1213              		.loc 1 1420 1 view .LVU306
 1214              		@ sp needed
 1215              	.LVL90:
 1216              		.loc 1 1420 1 view .LVU307
 1217 0048 70BD     		pop	{r4, r5, r6, pc}
 1218              	.LVL91:
 1219              	.L62:
1406:Drivers/STM32F0xx_HAL_Driver/Src/stm32f0xx_hal_pcd.c ****     ep->is_in = 1U;
 1220              		.loc 1 1406 5 is_stmt 1 view .LVU308
1406:Drivers/STM32F0xx_HAL_Driver/Src/stm32f0xx_hal_pcd.c ****     ep->is_in = 1U;
 1221              		.loc 1 1406 31 is_stmt 0 view .LVU309
 1222 004a 0723     		movs	r3, #7
 1223 004c 0B40     		ands	r3, r1
1406:Drivers/STM32F0xx_HAL_Driver/Src/stm32f0xx_hal_pcd.c ****     ep->is_in = 1U;
 1224              		.loc 1 1406 8 view .LVU310
 1225 004e 5B01     		lsls	r3, r3, #5
 1226 0050 1900     		movs	r1, r3
 1227              	.LVL92:
1406:Drivers/STM32F0xx_HAL_Driver/Src/stm32f0xx_hal_pcd.c ****     ep->is_in = 1U;
 1228              		.loc 1 1406 8 view .LVU311
 1229 0052 2831     		adds	r1, r1, #40
 1230 0054 4118     		adds	r1, r0, r1
 1231              	.LVL93:
1407:Drivers/STM32F0xx_HAL_Driver/Src/stm32f0xx_hal_pcd.c ****   }
 1232              		.loc 1 1407 5 is_stmt 1 view .LVU312
1407:Drivers/STM32F0xx_HAL_Driver/Src/stm32f0xx_hal_pcd.c ****   }
 1233              		.loc 1 1407 15 is_stmt 0 view .LVU313
 1234 0056 C318     		adds	r3, r0, r3
 1235 0058 2933     		adds	r3, r3, #41
 1236 005a 0120     		movs	r0, #1
 1237              	.LVL94:
1407:Drivers/STM32F0xx_HAL_Driver/Src/stm32f0xx_hal_pcd.c ****   }
 1238              		.loc 1 1407 15 view .LVU314
 1239 005c 1870     		strb	r0, [r3]
 1240 005e E1E7     		b	.L59
 1241              	.L61:
ARM GAS  /tmp/ccrcqutw.s 			page 49


1416:Drivers/STM32F0xx_HAL_Driver/Src/stm32f0xx_hal_pcd.c ****   (void)USB_DeactivateEndpoint(hpcd->Instance, ep);
 1242              		.loc 1 1416 3 view .LVU315
 1243 0060 0220     		movs	r0, #2
 1244 0062 F1E7     		b	.L60
 1245              		.cfi_endproc
 1246              	.LFE62:
 1248              		.section	.text.HAL_PCD_EP_Receive,"ax",%progbits
 1249              		.align	1
 1250              		.global	HAL_PCD_EP_Receive
 1251              		.syntax unified
 1252              		.code	16
 1253              		.thumb_func
 1254              		.fpu softvfp
 1256              	HAL_PCD_EP_Receive:
 1257              	.LVL95:
 1258              	.LFB63:
1421:Drivers/STM32F0xx_HAL_Driver/Src/stm32f0xx_hal_pcd.c **** 
1422:Drivers/STM32F0xx_HAL_Driver/Src/stm32f0xx_hal_pcd.c **** 
1423:Drivers/STM32F0xx_HAL_Driver/Src/stm32f0xx_hal_pcd.c **** /**
1424:Drivers/STM32F0xx_HAL_Driver/Src/stm32f0xx_hal_pcd.c ****   * @brief  Receive an amount of data.
1425:Drivers/STM32F0xx_HAL_Driver/Src/stm32f0xx_hal_pcd.c ****   * @param  hpcd PCD handle
1426:Drivers/STM32F0xx_HAL_Driver/Src/stm32f0xx_hal_pcd.c ****   * @param  ep_addr endpoint address
1427:Drivers/STM32F0xx_HAL_Driver/Src/stm32f0xx_hal_pcd.c ****   * @param  pBuf pointer to the reception buffer
1428:Drivers/STM32F0xx_HAL_Driver/Src/stm32f0xx_hal_pcd.c ****   * @param  len amount of data to be received
1429:Drivers/STM32F0xx_HAL_Driver/Src/stm32f0xx_hal_pcd.c ****   * @retval HAL status
1430:Drivers/STM32F0xx_HAL_Driver/Src/stm32f0xx_hal_pcd.c ****   */
1431:Drivers/STM32F0xx_HAL_Driver/Src/stm32f0xx_hal_pcd.c **** HAL_StatusTypeDef HAL_PCD_EP_Receive(PCD_HandleTypeDef *hpcd, uint8_t ep_addr, uint8_t *pBuf, uint3
1432:Drivers/STM32F0xx_HAL_Driver/Src/stm32f0xx_hal_pcd.c **** {
 1259              		.loc 1 1432 1 is_stmt 1 view -0
 1260              		.cfi_startproc
 1261              		@ args = 0, pretend = 0, frame = 0
 1262              		@ frame_needed = 0, uses_anonymous_args = 0
 1263              		.loc 1 1432 1 is_stmt 0 view .LVU317
 1264 0000 70B5     		push	{r4, r5, r6, lr}
 1265              	.LCFI10:
 1266              		.cfi_def_cfa_offset 16
 1267              		.cfi_offset 4, -16
 1268              		.cfi_offset 5, -12
 1269              		.cfi_offset 6, -8
 1270              		.cfi_offset 14, -4
1433:Drivers/STM32F0xx_HAL_Driver/Src/stm32f0xx_hal_pcd.c ****   PCD_EPTypeDef *ep;
 1271              		.loc 1 1433 3 is_stmt 1 view .LVU318
1434:Drivers/STM32F0xx_HAL_Driver/Src/stm32f0xx_hal_pcd.c **** 
1435:Drivers/STM32F0xx_HAL_Driver/Src/stm32f0xx_hal_pcd.c ****   ep = &hpcd->OUT_ep[ep_addr & EP_ADDR_MSK];
 1272              		.loc 1 1435 3 view .LVU319
 1273 0002 0725     		movs	r5, #7
 1274 0004 0D40     		ands	r5, r1
 1275              		.loc 1 1435 6 is_stmt 0 view .LVU320
 1276 0006 6C01     		lsls	r4, r5, #5
 1277 0008 2100     		movs	r1, r4
 1278              	.LVL96:
 1279              		.loc 1 1435 6 view .LVU321
 1280 000a 2931     		adds	r1, r1, #41
 1281 000c FF31     		adds	r1, r1, #255
 1282 000e 4118     		adds	r1, r0, r1
 1283              	.LVL97:
1436:Drivers/STM32F0xx_HAL_Driver/Src/stm32f0xx_hal_pcd.c **** 
ARM GAS  /tmp/ccrcqutw.s 			page 50


1437:Drivers/STM32F0xx_HAL_Driver/Src/stm32f0xx_hal_pcd.c ****   /*setup and start the Xfer */
1438:Drivers/STM32F0xx_HAL_Driver/Src/stm32f0xx_hal_pcd.c ****   ep->xfer_buff = pBuf;
 1284              		.loc 1 1438 3 is_stmt 1 view .LVU322
 1285              		.loc 1 1438 17 is_stmt 0 view .LVU323
 1286 0010 0419     		adds	r4, r0, r4
 1287 0012 2600     		movs	r6, r4
 1288 0014 3D36     		adds	r6, r6, #61
 1289 0016 FF36     		adds	r6, r6, #255
 1290 0018 3260     		str	r2, [r6]
1439:Drivers/STM32F0xx_HAL_Driver/Src/stm32f0xx_hal_pcd.c ****   ep->xfer_len = len;
 1291              		.loc 1 1439 3 is_stmt 1 view .LVU324
 1292              		.loc 1 1439 16 is_stmt 0 view .LVU325
 1293 001a 2A00     		movs	r2, r5
 1294              	.LVL98:
 1295              		.loc 1 1439 16 view .LVU326
 1296 001c 0A32     		adds	r2, r2, #10
 1297 001e 5201     		lsls	r2, r2, #5
 1298 0020 8350     		str	r3, [r0, r2]
 1299              	.LVL99:
1440:Drivers/STM32F0xx_HAL_Driver/Src/stm32f0xx_hal_pcd.c ****   ep->xfer_count = 0U;
 1300              		.loc 1 1440 3 is_stmt 1 view .LVU327
 1301              		.loc 1 1440 18 is_stmt 0 view .LVU328
 1302 0022 8218     		adds	r2, r0, r2
 1303 0024 0023     		movs	r3, #0
 1304              	.LVL100:
 1305              		.loc 1 1440 18 view .LVU329
 1306 0026 5360     		str	r3, [r2, #4]
1441:Drivers/STM32F0xx_HAL_Driver/Src/stm32f0xx_hal_pcd.c ****   ep->is_in = 0U;
 1307              		.loc 1 1441 3 is_stmt 1 view .LVU330
 1308              		.loc 1 1441 13 is_stmt 0 view .LVU331
 1309 0028 2200     		movs	r2, r4
 1310              	.LVL101:
 1311              		.loc 1 1441 13 view .LVU332
 1312 002a 2A32     		adds	r2, r2, #42
 1313 002c FF32     		adds	r2, r2, #255
 1314 002e 1370     		strb	r3, [r2]
 1315              	.LVL102:
1442:Drivers/STM32F0xx_HAL_Driver/Src/stm32f0xx_hal_pcd.c ****   ep->num = ep_addr & EP_ADDR_MSK;
 1316              		.loc 1 1442 3 is_stmt 1 view .LVU333
 1317              		.loc 1 1442 11 is_stmt 0 view .LVU334
 1318 0030 2934     		adds	r4, r4, #41
 1319 0032 FF34     		adds	r4, r4, #255
 1320 0034 2570     		strb	r5, [r4]
1443:Drivers/STM32F0xx_HAL_Driver/Src/stm32f0xx_hal_pcd.c **** 
1444:Drivers/STM32F0xx_HAL_Driver/Src/stm32f0xx_hal_pcd.c ****   if ((ep_addr & EP_ADDR_MSK) == 0U)
 1321              		.loc 1 1444 3 is_stmt 1 view .LVU335
 1322              		.loc 1 1444 6 is_stmt 0 view .LVU336
 1323 0036 002D     		cmp	r5, #0
 1324 0038 04D1     		bne	.L64
1445:Drivers/STM32F0xx_HAL_Driver/Src/stm32f0xx_hal_pcd.c ****   {
1446:Drivers/STM32F0xx_HAL_Driver/Src/stm32f0xx_hal_pcd.c ****     (void)USB_EP0StartXfer(hpcd->Instance, ep);
 1325              		.loc 1 1446 5 is_stmt 1 view .LVU337
 1326              		.loc 1 1446 32 is_stmt 0 view .LVU338
 1327 003a 0068     		ldr	r0, [r0]
 1328              	.LVL103:
 1329              		.loc 1 1446 11 view .LVU339
 1330 003c FFF7FEFF 		bl	USB_EPStartXfer
ARM GAS  /tmp/ccrcqutw.s 			page 51


 1331              	.LVL104:
 1332              	.L65:
1447:Drivers/STM32F0xx_HAL_Driver/Src/stm32f0xx_hal_pcd.c ****   }
1448:Drivers/STM32F0xx_HAL_Driver/Src/stm32f0xx_hal_pcd.c ****   else
1449:Drivers/STM32F0xx_HAL_Driver/Src/stm32f0xx_hal_pcd.c ****   {
1450:Drivers/STM32F0xx_HAL_Driver/Src/stm32f0xx_hal_pcd.c ****     (void)USB_EPStartXfer(hpcd->Instance, ep);
1451:Drivers/STM32F0xx_HAL_Driver/Src/stm32f0xx_hal_pcd.c ****   }
1452:Drivers/STM32F0xx_HAL_Driver/Src/stm32f0xx_hal_pcd.c **** 
1453:Drivers/STM32F0xx_HAL_Driver/Src/stm32f0xx_hal_pcd.c ****   return HAL_OK;
 1333              		.loc 1 1453 3 is_stmt 1 view .LVU340
1454:Drivers/STM32F0xx_HAL_Driver/Src/stm32f0xx_hal_pcd.c **** }
 1334              		.loc 1 1454 1 is_stmt 0 view .LVU341
 1335 0040 0020     		movs	r0, #0
 1336              		@ sp needed
 1337              	.LVL105:
 1338              		.loc 1 1454 1 view .LVU342
 1339 0042 70BD     		pop	{r4, r5, r6, pc}
 1340              	.LVL106:
 1341              	.L64:
1450:Drivers/STM32F0xx_HAL_Driver/Src/stm32f0xx_hal_pcd.c ****   }
 1342              		.loc 1 1450 5 is_stmt 1 view .LVU343
1450:Drivers/STM32F0xx_HAL_Driver/Src/stm32f0xx_hal_pcd.c ****   }
 1343              		.loc 1 1450 31 is_stmt 0 view .LVU344
 1344 0044 0068     		ldr	r0, [r0]
 1345              	.LVL107:
1450:Drivers/STM32F0xx_HAL_Driver/Src/stm32f0xx_hal_pcd.c ****   }
 1346              		.loc 1 1450 11 view .LVU345
 1347 0046 FFF7FEFF 		bl	USB_EPStartXfer
 1348              	.LVL108:
1450:Drivers/STM32F0xx_HAL_Driver/Src/stm32f0xx_hal_pcd.c ****   }
 1349              		.loc 1 1450 11 view .LVU346
 1350 004a F9E7     		b	.L65
 1351              		.cfi_endproc
 1352              	.LFE63:
 1354              		.section	.text.HAL_PCD_EP_GetRxCount,"ax",%progbits
 1355              		.align	1
 1356              		.global	HAL_PCD_EP_GetRxCount
 1357              		.syntax unified
 1358              		.code	16
 1359              		.thumb_func
 1360              		.fpu softvfp
 1362              	HAL_PCD_EP_GetRxCount:
 1363              	.LVL109:
 1364              	.LFB64:
1455:Drivers/STM32F0xx_HAL_Driver/Src/stm32f0xx_hal_pcd.c **** 
1456:Drivers/STM32F0xx_HAL_Driver/Src/stm32f0xx_hal_pcd.c **** /**
1457:Drivers/STM32F0xx_HAL_Driver/Src/stm32f0xx_hal_pcd.c ****   * @brief  Get Received Data Size
1458:Drivers/STM32F0xx_HAL_Driver/Src/stm32f0xx_hal_pcd.c ****   * @param  hpcd PCD handle
1459:Drivers/STM32F0xx_HAL_Driver/Src/stm32f0xx_hal_pcd.c ****   * @param  ep_addr endpoint address
1460:Drivers/STM32F0xx_HAL_Driver/Src/stm32f0xx_hal_pcd.c ****   * @retval Data Size
1461:Drivers/STM32F0xx_HAL_Driver/Src/stm32f0xx_hal_pcd.c ****   */
1462:Drivers/STM32F0xx_HAL_Driver/Src/stm32f0xx_hal_pcd.c **** uint32_t HAL_PCD_EP_GetRxCount(PCD_HandleTypeDef *hpcd, uint8_t ep_addr)
1463:Drivers/STM32F0xx_HAL_Driver/Src/stm32f0xx_hal_pcd.c **** {
 1365              		.loc 1 1463 1 is_stmt 1 view -0
 1366              		.cfi_startproc
 1367              		@ args = 0, pretend = 0, frame = 0
 1368              		@ frame_needed = 0, uses_anonymous_args = 0
ARM GAS  /tmp/ccrcqutw.s 			page 52


 1369              		@ link register save eliminated.
1464:Drivers/STM32F0xx_HAL_Driver/Src/stm32f0xx_hal_pcd.c ****   return hpcd->OUT_ep[ep_addr & EP_ADDR_MSK].xfer_count;
 1370              		.loc 1 1464 3 view .LVU348
 1371              		.loc 1 1464 31 is_stmt 0 view .LVU349
 1372 0000 0723     		movs	r3, #7
 1373 0002 0B40     		ands	r3, r1
 1374              		.loc 1 1464 45 view .LVU350
 1375 0004 0A33     		adds	r3, r3, #10
 1376 0006 5B01     		lsls	r3, r3, #5
 1377 0008 C318     		adds	r3, r0, r3
 1378 000a 5868     		ldr	r0, [r3, #4]
 1379              	.LVL110:
1465:Drivers/STM32F0xx_HAL_Driver/Src/stm32f0xx_hal_pcd.c **** }
 1380              		.loc 1 1465 1 view .LVU351
 1381              		@ sp needed
 1382 000c 7047     		bx	lr
 1383              		.cfi_endproc
 1384              	.LFE64:
 1386              		.section	.text.HAL_PCD_EP_Transmit,"ax",%progbits
 1387              		.align	1
 1388              		.global	HAL_PCD_EP_Transmit
 1389              		.syntax unified
 1390              		.code	16
 1391              		.thumb_func
 1392              		.fpu softvfp
 1394              	HAL_PCD_EP_Transmit:
 1395              	.LVL111:
 1396              	.LFB65:
1466:Drivers/STM32F0xx_HAL_Driver/Src/stm32f0xx_hal_pcd.c **** /**
1467:Drivers/STM32F0xx_HAL_Driver/Src/stm32f0xx_hal_pcd.c ****   * @brief  Send an amount of data
1468:Drivers/STM32F0xx_HAL_Driver/Src/stm32f0xx_hal_pcd.c ****   * @param  hpcd PCD handle
1469:Drivers/STM32F0xx_HAL_Driver/Src/stm32f0xx_hal_pcd.c ****   * @param  ep_addr endpoint address
1470:Drivers/STM32F0xx_HAL_Driver/Src/stm32f0xx_hal_pcd.c ****   * @param  pBuf pointer to the transmission buffer
1471:Drivers/STM32F0xx_HAL_Driver/Src/stm32f0xx_hal_pcd.c ****   * @param  len amount of data to be sent
1472:Drivers/STM32F0xx_HAL_Driver/Src/stm32f0xx_hal_pcd.c ****   * @retval HAL status
1473:Drivers/STM32F0xx_HAL_Driver/Src/stm32f0xx_hal_pcd.c ****   */
1474:Drivers/STM32F0xx_HAL_Driver/Src/stm32f0xx_hal_pcd.c **** HAL_StatusTypeDef HAL_PCD_EP_Transmit(PCD_HandleTypeDef *hpcd, uint8_t ep_addr, uint8_t *pBuf, uint
1475:Drivers/STM32F0xx_HAL_Driver/Src/stm32f0xx_hal_pcd.c **** {
 1397              		.loc 1 1475 1 is_stmt 1 view -0
 1398              		.cfi_startproc
 1399              		@ args = 0, pretend = 0, frame = 0
 1400              		@ frame_needed = 0, uses_anonymous_args = 0
 1401              		.loc 1 1475 1 is_stmt 0 view .LVU353
 1402 0000 70B5     		push	{r4, r5, r6, lr}
 1403              	.LCFI11:
 1404              		.cfi_def_cfa_offset 16
 1405              		.cfi_offset 4, -16
 1406              		.cfi_offset 5, -12
 1407              		.cfi_offset 6, -8
 1408              		.cfi_offset 14, -4
1476:Drivers/STM32F0xx_HAL_Driver/Src/stm32f0xx_hal_pcd.c ****   PCD_EPTypeDef *ep;
 1409              		.loc 1 1476 3 is_stmt 1 view .LVU354
1477:Drivers/STM32F0xx_HAL_Driver/Src/stm32f0xx_hal_pcd.c **** 
1478:Drivers/STM32F0xx_HAL_Driver/Src/stm32f0xx_hal_pcd.c ****   ep = &hpcd->IN_ep[ep_addr & EP_ADDR_MSK];
 1410              		.loc 1 1478 3 view .LVU355
 1411 0002 0725     		movs	r5, #7
 1412 0004 0D40     		ands	r5, r1
ARM GAS  /tmp/ccrcqutw.s 			page 53


 1413              		.loc 1 1478 6 is_stmt 0 view .LVU356
 1414 0006 6C01     		lsls	r4, r5, #5
 1415 0008 2100     		movs	r1, r4
 1416              	.LVL112:
 1417              		.loc 1 1478 6 view .LVU357
 1418 000a 2831     		adds	r1, r1, #40
 1419 000c 4118     		adds	r1, r0, r1
 1420              	.LVL113:
1479:Drivers/STM32F0xx_HAL_Driver/Src/stm32f0xx_hal_pcd.c **** 
1480:Drivers/STM32F0xx_HAL_Driver/Src/stm32f0xx_hal_pcd.c ****   /*setup and start the Xfer */
1481:Drivers/STM32F0xx_HAL_Driver/Src/stm32f0xx_hal_pcd.c ****   ep->xfer_buff = pBuf;
 1421              		.loc 1 1481 3 is_stmt 1 view .LVU358
 1422              		.loc 1 1481 17 is_stmt 0 view .LVU359
 1423 000e 0419     		adds	r4, r0, r4
 1424 0010 E263     		str	r2, [r4, #60]
1482:Drivers/STM32F0xx_HAL_Driver/Src/stm32f0xx_hal_pcd.c ****   ep->xfer_len = len;
 1425              		.loc 1 1482 3 is_stmt 1 view .LVU360
 1426              		.loc 1 1482 16 is_stmt 0 view .LVU361
 1427 0012 AA1C     		adds	r2, r5, #2
 1428              	.LVL114:
 1429              		.loc 1 1482 16 view .LVU362
 1430 0014 5201     		lsls	r2, r2, #5
 1431 0016 8350     		str	r3, [r0, r2]
 1432              	.LVL115:
1483:Drivers/STM32F0xx_HAL_Driver/Src/stm32f0xx_hal_pcd.c ****   ep->xfer_count = 0U;
 1433              		.loc 1 1483 3 is_stmt 1 view .LVU363
 1434              		.loc 1 1483 18 is_stmt 0 view .LVU364
 1435 0018 8218     		adds	r2, r0, r2
 1436 001a 0023     		movs	r3, #0
 1437              	.LVL116:
 1438              		.loc 1 1483 18 view .LVU365
 1439 001c 5360     		str	r3, [r2, #4]
1484:Drivers/STM32F0xx_HAL_Driver/Src/stm32f0xx_hal_pcd.c ****   ep->is_in = 1U;
 1440              		.loc 1 1484 3 is_stmt 1 view .LVU366
 1441              		.loc 1 1484 13 is_stmt 0 view .LVU367
 1442 001e 2300     		movs	r3, r4
 1443 0020 2933     		adds	r3, r3, #41
 1444 0022 0122     		movs	r2, #1
 1445              	.LVL117:
 1446              		.loc 1 1484 13 view .LVU368
 1447 0024 1A70     		strb	r2, [r3]
 1448              	.LVL118:
1485:Drivers/STM32F0xx_HAL_Driver/Src/stm32f0xx_hal_pcd.c ****   ep->num = ep_addr & EP_ADDR_MSK;
 1449              		.loc 1 1485 3 is_stmt 1 view .LVU369
 1450              		.loc 1 1485 11 is_stmt 0 view .LVU370
 1451 0026 2834     		adds	r4, r4, #40
 1452 0028 2570     		strb	r5, [r4]
1486:Drivers/STM32F0xx_HAL_Driver/Src/stm32f0xx_hal_pcd.c **** 
1487:Drivers/STM32F0xx_HAL_Driver/Src/stm32f0xx_hal_pcd.c ****   if ((ep_addr & EP_ADDR_MSK) == 0U)
 1453              		.loc 1 1487 3 is_stmt 1 view .LVU371
 1454              		.loc 1 1487 6 is_stmt 0 view .LVU372
 1455 002a 002D     		cmp	r5, #0
 1456 002c 04D1     		bne	.L68
1488:Drivers/STM32F0xx_HAL_Driver/Src/stm32f0xx_hal_pcd.c ****   {
1489:Drivers/STM32F0xx_HAL_Driver/Src/stm32f0xx_hal_pcd.c ****     (void)USB_EP0StartXfer(hpcd->Instance, ep);
 1457              		.loc 1 1489 5 is_stmt 1 view .LVU373
 1458              		.loc 1 1489 32 is_stmt 0 view .LVU374
ARM GAS  /tmp/ccrcqutw.s 			page 54


 1459 002e 0068     		ldr	r0, [r0]
 1460              	.LVL119:
 1461              		.loc 1 1489 11 view .LVU375
 1462 0030 FFF7FEFF 		bl	USB_EPStartXfer
 1463              	.LVL120:
 1464              	.L69:
1490:Drivers/STM32F0xx_HAL_Driver/Src/stm32f0xx_hal_pcd.c ****   }
1491:Drivers/STM32F0xx_HAL_Driver/Src/stm32f0xx_hal_pcd.c ****   else
1492:Drivers/STM32F0xx_HAL_Driver/Src/stm32f0xx_hal_pcd.c ****   {
1493:Drivers/STM32F0xx_HAL_Driver/Src/stm32f0xx_hal_pcd.c ****     (void)USB_EPStartXfer(hpcd->Instance, ep);
1494:Drivers/STM32F0xx_HAL_Driver/Src/stm32f0xx_hal_pcd.c ****   }
1495:Drivers/STM32F0xx_HAL_Driver/Src/stm32f0xx_hal_pcd.c **** 
1496:Drivers/STM32F0xx_HAL_Driver/Src/stm32f0xx_hal_pcd.c ****   return HAL_OK;
 1465              		.loc 1 1496 3 is_stmt 1 view .LVU376
1497:Drivers/STM32F0xx_HAL_Driver/Src/stm32f0xx_hal_pcd.c **** }
 1466              		.loc 1 1497 1 is_stmt 0 view .LVU377
 1467 0034 0020     		movs	r0, #0
 1468              		@ sp needed
 1469              	.LVL121:
 1470              		.loc 1 1497 1 view .LVU378
 1471 0036 70BD     		pop	{r4, r5, r6, pc}
 1472              	.LVL122:
 1473              	.L68:
1493:Drivers/STM32F0xx_HAL_Driver/Src/stm32f0xx_hal_pcd.c ****   }
 1474              		.loc 1 1493 5 is_stmt 1 view .LVU379
1493:Drivers/STM32F0xx_HAL_Driver/Src/stm32f0xx_hal_pcd.c ****   }
 1475              		.loc 1 1493 31 is_stmt 0 view .LVU380
 1476 0038 0068     		ldr	r0, [r0]
 1477              	.LVL123:
1493:Drivers/STM32F0xx_HAL_Driver/Src/stm32f0xx_hal_pcd.c ****   }
 1478              		.loc 1 1493 11 view .LVU381
 1479 003a FFF7FEFF 		bl	USB_EPStartXfer
 1480              	.LVL124:
1493:Drivers/STM32F0xx_HAL_Driver/Src/stm32f0xx_hal_pcd.c ****   }
 1481              		.loc 1 1493 11 view .LVU382
 1482 003e F9E7     		b	.L69
 1483              		.cfi_endproc
 1484              	.LFE65:
 1486              		.section	.text.PCD_EP_ISR_Handler,"ax",%progbits
 1487              		.align	1
 1488              		.syntax unified
 1489              		.code	16
 1490              		.thumb_func
 1491              		.fpu softvfp
 1493              	PCD_EP_ISR_Handler:
 1494              	.LVL125:
 1495              	.LFB72:
1498:Drivers/STM32F0xx_HAL_Driver/Src/stm32f0xx_hal_pcd.c **** 
1499:Drivers/STM32F0xx_HAL_Driver/Src/stm32f0xx_hal_pcd.c **** /**
1500:Drivers/STM32F0xx_HAL_Driver/Src/stm32f0xx_hal_pcd.c ****   * @brief  Set a STALL condition over an endpoint
1501:Drivers/STM32F0xx_HAL_Driver/Src/stm32f0xx_hal_pcd.c ****   * @param  hpcd PCD handle
1502:Drivers/STM32F0xx_HAL_Driver/Src/stm32f0xx_hal_pcd.c ****   * @param  ep_addr endpoint address
1503:Drivers/STM32F0xx_HAL_Driver/Src/stm32f0xx_hal_pcd.c ****   * @retval HAL status
1504:Drivers/STM32F0xx_HAL_Driver/Src/stm32f0xx_hal_pcd.c ****   */
1505:Drivers/STM32F0xx_HAL_Driver/Src/stm32f0xx_hal_pcd.c **** HAL_StatusTypeDef HAL_PCD_EP_SetStall(PCD_HandleTypeDef *hpcd, uint8_t ep_addr)
1506:Drivers/STM32F0xx_HAL_Driver/Src/stm32f0xx_hal_pcd.c **** {
1507:Drivers/STM32F0xx_HAL_Driver/Src/stm32f0xx_hal_pcd.c ****   PCD_EPTypeDef *ep;
ARM GAS  /tmp/ccrcqutw.s 			page 55


1508:Drivers/STM32F0xx_HAL_Driver/Src/stm32f0xx_hal_pcd.c **** 
1509:Drivers/STM32F0xx_HAL_Driver/Src/stm32f0xx_hal_pcd.c ****   if (((uint32_t)ep_addr & EP_ADDR_MSK) > hpcd->Init.dev_endpoints)
1510:Drivers/STM32F0xx_HAL_Driver/Src/stm32f0xx_hal_pcd.c ****   {
1511:Drivers/STM32F0xx_HAL_Driver/Src/stm32f0xx_hal_pcd.c ****     return HAL_ERROR;
1512:Drivers/STM32F0xx_HAL_Driver/Src/stm32f0xx_hal_pcd.c ****   }
1513:Drivers/STM32F0xx_HAL_Driver/Src/stm32f0xx_hal_pcd.c **** 
1514:Drivers/STM32F0xx_HAL_Driver/Src/stm32f0xx_hal_pcd.c ****   if ((0x80U & ep_addr) == 0x80U)
1515:Drivers/STM32F0xx_HAL_Driver/Src/stm32f0xx_hal_pcd.c ****   {
1516:Drivers/STM32F0xx_HAL_Driver/Src/stm32f0xx_hal_pcd.c ****     ep = &hpcd->IN_ep[ep_addr & EP_ADDR_MSK];
1517:Drivers/STM32F0xx_HAL_Driver/Src/stm32f0xx_hal_pcd.c ****     ep->is_in = 1U;
1518:Drivers/STM32F0xx_HAL_Driver/Src/stm32f0xx_hal_pcd.c ****   }
1519:Drivers/STM32F0xx_HAL_Driver/Src/stm32f0xx_hal_pcd.c ****   else
1520:Drivers/STM32F0xx_HAL_Driver/Src/stm32f0xx_hal_pcd.c ****   {
1521:Drivers/STM32F0xx_HAL_Driver/Src/stm32f0xx_hal_pcd.c ****     ep = &hpcd->OUT_ep[ep_addr];
1522:Drivers/STM32F0xx_HAL_Driver/Src/stm32f0xx_hal_pcd.c ****     ep->is_in = 0U;
1523:Drivers/STM32F0xx_HAL_Driver/Src/stm32f0xx_hal_pcd.c ****   }
1524:Drivers/STM32F0xx_HAL_Driver/Src/stm32f0xx_hal_pcd.c **** 
1525:Drivers/STM32F0xx_HAL_Driver/Src/stm32f0xx_hal_pcd.c ****   ep->is_stall = 1U;
1526:Drivers/STM32F0xx_HAL_Driver/Src/stm32f0xx_hal_pcd.c ****   ep->num = ep_addr & EP_ADDR_MSK;
1527:Drivers/STM32F0xx_HAL_Driver/Src/stm32f0xx_hal_pcd.c **** 
1528:Drivers/STM32F0xx_HAL_Driver/Src/stm32f0xx_hal_pcd.c ****   __HAL_LOCK(hpcd);
1529:Drivers/STM32F0xx_HAL_Driver/Src/stm32f0xx_hal_pcd.c **** 
1530:Drivers/STM32F0xx_HAL_Driver/Src/stm32f0xx_hal_pcd.c ****   (void)USB_EPSetStall(hpcd->Instance, ep);
1531:Drivers/STM32F0xx_HAL_Driver/Src/stm32f0xx_hal_pcd.c ****   if ((ep_addr & EP_ADDR_MSK) == 0U)
1532:Drivers/STM32F0xx_HAL_Driver/Src/stm32f0xx_hal_pcd.c ****   {
1533:Drivers/STM32F0xx_HAL_Driver/Src/stm32f0xx_hal_pcd.c ****     (void)USB_EP0_OutStart(hpcd->Instance, (uint8_t *)hpcd->Setup);
1534:Drivers/STM32F0xx_HAL_Driver/Src/stm32f0xx_hal_pcd.c ****   }
1535:Drivers/STM32F0xx_HAL_Driver/Src/stm32f0xx_hal_pcd.c ****   __HAL_UNLOCK(hpcd);
1536:Drivers/STM32F0xx_HAL_Driver/Src/stm32f0xx_hal_pcd.c **** 
1537:Drivers/STM32F0xx_HAL_Driver/Src/stm32f0xx_hal_pcd.c ****   return HAL_OK;
1538:Drivers/STM32F0xx_HAL_Driver/Src/stm32f0xx_hal_pcd.c **** }
1539:Drivers/STM32F0xx_HAL_Driver/Src/stm32f0xx_hal_pcd.c **** 
1540:Drivers/STM32F0xx_HAL_Driver/Src/stm32f0xx_hal_pcd.c **** /**
1541:Drivers/STM32F0xx_HAL_Driver/Src/stm32f0xx_hal_pcd.c ****   * @brief  Clear a STALL condition over in an endpoint
1542:Drivers/STM32F0xx_HAL_Driver/Src/stm32f0xx_hal_pcd.c ****   * @param  hpcd PCD handle
1543:Drivers/STM32F0xx_HAL_Driver/Src/stm32f0xx_hal_pcd.c ****   * @param  ep_addr endpoint address
1544:Drivers/STM32F0xx_HAL_Driver/Src/stm32f0xx_hal_pcd.c ****   * @retval HAL status
1545:Drivers/STM32F0xx_HAL_Driver/Src/stm32f0xx_hal_pcd.c ****   */
1546:Drivers/STM32F0xx_HAL_Driver/Src/stm32f0xx_hal_pcd.c **** HAL_StatusTypeDef HAL_PCD_EP_ClrStall(PCD_HandleTypeDef *hpcd, uint8_t ep_addr)
1547:Drivers/STM32F0xx_HAL_Driver/Src/stm32f0xx_hal_pcd.c **** {
1548:Drivers/STM32F0xx_HAL_Driver/Src/stm32f0xx_hal_pcd.c ****   PCD_EPTypeDef *ep;
1549:Drivers/STM32F0xx_HAL_Driver/Src/stm32f0xx_hal_pcd.c **** 
1550:Drivers/STM32F0xx_HAL_Driver/Src/stm32f0xx_hal_pcd.c ****   if (((uint32_t)ep_addr & 0x0FU) > hpcd->Init.dev_endpoints)
1551:Drivers/STM32F0xx_HAL_Driver/Src/stm32f0xx_hal_pcd.c ****   {
1552:Drivers/STM32F0xx_HAL_Driver/Src/stm32f0xx_hal_pcd.c ****     return HAL_ERROR;
1553:Drivers/STM32F0xx_HAL_Driver/Src/stm32f0xx_hal_pcd.c ****   }
1554:Drivers/STM32F0xx_HAL_Driver/Src/stm32f0xx_hal_pcd.c **** 
1555:Drivers/STM32F0xx_HAL_Driver/Src/stm32f0xx_hal_pcd.c ****   if ((0x80U & ep_addr) == 0x80U)
1556:Drivers/STM32F0xx_HAL_Driver/Src/stm32f0xx_hal_pcd.c ****   {
1557:Drivers/STM32F0xx_HAL_Driver/Src/stm32f0xx_hal_pcd.c ****     ep = &hpcd->IN_ep[ep_addr & EP_ADDR_MSK];
1558:Drivers/STM32F0xx_HAL_Driver/Src/stm32f0xx_hal_pcd.c ****     ep->is_in = 1U;
1559:Drivers/STM32F0xx_HAL_Driver/Src/stm32f0xx_hal_pcd.c ****   }
1560:Drivers/STM32F0xx_HAL_Driver/Src/stm32f0xx_hal_pcd.c ****   else
1561:Drivers/STM32F0xx_HAL_Driver/Src/stm32f0xx_hal_pcd.c ****   {
1562:Drivers/STM32F0xx_HAL_Driver/Src/stm32f0xx_hal_pcd.c ****     ep = &hpcd->OUT_ep[ep_addr & EP_ADDR_MSK];
1563:Drivers/STM32F0xx_HAL_Driver/Src/stm32f0xx_hal_pcd.c ****     ep->is_in = 0U;
1564:Drivers/STM32F0xx_HAL_Driver/Src/stm32f0xx_hal_pcd.c ****   }
ARM GAS  /tmp/ccrcqutw.s 			page 56


1565:Drivers/STM32F0xx_HAL_Driver/Src/stm32f0xx_hal_pcd.c **** 
1566:Drivers/STM32F0xx_HAL_Driver/Src/stm32f0xx_hal_pcd.c ****   ep->is_stall = 0U;
1567:Drivers/STM32F0xx_HAL_Driver/Src/stm32f0xx_hal_pcd.c ****   ep->num = ep_addr & EP_ADDR_MSK;
1568:Drivers/STM32F0xx_HAL_Driver/Src/stm32f0xx_hal_pcd.c **** 
1569:Drivers/STM32F0xx_HAL_Driver/Src/stm32f0xx_hal_pcd.c ****   __HAL_LOCK(hpcd);
1570:Drivers/STM32F0xx_HAL_Driver/Src/stm32f0xx_hal_pcd.c ****   (void)USB_EPClearStall(hpcd->Instance, ep);
1571:Drivers/STM32F0xx_HAL_Driver/Src/stm32f0xx_hal_pcd.c ****   __HAL_UNLOCK(hpcd);
1572:Drivers/STM32F0xx_HAL_Driver/Src/stm32f0xx_hal_pcd.c **** 
1573:Drivers/STM32F0xx_HAL_Driver/Src/stm32f0xx_hal_pcd.c ****   return HAL_OK;
1574:Drivers/STM32F0xx_HAL_Driver/Src/stm32f0xx_hal_pcd.c **** }
1575:Drivers/STM32F0xx_HAL_Driver/Src/stm32f0xx_hal_pcd.c **** 
1576:Drivers/STM32F0xx_HAL_Driver/Src/stm32f0xx_hal_pcd.c **** /**
1577:Drivers/STM32F0xx_HAL_Driver/Src/stm32f0xx_hal_pcd.c ****   * @brief  Flush an endpoint
1578:Drivers/STM32F0xx_HAL_Driver/Src/stm32f0xx_hal_pcd.c ****   * @param  hpcd PCD handle
1579:Drivers/STM32F0xx_HAL_Driver/Src/stm32f0xx_hal_pcd.c ****   * @param  ep_addr endpoint address
1580:Drivers/STM32F0xx_HAL_Driver/Src/stm32f0xx_hal_pcd.c ****   * @retval HAL status
1581:Drivers/STM32F0xx_HAL_Driver/Src/stm32f0xx_hal_pcd.c ****   */
1582:Drivers/STM32F0xx_HAL_Driver/Src/stm32f0xx_hal_pcd.c **** HAL_StatusTypeDef HAL_PCD_EP_Flush(PCD_HandleTypeDef *hpcd, uint8_t ep_addr)
1583:Drivers/STM32F0xx_HAL_Driver/Src/stm32f0xx_hal_pcd.c **** {
1584:Drivers/STM32F0xx_HAL_Driver/Src/stm32f0xx_hal_pcd.c ****   /* Prevent unused argument(s) compilation warning */
1585:Drivers/STM32F0xx_HAL_Driver/Src/stm32f0xx_hal_pcd.c ****   UNUSED(hpcd);
1586:Drivers/STM32F0xx_HAL_Driver/Src/stm32f0xx_hal_pcd.c ****   UNUSED(ep_addr);
1587:Drivers/STM32F0xx_HAL_Driver/Src/stm32f0xx_hal_pcd.c **** 
1588:Drivers/STM32F0xx_HAL_Driver/Src/stm32f0xx_hal_pcd.c ****   return HAL_OK;
1589:Drivers/STM32F0xx_HAL_Driver/Src/stm32f0xx_hal_pcd.c **** }
1590:Drivers/STM32F0xx_HAL_Driver/Src/stm32f0xx_hal_pcd.c **** 
1591:Drivers/STM32F0xx_HAL_Driver/Src/stm32f0xx_hal_pcd.c **** /**
1592:Drivers/STM32F0xx_HAL_Driver/Src/stm32f0xx_hal_pcd.c ****   * @brief  Activate remote wakeup signalling
1593:Drivers/STM32F0xx_HAL_Driver/Src/stm32f0xx_hal_pcd.c ****   * @param  hpcd PCD handle
1594:Drivers/STM32F0xx_HAL_Driver/Src/stm32f0xx_hal_pcd.c ****   * @retval HAL status
1595:Drivers/STM32F0xx_HAL_Driver/Src/stm32f0xx_hal_pcd.c ****   */
1596:Drivers/STM32F0xx_HAL_Driver/Src/stm32f0xx_hal_pcd.c **** HAL_StatusTypeDef HAL_PCD_ActivateRemoteWakeup(PCD_HandleTypeDef *hpcd)
1597:Drivers/STM32F0xx_HAL_Driver/Src/stm32f0xx_hal_pcd.c **** {
1598:Drivers/STM32F0xx_HAL_Driver/Src/stm32f0xx_hal_pcd.c ****   return (USB_ActivateRemoteWakeup(hpcd->Instance));
1599:Drivers/STM32F0xx_HAL_Driver/Src/stm32f0xx_hal_pcd.c **** }
1600:Drivers/STM32F0xx_HAL_Driver/Src/stm32f0xx_hal_pcd.c **** 
1601:Drivers/STM32F0xx_HAL_Driver/Src/stm32f0xx_hal_pcd.c **** /**
1602:Drivers/STM32F0xx_HAL_Driver/Src/stm32f0xx_hal_pcd.c ****   * @brief  De-activate remote wakeup signalling.
1603:Drivers/STM32F0xx_HAL_Driver/Src/stm32f0xx_hal_pcd.c ****   * @param  hpcd PCD handle
1604:Drivers/STM32F0xx_HAL_Driver/Src/stm32f0xx_hal_pcd.c ****   * @retval HAL status
1605:Drivers/STM32F0xx_HAL_Driver/Src/stm32f0xx_hal_pcd.c ****   */
1606:Drivers/STM32F0xx_HAL_Driver/Src/stm32f0xx_hal_pcd.c **** HAL_StatusTypeDef HAL_PCD_DeActivateRemoteWakeup(PCD_HandleTypeDef *hpcd)
1607:Drivers/STM32F0xx_HAL_Driver/Src/stm32f0xx_hal_pcd.c **** {
1608:Drivers/STM32F0xx_HAL_Driver/Src/stm32f0xx_hal_pcd.c ****   return (USB_DeActivateRemoteWakeup(hpcd->Instance));
1609:Drivers/STM32F0xx_HAL_Driver/Src/stm32f0xx_hal_pcd.c **** }
1610:Drivers/STM32F0xx_HAL_Driver/Src/stm32f0xx_hal_pcd.c **** 
1611:Drivers/STM32F0xx_HAL_Driver/Src/stm32f0xx_hal_pcd.c **** /**
1612:Drivers/STM32F0xx_HAL_Driver/Src/stm32f0xx_hal_pcd.c ****   * @}
1613:Drivers/STM32F0xx_HAL_Driver/Src/stm32f0xx_hal_pcd.c ****   */
1614:Drivers/STM32F0xx_HAL_Driver/Src/stm32f0xx_hal_pcd.c **** 
1615:Drivers/STM32F0xx_HAL_Driver/Src/stm32f0xx_hal_pcd.c **** /** @defgroup PCD_Exported_Functions_Group4 Peripheral State functions
1616:Drivers/STM32F0xx_HAL_Driver/Src/stm32f0xx_hal_pcd.c ****  *  @brief   Peripheral State functions
1617:Drivers/STM32F0xx_HAL_Driver/Src/stm32f0xx_hal_pcd.c ****  *
1618:Drivers/STM32F0xx_HAL_Driver/Src/stm32f0xx_hal_pcd.c **** @verbatim
1619:Drivers/STM32F0xx_HAL_Driver/Src/stm32f0xx_hal_pcd.c ****  ===============================================================================
1620:Drivers/STM32F0xx_HAL_Driver/Src/stm32f0xx_hal_pcd.c ****                       ##### Peripheral State functions #####
1621:Drivers/STM32F0xx_HAL_Driver/Src/stm32f0xx_hal_pcd.c ****  ===============================================================================
ARM GAS  /tmp/ccrcqutw.s 			page 57


1622:Drivers/STM32F0xx_HAL_Driver/Src/stm32f0xx_hal_pcd.c ****     [..]
1623:Drivers/STM32F0xx_HAL_Driver/Src/stm32f0xx_hal_pcd.c ****     This subsection permits to get in run-time the status of the peripheral
1624:Drivers/STM32F0xx_HAL_Driver/Src/stm32f0xx_hal_pcd.c ****     and the data flow.
1625:Drivers/STM32F0xx_HAL_Driver/Src/stm32f0xx_hal_pcd.c **** 
1626:Drivers/STM32F0xx_HAL_Driver/Src/stm32f0xx_hal_pcd.c **** @endverbatim
1627:Drivers/STM32F0xx_HAL_Driver/Src/stm32f0xx_hal_pcd.c ****   * @{
1628:Drivers/STM32F0xx_HAL_Driver/Src/stm32f0xx_hal_pcd.c ****   */
1629:Drivers/STM32F0xx_HAL_Driver/Src/stm32f0xx_hal_pcd.c **** 
1630:Drivers/STM32F0xx_HAL_Driver/Src/stm32f0xx_hal_pcd.c **** /**
1631:Drivers/STM32F0xx_HAL_Driver/Src/stm32f0xx_hal_pcd.c ****   * @brief  Return the PCD handle state.
1632:Drivers/STM32F0xx_HAL_Driver/Src/stm32f0xx_hal_pcd.c ****   * @param  hpcd PCD handle
1633:Drivers/STM32F0xx_HAL_Driver/Src/stm32f0xx_hal_pcd.c ****   * @retval HAL state
1634:Drivers/STM32F0xx_HAL_Driver/Src/stm32f0xx_hal_pcd.c ****   */
1635:Drivers/STM32F0xx_HAL_Driver/Src/stm32f0xx_hal_pcd.c **** PCD_StateTypeDef HAL_PCD_GetState(PCD_HandleTypeDef *hpcd)
1636:Drivers/STM32F0xx_HAL_Driver/Src/stm32f0xx_hal_pcd.c **** {
1637:Drivers/STM32F0xx_HAL_Driver/Src/stm32f0xx_hal_pcd.c ****   return hpcd->State;
1638:Drivers/STM32F0xx_HAL_Driver/Src/stm32f0xx_hal_pcd.c **** }
1639:Drivers/STM32F0xx_HAL_Driver/Src/stm32f0xx_hal_pcd.c **** 
1640:Drivers/STM32F0xx_HAL_Driver/Src/stm32f0xx_hal_pcd.c **** /**
1641:Drivers/STM32F0xx_HAL_Driver/Src/stm32f0xx_hal_pcd.c ****   * @}
1642:Drivers/STM32F0xx_HAL_Driver/Src/stm32f0xx_hal_pcd.c ****   */
1643:Drivers/STM32F0xx_HAL_Driver/Src/stm32f0xx_hal_pcd.c **** 
1644:Drivers/STM32F0xx_HAL_Driver/Src/stm32f0xx_hal_pcd.c **** /**
1645:Drivers/STM32F0xx_HAL_Driver/Src/stm32f0xx_hal_pcd.c ****   * @}
1646:Drivers/STM32F0xx_HAL_Driver/Src/stm32f0xx_hal_pcd.c ****   */
1647:Drivers/STM32F0xx_HAL_Driver/Src/stm32f0xx_hal_pcd.c **** 
1648:Drivers/STM32F0xx_HAL_Driver/Src/stm32f0xx_hal_pcd.c **** /* Private functions ---------------------------------------------------------*/
1649:Drivers/STM32F0xx_HAL_Driver/Src/stm32f0xx_hal_pcd.c **** /** @addtogroup PCD_Private_Functions
1650:Drivers/STM32F0xx_HAL_Driver/Src/stm32f0xx_hal_pcd.c ****   * @{
1651:Drivers/STM32F0xx_HAL_Driver/Src/stm32f0xx_hal_pcd.c ****   */
1652:Drivers/STM32F0xx_HAL_Driver/Src/stm32f0xx_hal_pcd.c **** 
1653:Drivers/STM32F0xx_HAL_Driver/Src/stm32f0xx_hal_pcd.c **** 
1654:Drivers/STM32F0xx_HAL_Driver/Src/stm32f0xx_hal_pcd.c **** /**
1655:Drivers/STM32F0xx_HAL_Driver/Src/stm32f0xx_hal_pcd.c ****   * @brief  This function handles PCD Endpoint interrupt request.
1656:Drivers/STM32F0xx_HAL_Driver/Src/stm32f0xx_hal_pcd.c ****   * @param  hpcd PCD handle
1657:Drivers/STM32F0xx_HAL_Driver/Src/stm32f0xx_hal_pcd.c ****   * @retval HAL status
1658:Drivers/STM32F0xx_HAL_Driver/Src/stm32f0xx_hal_pcd.c ****   */
1659:Drivers/STM32F0xx_HAL_Driver/Src/stm32f0xx_hal_pcd.c **** static HAL_StatusTypeDef PCD_EP_ISR_Handler(PCD_HandleTypeDef *hpcd)
1660:Drivers/STM32F0xx_HAL_Driver/Src/stm32f0xx_hal_pcd.c **** {
 1496              		.loc 1 1660 1 is_stmt 1 view -0
 1497              		.cfi_startproc
 1498              		@ args = 0, pretend = 0, frame = 0
 1499              		@ frame_needed = 0, uses_anonymous_args = 0
 1500              		.loc 1 1660 1 is_stmt 0 view .LVU384
 1501 0000 F0B5     		push	{r4, r5, r6, r7, lr}
 1502              	.LCFI12:
 1503              		.cfi_def_cfa_offset 20
 1504              		.cfi_offset 4, -20
 1505              		.cfi_offset 5, -16
 1506              		.cfi_offset 6, -12
 1507              		.cfi_offset 7, -8
 1508              		.cfi_offset 14, -4
 1509 0002 C646     		mov	lr, r8
 1510 0004 00B5     		push	{lr}
 1511              	.LCFI13:
 1512              		.cfi_def_cfa_offset 24
 1513              		.cfi_offset 8, -24
ARM GAS  /tmp/ccrcqutw.s 			page 58


 1514 0006 0400     		movs	r4, r0
1661:Drivers/STM32F0xx_HAL_Driver/Src/stm32f0xx_hal_pcd.c ****   PCD_EPTypeDef *ep;
 1515              		.loc 1 1661 3 is_stmt 1 view .LVU385
1662:Drivers/STM32F0xx_HAL_Driver/Src/stm32f0xx_hal_pcd.c ****   uint16_t count;
 1516              		.loc 1 1662 3 view .LVU386
1663:Drivers/STM32F0xx_HAL_Driver/Src/stm32f0xx_hal_pcd.c ****   uint16_t wIstr;
 1517              		.loc 1 1663 3 view .LVU387
1664:Drivers/STM32F0xx_HAL_Driver/Src/stm32f0xx_hal_pcd.c ****   uint16_t wEPVal;
 1518              		.loc 1 1664 3 view .LVU388
1665:Drivers/STM32F0xx_HAL_Driver/Src/stm32f0xx_hal_pcd.c ****   uint8_t epindex;
 1519              		.loc 1 1665 3 view .LVU389
1666:Drivers/STM32F0xx_HAL_Driver/Src/stm32f0xx_hal_pcd.c **** 
1667:Drivers/STM32F0xx_HAL_Driver/Src/stm32f0xx_hal_pcd.c ****   /* stay in loop while pending interrupts */
1668:Drivers/STM32F0xx_HAL_Driver/Src/stm32f0xx_hal_pcd.c ****   while ((hpcd->Instance->ISTR & USB_ISTR_CTR) != 0U)
 1520              		.loc 1 1668 3 view .LVU390
 1521              		.loc 1 1668 9 is_stmt 0 view .LVU391
 1522 0008 A0E0     		b	.L71
 1523              	.LVL126:
 1524              	.L93:
1669:Drivers/STM32F0xx_HAL_Driver/Src/stm32f0xx_hal_pcd.c ****   {
1670:Drivers/STM32F0xx_HAL_Driver/Src/stm32f0xx_hal_pcd.c ****     wIstr = hpcd->Instance->ISTR;
1671:Drivers/STM32F0xx_HAL_Driver/Src/stm32f0xx_hal_pcd.c ****     /* extract highest priority endpoint number */
1672:Drivers/STM32F0xx_HAL_Driver/Src/stm32f0xx_hal_pcd.c ****     epindex = (uint8_t)(wIstr & USB_ISTR_EP_ID);
1673:Drivers/STM32F0xx_HAL_Driver/Src/stm32f0xx_hal_pcd.c **** 
1674:Drivers/STM32F0xx_HAL_Driver/Src/stm32f0xx_hal_pcd.c ****     if (epindex == 0U)
1675:Drivers/STM32F0xx_HAL_Driver/Src/stm32f0xx_hal_pcd.c ****     {
1676:Drivers/STM32F0xx_HAL_Driver/Src/stm32f0xx_hal_pcd.c ****       /* Decode and service control endpoint interrupt */
1677:Drivers/STM32F0xx_HAL_Driver/Src/stm32f0xx_hal_pcd.c **** 
1678:Drivers/STM32F0xx_HAL_Driver/Src/stm32f0xx_hal_pcd.c ****       /* DIR bit = origin of the interrupt */
1679:Drivers/STM32F0xx_HAL_Driver/Src/stm32f0xx_hal_pcd.c ****       if ((wIstr & USB_ISTR_DIR) == 0U)
1680:Drivers/STM32F0xx_HAL_Driver/Src/stm32f0xx_hal_pcd.c ****       {
1681:Drivers/STM32F0xx_HAL_Driver/Src/stm32f0xx_hal_pcd.c ****         /* DIR = 0 */
1682:Drivers/STM32F0xx_HAL_Driver/Src/stm32f0xx_hal_pcd.c **** 
1683:Drivers/STM32F0xx_HAL_Driver/Src/stm32f0xx_hal_pcd.c ****         /* DIR = 0      => IN  int */
1684:Drivers/STM32F0xx_HAL_Driver/Src/stm32f0xx_hal_pcd.c ****         /* DIR = 0 implies that (EP_CTR_TX = 1) always  */
1685:Drivers/STM32F0xx_HAL_Driver/Src/stm32f0xx_hal_pcd.c ****         PCD_CLEAR_TX_EP_CTR(hpcd->Instance, PCD_ENDP0);
 1525              		.loc 1 1685 9 is_stmt 1 view .LVU392
 1526              	.LBB2:
 1527              		.loc 1 1685 9 view .LVU393
 1528              		.loc 1 1685 9 view .LVU394
 1529 000a 0388     		ldrh	r3, [r0]
 1530 000c D34A     		ldr	r2, .L96
 1531 000e 1A40     		ands	r2, r3
 1532              	.LVL127:
 1533              		.loc 1 1685 9 view .LVU395
 1534 0010 D34B     		ldr	r3, .L96+4
 1535 0012 1343     		orrs	r3, r2
 1536 0014 9BB2     		uxth	r3, r3
 1537 0016 0380     		strh	r3, [r0]
 1538              	.LBE2:
 1539              		.loc 1 1685 9 view .LVU396
1686:Drivers/STM32F0xx_HAL_Driver/Src/stm32f0xx_hal_pcd.c ****         ep = &hpcd->IN_ep[0];
 1540              		.loc 1 1686 9 view .LVU397
 1541              	.LVL128:
1687:Drivers/STM32F0xx_HAL_Driver/Src/stm32f0xx_hal_pcd.c **** 
1688:Drivers/STM32F0xx_HAL_Driver/Src/stm32f0xx_hal_pcd.c ****         ep->xfer_count = PCD_GET_EP_TX_CNT(hpcd->Instance, ep->num);
 1542              		.loc 1 1688 9 view .LVU398
ARM GAS  /tmp/ccrcqutw.s 			page 59


 1543              		.loc 1 1688 26 is_stmt 0 view .LVU399
 1544 0018 2168     		ldr	r1, [r4]
 1545              	.LVL129:
 1546              		.loc 1 1688 26 view .LVU400
 1547 001a 5023     		movs	r3, #80
 1548 001c CB5A     		ldrh	r3, [r1, r3]
 1549 001e 2822     		movs	r2, #40
 1550              	.LVL130:
 1551              		.loc 1 1688 26 view .LVU401
 1552 0020 A25C     		ldrb	r2, [r4, r2]
 1553 0022 D200     		lsls	r2, r2, #3
 1554 0024 9B18     		adds	r3, r3, r2
 1555 0026 5B18     		adds	r3, r3, r1
 1556 0028 CE4A     		ldr	r2, .L96+8
 1557 002a 9446     		mov	ip, r2
 1558 002c 6344     		add	r3, r3, ip
 1559 002e 1B88     		ldrh	r3, [r3]
 1560 0030 9B05     		lsls	r3, r3, #22
 1561 0032 9B0D     		lsrs	r3, r3, #22
 1562              		.loc 1 1688 24 view .LVU402
 1563 0034 6364     		str	r3, [r4, #68]
1689:Drivers/STM32F0xx_HAL_Driver/Src/stm32f0xx_hal_pcd.c ****         ep->xfer_buff += ep->xfer_count;
 1564              		.loc 1 1689 9 is_stmt 1 view .LVU403
 1565              		.loc 1 1689 23 is_stmt 0 view .LVU404
 1566 0036 E26B     		ldr	r2, [r4, #60]
 1567 0038 9446     		mov	ip, r2
 1568 003a 6344     		add	r3, r3, ip
 1569 003c E363     		str	r3, [r4, #60]
1690:Drivers/STM32F0xx_HAL_Driver/Src/stm32f0xx_hal_pcd.c **** 
1691:Drivers/STM32F0xx_HAL_Driver/Src/stm32f0xx_hal_pcd.c ****         /* TX COMPLETE */
1692:Drivers/STM32F0xx_HAL_Driver/Src/stm32f0xx_hal_pcd.c **** #if (USE_HAL_PCD_REGISTER_CALLBACKS == 1U)
1693:Drivers/STM32F0xx_HAL_Driver/Src/stm32f0xx_hal_pcd.c ****         hpcd->DataInStageCallback(hpcd, 0U);
1694:Drivers/STM32F0xx_HAL_Driver/Src/stm32f0xx_hal_pcd.c **** #else
1695:Drivers/STM32F0xx_HAL_Driver/Src/stm32f0xx_hal_pcd.c ****         HAL_PCD_DataInStageCallback(hpcd, 0U);
 1570              		.loc 1 1695 9 is_stmt 1 view .LVU405
 1571 003e 0021     		movs	r1, #0
 1572 0040 2000     		movs	r0, r4
 1573 0042 FFF7FEFF 		bl	HAL_PCD_DataInStageCallback
 1574              	.LVL131:
1696:Drivers/STM32F0xx_HAL_Driver/Src/stm32f0xx_hal_pcd.c **** #endif /* USE_HAL_PCD_REGISTER_CALLBACKS */
1697:Drivers/STM32F0xx_HAL_Driver/Src/stm32f0xx_hal_pcd.c **** 
1698:Drivers/STM32F0xx_HAL_Driver/Src/stm32f0xx_hal_pcd.c ****         if ((hpcd->USB_Address > 0U) && (ep->xfer_len == 0U))
 1575              		.loc 1 1698 9 view .LVU406
 1576              		.loc 1 1698 18 is_stmt 0 view .LVU407
 1577 0046 2423     		movs	r3, #36
 1578 0048 E35C     		ldrb	r3, [r4, r3]
 1579              		.loc 1 1698 12 view .LVU408
 1580 004a 002B     		cmp	r3, #0
 1581 004c 00D1     		bne	.LCB1276
 1582 004e 7DE0     		b	.L71	@long jump
 1583              	.LCB1276:
 1584              		.loc 1 1698 38 discriminator 1 view .LVU409
 1585 0050 236C     		ldr	r3, [r4, #64]
 1586 0052 002B     		cmp	r3, #0
 1587 0054 00D0     		beq	.LCB1280
 1588 0056 79E0     		b	.L71	@long jump
 1589              	.LCB1280:
ARM GAS  /tmp/ccrcqutw.s 			page 60


1699:Drivers/STM32F0xx_HAL_Driver/Src/stm32f0xx_hal_pcd.c ****         {
1700:Drivers/STM32F0xx_HAL_Driver/Src/stm32f0xx_hal_pcd.c ****           hpcd->Instance->DADDR = ((uint16_t)hpcd->USB_Address | USB_DADDR_EF);
 1590              		.loc 1 1700 11 is_stmt 1 view .LVU410
 1591              		.loc 1 1700 50 is_stmt 0 view .LVU411
 1592 0058 2422     		movs	r2, #36
 1593 005a A35C     		ldrb	r3, [r4, r2]
 1594              		.loc 1 1700 33 view .LVU412
 1595 005c 8021     		movs	r1, #128
 1596 005e 4942     		rsbs	r1, r1, #0
 1597 0060 0B43     		orrs	r3, r1
 1598 0062 DBB2     		uxtb	r3, r3
 1599 0064 CC31     		adds	r1, r1, #204
 1600 0066 2068     		ldr	r0, [r4]
 1601 0068 4352     		strh	r3, [r0, r1]
1701:Drivers/STM32F0xx_HAL_Driver/Src/stm32f0xx_hal_pcd.c ****           hpcd->USB_Address = 0U;
 1602              		.loc 1 1701 11 is_stmt 1 view .LVU413
 1603              		.loc 1 1701 29 is_stmt 0 view .LVU414
 1604 006a 0023     		movs	r3, #0
 1605 006c A354     		strb	r3, [r4, r2]
 1606 006e 6DE0     		b	.L71
 1607              	.LVL132:
 1608              	.L94:
1702:Drivers/STM32F0xx_HAL_Driver/Src/stm32f0xx_hal_pcd.c ****         }
1703:Drivers/STM32F0xx_HAL_Driver/Src/stm32f0xx_hal_pcd.c ****       }
1704:Drivers/STM32F0xx_HAL_Driver/Src/stm32f0xx_hal_pcd.c ****       else
1705:Drivers/STM32F0xx_HAL_Driver/Src/stm32f0xx_hal_pcd.c ****       {
1706:Drivers/STM32F0xx_HAL_Driver/Src/stm32f0xx_hal_pcd.c ****         /* DIR = 1 */
1707:Drivers/STM32F0xx_HAL_Driver/Src/stm32f0xx_hal_pcd.c **** 
1708:Drivers/STM32F0xx_HAL_Driver/Src/stm32f0xx_hal_pcd.c ****         /* DIR = 1 & CTR_RX       => SETUP or OUT int */
1709:Drivers/STM32F0xx_HAL_Driver/Src/stm32f0xx_hal_pcd.c ****         /* DIR = 1 & (CTR_TX | CTR_RX) => 2 int pending */
1710:Drivers/STM32F0xx_HAL_Driver/Src/stm32f0xx_hal_pcd.c ****         ep = &hpcd->OUT_ep[0];
1711:Drivers/STM32F0xx_HAL_Driver/Src/stm32f0xx_hal_pcd.c ****         wEPVal = PCD_GET_ENDPOINT(hpcd->Instance, PCD_ENDP0);
1712:Drivers/STM32F0xx_HAL_Driver/Src/stm32f0xx_hal_pcd.c **** 
1713:Drivers/STM32F0xx_HAL_Driver/Src/stm32f0xx_hal_pcd.c ****         if ((wEPVal & USB_EP_SETUP) != 0U)
1714:Drivers/STM32F0xx_HAL_Driver/Src/stm32f0xx_hal_pcd.c ****         {
1715:Drivers/STM32F0xx_HAL_Driver/Src/stm32f0xx_hal_pcd.c ****           /* Get SETUP Packet*/
1716:Drivers/STM32F0xx_HAL_Driver/Src/stm32f0xx_hal_pcd.c ****           ep->xfer_count = PCD_GET_EP_RX_CNT(hpcd->Instance, ep->num);
 1609              		.loc 1 1716 11 is_stmt 1 view .LVU415
 1610              		.loc 1 1716 28 is_stmt 0 view .LVU416
 1611 0070 5023     		movs	r3, #80
 1612              	.LVL133:
 1613              		.loc 1 1716 28 view .LVU417
 1614 0072 C35A     		ldrh	r3, [r0, r3]
 1615 0074 9422     		movs	r2, #148
 1616 0076 5200     		lsls	r2, r2, #1
 1617 0078 A25C     		ldrb	r2, [r4, r2]
 1618 007a D200     		lsls	r2, r2, #3
 1619 007c 9B18     		adds	r3, r3, r2
 1620 007e 1B18     		adds	r3, r3, r0
 1621 0080 B94A     		ldr	r2, .L96+12
 1622 0082 9446     		mov	ip, r2
 1623 0084 6344     		add	r3, r3, ip
 1624 0086 1B88     		ldrh	r3, [r3]
 1625 0088 9B05     		lsls	r3, r3, #22
 1626 008a 9B0D     		lsrs	r3, r3, #22
 1627              		.loc 1 1716 26 view .LVU418
 1628 008c 2200     		movs	r2, r4
ARM GAS  /tmp/ccrcqutw.s 			page 61


 1629 008e 2932     		adds	r2, r2, #41
 1630 0090 FF32     		adds	r2, r2, #255
 1631 0092 D361     		str	r3, [r2, #28]
1717:Drivers/STM32F0xx_HAL_Driver/Src/stm32f0xx_hal_pcd.c **** 
1718:Drivers/STM32F0xx_HAL_Driver/Src/stm32f0xx_hal_pcd.c ****           USB_ReadPMA(hpcd->Instance, (uint8_t *)hpcd->Setup,
 1632              		.loc 1 1718 11 is_stmt 1 view .LVU419
 1633              		.loc 1 1718 50 is_stmt 0 view .LVU420
 1634 0094 8C21     		movs	r1, #140
 1635              	.LVL134:
 1636              		.loc 1 1718 50 view .LVU421
 1637 0096 8900     		lsls	r1, r1, #2
 1638 0098 6118     		adds	r1, r4, r1
 1639              		.loc 1 1718 11 view .LVU422
 1640 009a D288     		ldrh	r2, [r2, #6]
 1641 009c FFF7FEFF 		bl	USB_ReadPMA
 1642              	.LVL135:
1719:Drivers/STM32F0xx_HAL_Driver/Src/stm32f0xx_hal_pcd.c ****                       ep->pmaadress, (uint16_t)ep->xfer_count);
1720:Drivers/STM32F0xx_HAL_Driver/Src/stm32f0xx_hal_pcd.c **** 
1721:Drivers/STM32F0xx_HAL_Driver/Src/stm32f0xx_hal_pcd.c ****           /* SETUP bit kept frozen while CTR_RX = 1*/
1722:Drivers/STM32F0xx_HAL_Driver/Src/stm32f0xx_hal_pcd.c ****           PCD_CLEAR_RX_EP_CTR(hpcd->Instance, PCD_ENDP0);
 1643              		.loc 1 1722 11 is_stmt 1 view .LVU423
 1644              	.LBB3:
 1645              		.loc 1 1722 11 view .LVU424
 1646              		.loc 1 1722 11 view .LVU425
 1647 00a0 2268     		ldr	r2, [r4]
 1648 00a2 1388     		ldrh	r3, [r2]
 1649 00a4 B149     		ldr	r1, .L96+16
 1650 00a6 0B40     		ands	r3, r1
 1651              	.LVL136:
 1652              		.loc 1 1722 11 view .LVU426
 1653 00a8 8021     		movs	r1, #128
 1654 00aa 0B43     		orrs	r3, r1
 1655              	.LVL137:
 1656              		.loc 1 1722 11 is_stmt 0 view .LVU427
 1657 00ac 9BB2     		uxth	r3, r3
 1658 00ae 1380     		strh	r3, [r2]
 1659              	.LBE3:
 1660              		.loc 1 1722 11 is_stmt 1 view .LVU428
1723:Drivers/STM32F0xx_HAL_Driver/Src/stm32f0xx_hal_pcd.c **** 
1724:Drivers/STM32F0xx_HAL_Driver/Src/stm32f0xx_hal_pcd.c ****           /* Process SETUP Packet*/
1725:Drivers/STM32F0xx_HAL_Driver/Src/stm32f0xx_hal_pcd.c **** #if (USE_HAL_PCD_REGISTER_CALLBACKS == 1U)
1726:Drivers/STM32F0xx_HAL_Driver/Src/stm32f0xx_hal_pcd.c ****           hpcd->SetupStageCallback(hpcd);
1727:Drivers/STM32F0xx_HAL_Driver/Src/stm32f0xx_hal_pcd.c **** #else
1728:Drivers/STM32F0xx_HAL_Driver/Src/stm32f0xx_hal_pcd.c ****           HAL_PCD_SetupStageCallback(hpcd);
 1661              		.loc 1 1728 11 view .LVU429
 1662 00b0 2000     		movs	r0, r4
 1663 00b2 FFF7FEFF 		bl	HAL_PCD_SetupStageCallback
 1664              	.LVL138:
 1665 00b6 49E0     		b	.L71
 1666              	.LVL139:
 1667              	.L77:
 1668              	.LBB4:
 1669              	.LBB5:
1729:Drivers/STM32F0xx_HAL_Driver/Src/stm32f0xx_hal_pcd.c **** #endif /* USE_HAL_PCD_REGISTER_CALLBACKS */
1730:Drivers/STM32F0xx_HAL_Driver/Src/stm32f0xx_hal_pcd.c ****         }
1731:Drivers/STM32F0xx_HAL_Driver/Src/stm32f0xx_hal_pcd.c **** 
1732:Drivers/STM32F0xx_HAL_Driver/Src/stm32f0xx_hal_pcd.c ****         else if ((wEPVal & USB_EP_CTR_RX) != 0U)
ARM GAS  /tmp/ccrcqutw.s 			page 62


1733:Drivers/STM32F0xx_HAL_Driver/Src/stm32f0xx_hal_pcd.c ****         {
1734:Drivers/STM32F0xx_HAL_Driver/Src/stm32f0xx_hal_pcd.c ****           PCD_CLEAR_RX_EP_CTR(hpcd->Instance, PCD_ENDP0);
1735:Drivers/STM32F0xx_HAL_Driver/Src/stm32f0xx_hal_pcd.c **** 
1736:Drivers/STM32F0xx_HAL_Driver/Src/stm32f0xx_hal_pcd.c ****           /* Get Control Data OUT Packet*/
1737:Drivers/STM32F0xx_HAL_Driver/Src/stm32f0xx_hal_pcd.c ****           ep->xfer_count = PCD_GET_EP_RX_CNT(hpcd->Instance, ep->num);
1738:Drivers/STM32F0xx_HAL_Driver/Src/stm32f0xx_hal_pcd.c **** 
1739:Drivers/STM32F0xx_HAL_Driver/Src/stm32f0xx_hal_pcd.c ****           if ((ep->xfer_count != 0U) && (ep->xfer_buff != 0U))
1740:Drivers/STM32F0xx_HAL_Driver/Src/stm32f0xx_hal_pcd.c ****           {
1741:Drivers/STM32F0xx_HAL_Driver/Src/stm32f0xx_hal_pcd.c ****             USB_ReadPMA(hpcd->Instance, ep->xfer_buff,
1742:Drivers/STM32F0xx_HAL_Driver/Src/stm32f0xx_hal_pcd.c ****                         ep->pmaadress, (uint16_t)ep->xfer_count);
1743:Drivers/STM32F0xx_HAL_Driver/Src/stm32f0xx_hal_pcd.c **** 
1744:Drivers/STM32F0xx_HAL_Driver/Src/stm32f0xx_hal_pcd.c ****             ep->xfer_buff += ep->xfer_count;
1745:Drivers/STM32F0xx_HAL_Driver/Src/stm32f0xx_hal_pcd.c **** 
1746:Drivers/STM32F0xx_HAL_Driver/Src/stm32f0xx_hal_pcd.c ****             /* Process Control Data OUT Packet*/
1747:Drivers/STM32F0xx_HAL_Driver/Src/stm32f0xx_hal_pcd.c **** #if (USE_HAL_PCD_REGISTER_CALLBACKS == 1U)
1748:Drivers/STM32F0xx_HAL_Driver/Src/stm32f0xx_hal_pcd.c ****             hpcd->DataOutStageCallback(hpcd, 0U);
1749:Drivers/STM32F0xx_HAL_Driver/Src/stm32f0xx_hal_pcd.c **** #else
1750:Drivers/STM32F0xx_HAL_Driver/Src/stm32f0xx_hal_pcd.c ****             HAL_PCD_DataOutStageCallback(hpcd, 0U);
1751:Drivers/STM32F0xx_HAL_Driver/Src/stm32f0xx_hal_pcd.c **** #endif /* USE_HAL_PCD_REGISTER_CALLBACKS */
1752:Drivers/STM32F0xx_HAL_Driver/Src/stm32f0xx_hal_pcd.c ****           }
1753:Drivers/STM32F0xx_HAL_Driver/Src/stm32f0xx_hal_pcd.c **** 
1754:Drivers/STM32F0xx_HAL_Driver/Src/stm32f0xx_hal_pcd.c ****           PCD_SET_EP_RX_CNT(hpcd->Instance, PCD_ENDP0, ep->maxpacket);
 1670              		.loc 1 1754 11 discriminator 2 view .LVU430
 1671 00b8 3E2A     		cmp	r2, #62
 1672 00ba 06D8     		bhi	.L79
 1673              		.loc 1 1754 11 discriminator 4 view .LVU431
 1674              		.loc 1 1754 11 discriminator 4 view .LVU432
 1675 00bc 5108     		lsrs	r1, r2, #1
 1676              	.LVL140:
 1677              		.loc 1 1754 11 discriminator 4 view .LVU433
 1678 00be D207     		lsls	r2, r2, #31
 1679 00c0 00D5     		bpl	.L80
 1680              		.loc 1 1754 11 discriminator 6 view .LVU434
 1681 00c2 0131     		adds	r1, r1, #1
 1682              	.LVL141:
 1683              	.L80:
 1684              		.loc 1 1754 11 discriminator 8 view .LVU435
 1685 00c4 8902     		lsls	r1, r1, #10
 1686              	.LVL142:
 1687              		.loc 1 1754 11 is_stmt 0 discriminator 8 view .LVU436
 1688 00c6 1980     		strh	r1, [r3]
 1689              		.loc 1 1754 11 is_stmt 1 discriminator 8 view .LVU437
 1690 00c8 9AE0     		b	.L78
 1691              	.L79:
 1692              		.loc 1 1754 11 discriminator 5 view .LVU438
 1693              		.loc 1 1754 11 discriminator 5 view .LVU439
 1694 00ca 5109     		lsrs	r1, r2, #5
 1695              	.LVL143:
 1696              		.loc 1 1754 11 discriminator 5 view .LVU440
 1697 00cc D206     		lsls	r2, r2, #27
 1698 00ce 00D1     		bne	.L81
 1699              		.loc 1 1754 11 discriminator 10 view .LVU441
 1700 00d0 0139     		subs	r1, r1, #1
 1701              	.LVL144:
 1702              	.L81:
 1703              		.loc 1 1754 11 discriminator 12 view .LVU442
 1704 00d2 8902     		lsls	r1, r1, #10
ARM GAS  /tmp/ccrcqutw.s 			page 63


 1705              	.LVL145:
 1706              		.loc 1 1754 11 is_stmt 0 discriminator 12 view .LVU443
 1707 00d4 89B2     		uxth	r1, r1
 1708 00d6 A24A     		ldr	r2, .L96+4
 1709 00d8 1143     		orrs	r1, r2
 1710 00da 1980     		strh	r1, [r3]
 1711 00dc 90E0     		b	.L78
 1712              	.LVL146:
 1713              	.L72:
 1714              		.loc 1 1754 11 discriminator 12 view .LVU444
 1715              	.LBE5:
 1716              	.LBE4:
1755:Drivers/STM32F0xx_HAL_Driver/Src/stm32f0xx_hal_pcd.c ****           PCD_SET_EP_RX_STATUS(hpcd->Instance, PCD_ENDP0, USB_EP_RX_VALID);
1756:Drivers/STM32F0xx_HAL_Driver/Src/stm32f0xx_hal_pcd.c ****         }
1757:Drivers/STM32F0xx_HAL_Driver/Src/stm32f0xx_hal_pcd.c ****       }
1758:Drivers/STM32F0xx_HAL_Driver/Src/stm32f0xx_hal_pcd.c ****     }
1759:Drivers/STM32F0xx_HAL_Driver/Src/stm32f0xx_hal_pcd.c ****     else
1760:Drivers/STM32F0xx_HAL_Driver/Src/stm32f0xx_hal_pcd.c ****     {
1761:Drivers/STM32F0xx_HAL_Driver/Src/stm32f0xx_hal_pcd.c ****       /* Decode and service non control endpoints interrupt  */
1762:Drivers/STM32F0xx_HAL_Driver/Src/stm32f0xx_hal_pcd.c **** 
1763:Drivers/STM32F0xx_HAL_Driver/Src/stm32f0xx_hal_pcd.c ****       /* process related endpoint register */
1764:Drivers/STM32F0xx_HAL_Driver/Src/stm32f0xx_hal_pcd.c ****       wEPVal = PCD_GET_ENDPOINT(hpcd->Instance, epindex);
 1717              		.loc 1 1764 7 is_stmt 1 view .LVU445
 1718              		.loc 1 1764 16 is_stmt 0 view .LVU446
 1719 00de AE00     		lsls	r6, r5, #2
 1720 00e0 8019     		adds	r0, r0, r6
 1721              		.loc 1 1764 14 view .LVU447
 1722 00e2 0388     		ldrh	r3, [r0]
 1723 00e4 9FB2     		uxth	r7, r3
 1724              	.LVL147:
1765:Drivers/STM32F0xx_HAL_Driver/Src/stm32f0xx_hal_pcd.c ****       if ((wEPVal & USB_EP_CTR_RX) != 0U)
 1725              		.loc 1 1765 7 is_stmt 1 view .LVU448
 1726              		.loc 1 1765 36 is_stmt 0 view .LVU449
 1727 00e6 1BB2     		sxth	r3, r3
 1728              		.loc 1 1765 10 view .LVU450
 1729 00e8 002B     		cmp	r3, #0
 1730 00ea 00DA     		bge	.LCB1452
 1731 00ec 94E0     		b	.L91	@long jump
 1732              	.LCB1452:
 1733              	.LVL148:
 1734              	.L82:
1766:Drivers/STM32F0xx_HAL_Driver/Src/stm32f0xx_hal_pcd.c ****       {
1767:Drivers/STM32F0xx_HAL_Driver/Src/stm32f0xx_hal_pcd.c ****         /* clear int flag */
1768:Drivers/STM32F0xx_HAL_Driver/Src/stm32f0xx_hal_pcd.c ****         PCD_CLEAR_RX_EP_CTR(hpcd->Instance, epindex);
1769:Drivers/STM32F0xx_HAL_Driver/Src/stm32f0xx_hal_pcd.c ****         ep = &hpcd->OUT_ep[epindex];
1770:Drivers/STM32F0xx_HAL_Driver/Src/stm32f0xx_hal_pcd.c **** 
1771:Drivers/STM32F0xx_HAL_Driver/Src/stm32f0xx_hal_pcd.c ****         /* OUT double Buffering*/
1772:Drivers/STM32F0xx_HAL_Driver/Src/stm32f0xx_hal_pcd.c ****         if (ep->doublebuffer == 0U)
1773:Drivers/STM32F0xx_HAL_Driver/Src/stm32f0xx_hal_pcd.c ****         {
1774:Drivers/STM32F0xx_HAL_Driver/Src/stm32f0xx_hal_pcd.c ****           count = (uint16_t)PCD_GET_EP_RX_CNT(hpcd->Instance, ep->num);
1775:Drivers/STM32F0xx_HAL_Driver/Src/stm32f0xx_hal_pcd.c ****           if (count != 0U)
1776:Drivers/STM32F0xx_HAL_Driver/Src/stm32f0xx_hal_pcd.c ****           {
1777:Drivers/STM32F0xx_HAL_Driver/Src/stm32f0xx_hal_pcd.c ****             USB_ReadPMA(hpcd->Instance, ep->xfer_buff, ep->pmaadress, count);
1778:Drivers/STM32F0xx_HAL_Driver/Src/stm32f0xx_hal_pcd.c ****           }
1779:Drivers/STM32F0xx_HAL_Driver/Src/stm32f0xx_hal_pcd.c ****         }
1780:Drivers/STM32F0xx_HAL_Driver/Src/stm32f0xx_hal_pcd.c ****         else
1781:Drivers/STM32F0xx_HAL_Driver/Src/stm32f0xx_hal_pcd.c ****         {
ARM GAS  /tmp/ccrcqutw.s 			page 64


1782:Drivers/STM32F0xx_HAL_Driver/Src/stm32f0xx_hal_pcd.c ****           if ((PCD_GET_ENDPOINT(hpcd->Instance, ep->num) & USB_EP_DTOG_RX) != 0U)
1783:Drivers/STM32F0xx_HAL_Driver/Src/stm32f0xx_hal_pcd.c ****           {
1784:Drivers/STM32F0xx_HAL_Driver/Src/stm32f0xx_hal_pcd.c ****             /*read from endpoint BUF0Addr buffer*/
1785:Drivers/STM32F0xx_HAL_Driver/Src/stm32f0xx_hal_pcd.c ****             count = (uint16_t)PCD_GET_EP_DBUF0_CNT(hpcd->Instance, ep->num);
1786:Drivers/STM32F0xx_HAL_Driver/Src/stm32f0xx_hal_pcd.c ****             if (count != 0U)
1787:Drivers/STM32F0xx_HAL_Driver/Src/stm32f0xx_hal_pcd.c ****             {
1788:Drivers/STM32F0xx_HAL_Driver/Src/stm32f0xx_hal_pcd.c ****               USB_ReadPMA(hpcd->Instance, ep->xfer_buff, ep->pmaaddr0, count);
1789:Drivers/STM32F0xx_HAL_Driver/Src/stm32f0xx_hal_pcd.c ****             }
1790:Drivers/STM32F0xx_HAL_Driver/Src/stm32f0xx_hal_pcd.c ****           }
1791:Drivers/STM32F0xx_HAL_Driver/Src/stm32f0xx_hal_pcd.c ****           else
1792:Drivers/STM32F0xx_HAL_Driver/Src/stm32f0xx_hal_pcd.c ****           {
1793:Drivers/STM32F0xx_HAL_Driver/Src/stm32f0xx_hal_pcd.c ****             /*read from endpoint BUF1Addr buffer*/
1794:Drivers/STM32F0xx_HAL_Driver/Src/stm32f0xx_hal_pcd.c ****             count = (uint16_t)PCD_GET_EP_DBUF1_CNT(hpcd->Instance, ep->num);
1795:Drivers/STM32F0xx_HAL_Driver/Src/stm32f0xx_hal_pcd.c ****             if (count != 0U)
1796:Drivers/STM32F0xx_HAL_Driver/Src/stm32f0xx_hal_pcd.c ****             {
1797:Drivers/STM32F0xx_HAL_Driver/Src/stm32f0xx_hal_pcd.c ****               USB_ReadPMA(hpcd->Instance, ep->xfer_buff, ep->pmaaddr1, count);
1798:Drivers/STM32F0xx_HAL_Driver/Src/stm32f0xx_hal_pcd.c ****             }
1799:Drivers/STM32F0xx_HAL_Driver/Src/stm32f0xx_hal_pcd.c ****           }
1800:Drivers/STM32F0xx_HAL_Driver/Src/stm32f0xx_hal_pcd.c ****           /* free EP OUT Buffer */
1801:Drivers/STM32F0xx_HAL_Driver/Src/stm32f0xx_hal_pcd.c ****           PCD_FreeUserBuffer(hpcd->Instance, ep->num, 0U);
1802:Drivers/STM32F0xx_HAL_Driver/Src/stm32f0xx_hal_pcd.c ****         }
1803:Drivers/STM32F0xx_HAL_Driver/Src/stm32f0xx_hal_pcd.c ****         /*multi-packet on the NON control OUT endpoint*/
1804:Drivers/STM32F0xx_HAL_Driver/Src/stm32f0xx_hal_pcd.c ****         ep->xfer_count += count;
1805:Drivers/STM32F0xx_HAL_Driver/Src/stm32f0xx_hal_pcd.c ****         ep->xfer_buff += count;
1806:Drivers/STM32F0xx_HAL_Driver/Src/stm32f0xx_hal_pcd.c **** 
1807:Drivers/STM32F0xx_HAL_Driver/Src/stm32f0xx_hal_pcd.c ****         if ((ep->xfer_len == 0U) || (count < ep->maxpacket))
1808:Drivers/STM32F0xx_HAL_Driver/Src/stm32f0xx_hal_pcd.c ****         {
1809:Drivers/STM32F0xx_HAL_Driver/Src/stm32f0xx_hal_pcd.c ****           /* RX COMPLETE */
1810:Drivers/STM32F0xx_HAL_Driver/Src/stm32f0xx_hal_pcd.c **** #if (USE_HAL_PCD_REGISTER_CALLBACKS == 1U)
1811:Drivers/STM32F0xx_HAL_Driver/Src/stm32f0xx_hal_pcd.c ****           hpcd->DataOutStageCallback(hpcd, ep->num);
1812:Drivers/STM32F0xx_HAL_Driver/Src/stm32f0xx_hal_pcd.c **** #else
1813:Drivers/STM32F0xx_HAL_Driver/Src/stm32f0xx_hal_pcd.c ****           HAL_PCD_DataOutStageCallback(hpcd, ep->num);
1814:Drivers/STM32F0xx_HAL_Driver/Src/stm32f0xx_hal_pcd.c **** #endif /* USE_HAL_PCD_REGISTER_CALLBACKS */
1815:Drivers/STM32F0xx_HAL_Driver/Src/stm32f0xx_hal_pcd.c ****         }
1816:Drivers/STM32F0xx_HAL_Driver/Src/stm32f0xx_hal_pcd.c ****         else
1817:Drivers/STM32F0xx_HAL_Driver/Src/stm32f0xx_hal_pcd.c ****         {
1818:Drivers/STM32F0xx_HAL_Driver/Src/stm32f0xx_hal_pcd.c ****           (void)HAL_PCD_EP_Receive(hpcd, ep->num, ep->xfer_buff, ep->xfer_len);
1819:Drivers/STM32F0xx_HAL_Driver/Src/stm32f0xx_hal_pcd.c ****         }
1820:Drivers/STM32F0xx_HAL_Driver/Src/stm32f0xx_hal_pcd.c **** 
1821:Drivers/STM32F0xx_HAL_Driver/Src/stm32f0xx_hal_pcd.c ****       } /* if((wEPVal & EP_CTR_RX) */
1822:Drivers/STM32F0xx_HAL_Driver/Src/stm32f0xx_hal_pcd.c **** 
1823:Drivers/STM32F0xx_HAL_Driver/Src/stm32f0xx_hal_pcd.c ****       if ((wEPVal & USB_EP_CTR_TX) != 0U)
 1735              		.loc 1 1823 7 is_stmt 1 view .LVU451
 1736              		.loc 1 1823 10 is_stmt 0 view .LVU452
 1737 00ee 3B06     		lsls	r3, r7, #24
 1738 00f0 2CD5     		bpl	.L71
1824:Drivers/STM32F0xx_HAL_Driver/Src/stm32f0xx_hal_pcd.c ****       {
1825:Drivers/STM32F0xx_HAL_Driver/Src/stm32f0xx_hal_pcd.c ****         ep = &hpcd->IN_ep[epindex];
 1739              		.loc 1 1825 9 is_stmt 1 view .LVU453
 1740              	.LVL149:
1826:Drivers/STM32F0xx_HAL_Driver/Src/stm32f0xx_hal_pcd.c **** 
1827:Drivers/STM32F0xx_HAL_Driver/Src/stm32f0xx_hal_pcd.c ****         /* clear int flag */
1828:Drivers/STM32F0xx_HAL_Driver/Src/stm32f0xx_hal_pcd.c ****         PCD_CLEAR_TX_EP_CTR(hpcd->Instance, epindex);
 1741              		.loc 1 1828 9 view .LVU454
 1742              	.LBB7:
 1743              		.loc 1 1828 9 view .LVU455
 1744              		.loc 1 1828 9 view .LVU456
ARM GAS  /tmp/ccrcqutw.s 			page 65


 1745 00f2 2368     		ldr	r3, [r4]
 1746 00f4 9C46     		mov	ip, r3
 1747 00f6 6644     		add	r6, r6, ip
 1748 00f8 3388     		ldrh	r3, [r6]
 1749 00fa 984A     		ldr	r2, .L96
 1750 00fc 1A40     		ands	r2, r3
 1751              	.LVL150:
 1752              		.loc 1 1828 9 view .LVU457
 1753 00fe 984B     		ldr	r3, .L96+4
 1754 0100 1343     		orrs	r3, r2
 1755 0102 9BB2     		uxth	r3, r3
 1756 0104 3380     		strh	r3, [r6]
 1757              	.LBE7:
 1758              		.loc 1 1828 9 view .LVU458
1829:Drivers/STM32F0xx_HAL_Driver/Src/stm32f0xx_hal_pcd.c **** 
1830:Drivers/STM32F0xx_HAL_Driver/Src/stm32f0xx_hal_pcd.c ****         /*multi-packet on the NON control IN endpoint*/
1831:Drivers/STM32F0xx_HAL_Driver/Src/stm32f0xx_hal_pcd.c ****         ep->xfer_count = PCD_GET_EP_TX_CNT(hpcd->Instance, ep->num);
 1759              		.loc 1 1831 9 view .LVU459
 1760              		.loc 1 1831 26 is_stmt 0 view .LVU460
 1761 0106 2068     		ldr	r0, [r4]
 1762 0108 5023     		movs	r3, #80
 1763 010a C35A     		ldrh	r3, [r0, r3]
 1764 010c 6901     		lsls	r1, r5, #5
 1765 010e 6118     		adds	r1, r4, r1
 1766 0110 0A00     		movs	r2, r1
 1767              	.LVL151:
 1768              		.loc 1 1831 26 view .LVU461
 1769 0112 2832     		adds	r2, r2, #40
 1770              	.LVL152:
 1771              		.loc 1 1831 26 view .LVU462
 1772 0114 1278     		ldrb	r2, [r2]
 1773              	.LVL153:
 1774              		.loc 1 1831 26 view .LVU463
 1775 0116 D200     		lsls	r2, r2, #3
 1776 0118 9B18     		adds	r3, r3, r2
 1777 011a 1B18     		adds	r3, r3, r0
 1778 011c 914A     		ldr	r2, .L96+8
 1779 011e 9446     		mov	ip, r2
 1780 0120 6344     		add	r3, r3, ip
 1781 0122 1A88     		ldrh	r2, [r3]
 1782 0124 9205     		lsls	r2, r2, #22
 1783 0126 920D     		lsrs	r2, r2, #22
 1784              		.loc 1 1831 24 view .LVU464
 1785 0128 AB1C     		adds	r3, r5, #2
 1786 012a 5B01     		lsls	r3, r3, #5
 1787 012c E018     		adds	r0, r4, r3
 1788 012e 4260     		str	r2, [r0, #4]
1832:Drivers/STM32F0xx_HAL_Driver/Src/stm32f0xx_hal_pcd.c ****         ep->xfer_buff += ep->xfer_count;
 1789              		.loc 1 1832 9 is_stmt 1 view .LVU465
 1790              		.loc 1 1832 23 is_stmt 0 view .LVU466
 1791 0130 C86B     		ldr	r0, [r1, #60]
 1792 0132 8446     		mov	ip, r0
 1793 0134 6244     		add	r2, r2, ip
 1794 0136 CA63     		str	r2, [r1, #60]
1833:Drivers/STM32F0xx_HAL_Driver/Src/stm32f0xx_hal_pcd.c **** 
1834:Drivers/STM32F0xx_HAL_Driver/Src/stm32f0xx_hal_pcd.c ****         /* Zero Length Packet? */
1835:Drivers/STM32F0xx_HAL_Driver/Src/stm32f0xx_hal_pcd.c ****         if (ep->xfer_len == 0U)
ARM GAS  /tmp/ccrcqutw.s 			page 66


 1795              		.loc 1 1835 9 is_stmt 1 view .LVU467
 1796              		.loc 1 1835 15 is_stmt 0 view .LVU468
 1797 0138 1B59     		ldr	r3, [r3, r4]
 1798              		.loc 1 1835 12 view .LVU469
 1799 013a 002B     		cmp	r3, #0
 1800 013c 00D0     		beq	.LCB1520
 1801 013e 2AE1     		b	.L89	@long jump
 1802              	.LCB1520:
1836:Drivers/STM32F0xx_HAL_Driver/Src/stm32f0xx_hal_pcd.c ****         {
1837:Drivers/STM32F0xx_HAL_Driver/Src/stm32f0xx_hal_pcd.c ****           /* TX COMPLETE */
1838:Drivers/STM32F0xx_HAL_Driver/Src/stm32f0xx_hal_pcd.c **** #if (USE_HAL_PCD_REGISTER_CALLBACKS == 1U)
1839:Drivers/STM32F0xx_HAL_Driver/Src/stm32f0xx_hal_pcd.c ****           hpcd->DataInStageCallback(hpcd, ep->num);
1840:Drivers/STM32F0xx_HAL_Driver/Src/stm32f0xx_hal_pcd.c **** #else
1841:Drivers/STM32F0xx_HAL_Driver/Src/stm32f0xx_hal_pcd.c ****           HAL_PCD_DataInStageCallback(hpcd, ep->num);
 1803              		.loc 1 1841 11 is_stmt 1 view .LVU470
 1804 0140 0D00     		movs	r5, r1
 1805              	.LVL154:
 1806              		.loc 1 1841 11 is_stmt 0 view .LVU471
 1807 0142 2835     		adds	r5, r5, #40
 1808              	.LVL155:
 1809              		.loc 1 1841 11 view .LVU472
 1810 0144 2978     		ldrb	r1, [r5]
 1811 0146 2000     		movs	r0, r4
 1812 0148 FFF7FEFF 		bl	HAL_PCD_DataInStageCallback
 1813              	.LVL156:
 1814              	.L71:
1668:Drivers/STM32F0xx_HAL_Driver/Src/stm32f0xx_hal_pcd.c ****   {
 1815              		.loc 1 1668 9 is_stmt 1 view .LVU473
1668:Drivers/STM32F0xx_HAL_Driver/Src/stm32f0xx_hal_pcd.c ****   {
 1816              		.loc 1 1668 15 is_stmt 0 view .LVU474
 1817 014c 2068     		ldr	r0, [r4]
1668:Drivers/STM32F0xx_HAL_Driver/Src/stm32f0xx_hal_pcd.c ****   {
 1818              		.loc 1 1668 25 view .LVU475
 1819 014e 4423     		movs	r3, #68
 1820 0150 C35A     		ldrh	r3, [r0, r3]
1668:Drivers/STM32F0xx_HAL_Driver/Src/stm32f0xx_hal_pcd.c ****   {
 1821              		.loc 1 1668 48 view .LVU476
 1822 0152 1BB2     		sxth	r3, r3
1668:Drivers/STM32F0xx_HAL_Driver/Src/stm32f0xx_hal_pcd.c ****   {
 1823              		.loc 1 1668 9 view .LVU477
 1824 0154 002B     		cmp	r3, #0
 1825 0156 00DB     		blt	.LCB1545
 1826 0158 25E1     		b	.L92	@long jump
 1827              	.LCB1545:
1670:Drivers/STM32F0xx_HAL_Driver/Src/stm32f0xx_hal_pcd.c ****     /* extract highest priority endpoint number */
 1828              		.loc 1 1670 5 is_stmt 1 view .LVU478
1670:Drivers/STM32F0xx_HAL_Driver/Src/stm32f0xx_hal_pcd.c ****     /* extract highest priority endpoint number */
 1829              		.loc 1 1670 11 is_stmt 0 view .LVU479
 1830 015a 4423     		movs	r3, #68
 1831 015c C35A     		ldrh	r3, [r0, r3]
 1832 015e 99B2     		uxth	r1, r3
 1833              	.LVL157:
1672:Drivers/STM32F0xx_HAL_Driver/Src/stm32f0xx_hal_pcd.c **** 
 1834              		.loc 1 1672 5 is_stmt 1 view .LVU480
1672:Drivers/STM32F0xx_HAL_Driver/Src/stm32f0xx_hal_pcd.c **** 
 1835              		.loc 1 1672 13 is_stmt 0 view .LVU481
 1836 0160 0F22     		movs	r2, #15
ARM GAS  /tmp/ccrcqutw.s 			page 67


 1837 0162 1D00     		movs	r5, r3
 1838 0164 1540     		ands	r5, r2
 1839              	.LVL158:
1674:Drivers/STM32F0xx_HAL_Driver/Src/stm32f0xx_hal_pcd.c ****     {
 1840              		.loc 1 1674 5 is_stmt 1 view .LVU482
1674:Drivers/STM32F0xx_HAL_Driver/Src/stm32f0xx_hal_pcd.c ****     {
 1841              		.loc 1 1674 8 is_stmt 0 view .LVU483
 1842 0166 1342     		tst	r3, r2
 1843 0168 B9D1     		bne	.L72
1679:Drivers/STM32F0xx_HAL_Driver/Src/stm32f0xx_hal_pcd.c ****       {
 1844              		.loc 1 1679 7 is_stmt 1 view .LVU484
1679:Drivers/STM32F0xx_HAL_Driver/Src/stm32f0xx_hal_pcd.c ****       {
 1845              		.loc 1 1679 10 is_stmt 0 view .LVU485
 1846 016a CB06     		lsls	r3, r1, #27
 1847 016c 00D4     		bmi	.LCB1566
 1848 016e 4CE7     		b	.L93	@long jump
 1849              	.LCB1566:
1710:Drivers/STM32F0xx_HAL_Driver/Src/stm32f0xx_hal_pcd.c ****         wEPVal = PCD_GET_ENDPOINT(hpcd->Instance, PCD_ENDP0);
 1850              		.loc 1 1710 9 is_stmt 1 view .LVU486
 1851              	.LVL159:
1711:Drivers/STM32F0xx_HAL_Driver/Src/stm32f0xx_hal_pcd.c **** 
 1852              		.loc 1 1711 9 view .LVU487
1711:Drivers/STM32F0xx_HAL_Driver/Src/stm32f0xx_hal_pcd.c **** 
 1853              		.loc 1 1711 16 is_stmt 0 view .LVU488
 1854 0170 0288     		ldrh	r2, [r0]
 1855 0172 93B2     		uxth	r3, r2
 1856              	.LVL160:
1713:Drivers/STM32F0xx_HAL_Driver/Src/stm32f0xx_hal_pcd.c ****         {
 1857              		.loc 1 1713 9 is_stmt 1 view .LVU489
1713:Drivers/STM32F0xx_HAL_Driver/Src/stm32f0xx_hal_pcd.c ****         {
 1858              		.loc 1 1713 12 is_stmt 0 view .LVU490
 1859 0174 1205     		lsls	r2, r2, #20
 1860 0176 00D5     		bpl	.LCB1578
 1861 0178 7AE7     		b	.L94	@long jump
 1862              	.LCB1578:
1732:Drivers/STM32F0xx_HAL_Driver/Src/stm32f0xx_hal_pcd.c ****         {
 1863              		.loc 1 1732 14 is_stmt 1 view .LVU491
1732:Drivers/STM32F0xx_HAL_Driver/Src/stm32f0xx_hal_pcd.c ****         {
 1864              		.loc 1 1732 43 is_stmt 0 view .LVU492
 1865 017a 1BB2     		sxth	r3, r3
1732:Drivers/STM32F0xx_HAL_Driver/Src/stm32f0xx_hal_pcd.c ****         {
 1866              		.loc 1 1732 17 view .LVU493
 1867 017c 002B     		cmp	r3, #0
 1868 017e E5DA     		bge	.L71
1734:Drivers/STM32F0xx_HAL_Driver/Src/stm32f0xx_hal_pcd.c **** 
 1869              		.loc 1 1734 11 is_stmt 1 view .LVU494
 1870              	.LBB8:
1734:Drivers/STM32F0xx_HAL_Driver/Src/stm32f0xx_hal_pcd.c **** 
 1871              		.loc 1 1734 11 view .LVU495
1734:Drivers/STM32F0xx_HAL_Driver/Src/stm32f0xx_hal_pcd.c **** 
 1872              		.loc 1 1734 11 view .LVU496
 1873 0180 0388     		ldrh	r3, [r0]
 1874              	.LVL161:
1734:Drivers/STM32F0xx_HAL_Driver/Src/stm32f0xx_hal_pcd.c **** 
 1875              		.loc 1 1734 11 is_stmt 0 view .LVU497
 1876 0182 7A4A     		ldr	r2, .L96+16
 1877 0184 1340     		ands	r3, r2
ARM GAS  /tmp/ccrcqutw.s 			page 68


 1878              	.LVL162:
1734:Drivers/STM32F0xx_HAL_Driver/Src/stm32f0xx_hal_pcd.c **** 
 1879              		.loc 1 1734 11 is_stmt 1 view .LVU498
 1880 0186 8022     		movs	r2, #128
 1881 0188 1343     		orrs	r3, r2
 1882              	.LVL163:
1734:Drivers/STM32F0xx_HAL_Driver/Src/stm32f0xx_hal_pcd.c **** 
 1883              		.loc 1 1734 11 is_stmt 0 view .LVU499
 1884 018a 9BB2     		uxth	r3, r3
 1885 018c 0380     		strh	r3, [r0]
 1886              	.LBE8:
1734:Drivers/STM32F0xx_HAL_Driver/Src/stm32f0xx_hal_pcd.c **** 
 1887              		.loc 1 1734 11 is_stmt 1 view .LVU500
1737:Drivers/STM32F0xx_HAL_Driver/Src/stm32f0xx_hal_pcd.c **** 
 1888              		.loc 1 1737 11 view .LVU501
1737:Drivers/STM32F0xx_HAL_Driver/Src/stm32f0xx_hal_pcd.c **** 
 1889              		.loc 1 1737 28 is_stmt 0 view .LVU502
 1890 018e 2068     		ldr	r0, [r4]
 1891 0190 5023     		movs	r3, #80
 1892 0192 C35A     		ldrh	r3, [r0, r3]
 1893 0194 9422     		movs	r2, #148
 1894 0196 5200     		lsls	r2, r2, #1
 1895 0198 A25C     		ldrb	r2, [r4, r2]
 1896 019a D200     		lsls	r2, r2, #3
 1897 019c 9B18     		adds	r3, r3, r2
 1898 019e 1B18     		adds	r3, r3, r0
 1899 01a0 714A     		ldr	r2, .L96+12
 1900 01a2 9446     		mov	ip, r2
 1901 01a4 6344     		add	r3, r3, ip
 1902 01a6 1B88     		ldrh	r3, [r3]
 1903 01a8 9B05     		lsls	r3, r3, #22
 1904 01aa 9B0D     		lsrs	r3, r3, #22
1737:Drivers/STM32F0xx_HAL_Driver/Src/stm32f0xx_hal_pcd.c **** 
 1905              		.loc 1 1737 26 view .LVU503
 1906 01ac 2200     		movs	r2, r4
 1907 01ae 2932     		adds	r2, r2, #41
 1908 01b0 FF32     		adds	r2, r2, #255
 1909 01b2 D361     		str	r3, [r2, #28]
1739:Drivers/STM32F0xx_HAL_Driver/Src/stm32f0xx_hal_pcd.c ****           {
 1910              		.loc 1 1739 11 is_stmt 1 view .LVU504
1739:Drivers/STM32F0xx_HAL_Driver/Src/stm32f0xx_hal_pcd.c ****           {
 1911              		.loc 1 1739 14 is_stmt 0 view .LVU505
 1912 01b4 002B     		cmp	r3, #0
 1913 01b6 0FD0     		beq	.L76
1739:Drivers/STM32F0xx_HAL_Driver/Src/stm32f0xx_hal_pcd.c ****           {
 1914              		.loc 1 1739 44 discriminator 1 view .LVU506
 1915 01b8 5169     		ldr	r1, [r2, #20]
 1916              	.LVL164:
1739:Drivers/STM32F0xx_HAL_Driver/Src/stm32f0xx_hal_pcd.c ****           {
 1917              		.loc 1 1739 38 discriminator 1 view .LVU507
 1918 01ba 0029     		cmp	r1, #0
 1919 01bc 0CD0     		beq	.L76
1741:Drivers/STM32F0xx_HAL_Driver/Src/stm32f0xx_hal_pcd.c ****                         ep->pmaadress, (uint16_t)ep->xfer_count);
 1920              		.loc 1 1741 13 is_stmt 1 view .LVU508
 1921 01be 1500     		movs	r5, r2
 1922              	.LVL165:
1741:Drivers/STM32F0xx_HAL_Driver/Src/stm32f0xx_hal_pcd.c ****                         ep->pmaadress, (uint16_t)ep->xfer_count);
ARM GAS  /tmp/ccrcqutw.s 			page 69


 1923              		.loc 1 1741 13 is_stmt 0 view .LVU509
 1924 01c0 D288     		ldrh	r2, [r2, #6]
 1925 01c2 FFF7FEFF 		bl	USB_ReadPMA
 1926              	.LVL166:
1744:Drivers/STM32F0xx_HAL_Driver/Src/stm32f0xx_hal_pcd.c **** 
 1927              		.loc 1 1744 13 is_stmt 1 view .LVU510
1744:Drivers/STM32F0xx_HAL_Driver/Src/stm32f0xx_hal_pcd.c **** 
 1928              		.loc 1 1744 27 is_stmt 0 view .LVU511
 1929 01c6 6B69     		ldr	r3, [r5, #20]
 1930 01c8 EA69     		ldr	r2, [r5, #28]
 1931 01ca 9446     		mov	ip, r2
 1932 01cc 6344     		add	r3, r3, ip
 1933 01ce 6B61     		str	r3, [r5, #20]
1750:Drivers/STM32F0xx_HAL_Driver/Src/stm32f0xx_hal_pcd.c **** #endif /* USE_HAL_PCD_REGISTER_CALLBACKS */
 1934              		.loc 1 1750 13 is_stmt 1 view .LVU512
 1935 01d0 0021     		movs	r1, #0
 1936 01d2 2000     		movs	r0, r4
 1937 01d4 FFF7FEFF 		bl	HAL_PCD_DataOutStageCallback
 1938              	.LVL167:
 1939              	.L76:
1754:Drivers/STM32F0xx_HAL_Driver/Src/stm32f0xx_hal_pcd.c ****           PCD_SET_EP_RX_STATUS(hpcd->Instance, PCD_ENDP0, USB_EP_RX_VALID);
 1940              		.loc 1 1754 11 view .LVU513
 1941              	.LBB9:
1754:Drivers/STM32F0xx_HAL_Driver/Src/stm32f0xx_hal_pcd.c ****           PCD_SET_EP_RX_STATUS(hpcd->Instance, PCD_ENDP0, USB_EP_RX_VALID);
 1942              		.loc 1 1754 11 view .LVU514
 1943 01d8 2368     		ldr	r3, [r4]
 1944              	.LVL168:
1754:Drivers/STM32F0xx_HAL_Driver/Src/stm32f0xx_hal_pcd.c ****           PCD_SET_EP_RX_STATUS(hpcd->Instance, PCD_ENDP0, USB_EP_RX_VALID);
 1945              		.loc 1 1754 11 view .LVU515
1754:Drivers/STM32F0xx_HAL_Driver/Src/stm32f0xx_hal_pcd.c ****           PCD_SET_EP_RX_STATUS(hpcd->Instance, PCD_ENDP0, USB_EP_RX_VALID);
 1946              		.loc 1 1754 11 view .LVU516
 1947 01da 5022     		movs	r2, #80
 1948 01dc 9A5A     		ldrh	r2, [r3, r2]
 1949 01de 9B18     		adds	r3, r3, r2
 1950              	.LVL169:
1754:Drivers/STM32F0xx_HAL_Driver/Src/stm32f0xx_hal_pcd.c ****           PCD_SET_EP_RX_STATUS(hpcd->Instance, PCD_ENDP0, USB_EP_RX_VALID);
 1951              		.loc 1 1754 11 view .LVU517
 1952 01e0 614A     		ldr	r2, .L96+12
 1953 01e2 9446     		mov	ip, r2
 1954 01e4 6344     		add	r3, r3, ip
 1955              	.LVL170:
1754:Drivers/STM32F0xx_HAL_Driver/Src/stm32f0xx_hal_pcd.c ****           PCD_SET_EP_RX_STATUS(hpcd->Instance, PCD_ENDP0, USB_EP_RX_VALID);
 1956              		.loc 1 1754 11 view .LVU518
 1957              	.LBB6:
1754:Drivers/STM32F0xx_HAL_Driver/Src/stm32f0xx_hal_pcd.c ****           PCD_SET_EP_RX_STATUS(hpcd->Instance, PCD_ENDP0, USB_EP_RX_VALID);
 1958              		.loc 1 1754 11 view .LVU519
1754:Drivers/STM32F0xx_HAL_Driver/Src/stm32f0xx_hal_pcd.c ****           PCD_SET_EP_RX_STATUS(hpcd->Instance, PCD_ENDP0, USB_EP_RX_VALID);
 1959              		.loc 1 1754 11 view .LVU520
 1960 01e6 2200     		movs	r2, r4
 1961 01e8 2932     		adds	r2, r2, #41
 1962 01ea FF32     		adds	r2, r2, #255
 1963 01ec 1269     		ldr	r2, [r2, #16]
 1964 01ee 002A     		cmp	r2, #0
 1965 01f0 00D0     		beq	.LCB1679
 1966 01f2 61E7     		b	.L77	@long jump
 1967              	.LCB1679:
1754:Drivers/STM32F0xx_HAL_Driver/Src/stm32f0xx_hal_pcd.c ****           PCD_SET_EP_RX_STATUS(hpcd->Instance, PCD_ENDP0, USB_EP_RX_VALID);
ARM GAS  /tmp/ccrcqutw.s 			page 70


 1968              		.loc 1 1754 11 discriminator 1 view .LVU521
 1969 01f4 1A88     		ldrh	r2, [r3]
 1970 01f6 5E49     		ldr	r1, .L96+20
 1971 01f8 1140     		ands	r1, r2
1754:Drivers/STM32F0xx_HAL_Driver/Src/stm32f0xx_hal_pcd.c ****           PCD_SET_EP_RX_STATUS(hpcd->Instance, PCD_ENDP0, USB_EP_RX_VALID);
 1972              		.loc 1 1754 11 discriminator 1 view .LVU522
 1973 01fa 594A     		ldr	r2, .L96+4
 1974 01fc 0A43     		orrs	r2, r1
 1975 01fe 1A80     		strh	r2, [r3]
 1976              	.L78:
1754:Drivers/STM32F0xx_HAL_Driver/Src/stm32f0xx_hal_pcd.c ****           PCD_SET_EP_RX_STATUS(hpcd->Instance, PCD_ENDP0, USB_EP_RX_VALID);
 1977              		.loc 1 1754 11 discriminator 13 view .LVU523
 1978              	.LBE6:
1754:Drivers/STM32F0xx_HAL_Driver/Src/stm32f0xx_hal_pcd.c ****           PCD_SET_EP_RX_STATUS(hpcd->Instance, PCD_ENDP0, USB_EP_RX_VALID);
 1979              		.loc 1 1754 11 discriminator 13 view .LVU524
 1980              	.LBE9:
1754:Drivers/STM32F0xx_HAL_Driver/Src/stm32f0xx_hal_pcd.c ****           PCD_SET_EP_RX_STATUS(hpcd->Instance, PCD_ENDP0, USB_EP_RX_VALID);
 1981              		.loc 1 1754 11 discriminator 13 view .LVU525
1755:Drivers/STM32F0xx_HAL_Driver/Src/stm32f0xx_hal_pcd.c ****         }
 1982              		.loc 1 1755 11 discriminator 13 view .LVU526
 1983              	.LBB10:
1755:Drivers/STM32F0xx_HAL_Driver/Src/stm32f0xx_hal_pcd.c ****         }
 1984              		.loc 1 1755 11 discriminator 13 view .LVU527
1755:Drivers/STM32F0xx_HAL_Driver/Src/stm32f0xx_hal_pcd.c ****         }
 1985              		.loc 1 1755 11 discriminator 13 view .LVU528
 1986 0200 2168     		ldr	r1, [r4]
 1987 0202 0A88     		ldrh	r2, [r1]
 1988 0204 5B4B     		ldr	r3, .L96+24
 1989              	.LVL171:
1755:Drivers/STM32F0xx_HAL_Driver/Src/stm32f0xx_hal_pcd.c ****         }
 1990              		.loc 1 1755 11 is_stmt 0 discriminator 13 view .LVU529
 1991 0206 1A40     		ands	r2, r3
 1992              	.LVL172:
1755:Drivers/STM32F0xx_HAL_Driver/Src/stm32f0xx_hal_pcd.c ****         }
 1993              		.loc 1 1755 11 is_stmt 1 discriminator 13 view .LVU530
1755:Drivers/STM32F0xx_HAL_Driver/Src/stm32f0xx_hal_pcd.c ****         }
 1994              		.loc 1 1755 11 discriminator 13 view .LVU531
1755:Drivers/STM32F0xx_HAL_Driver/Src/stm32f0xx_hal_pcd.c ****         }
 1995              		.loc 1 1755 11 discriminator 13 view .LVU532
1755:Drivers/STM32F0xx_HAL_Driver/Src/stm32f0xx_hal_pcd.c ****         }
 1996              		.loc 1 1755 11 discriminator 13 view .LVU533
 1997 0208 C023     		movs	r3, #192
 1998 020a 9B01     		lsls	r3, r3, #6
 1999 020c 5A40     		eors	r2, r3
 2000              	.LVL173:
1755:Drivers/STM32F0xx_HAL_Driver/Src/stm32f0xx_hal_pcd.c ****         }
 2001              		.loc 1 1755 11 discriminator 13 view .LVU534
 2002 020e 5A4B     		ldr	r3, .L96+28
 2003 0210 1343     		orrs	r3, r2
 2004 0212 9BB2     		uxth	r3, r3
 2005 0214 0B80     		strh	r3, [r1]
 2006 0216 99E7     		b	.L71
 2007              	.LVL174:
 2008              	.L91:
1755:Drivers/STM32F0xx_HAL_Driver/Src/stm32f0xx_hal_pcd.c ****         }
 2009              		.loc 1 1755 11 is_stmt 0 discriminator 13 view .LVU535
 2010              	.LBE10:
ARM GAS  /tmp/ccrcqutw.s 			page 71


1768:Drivers/STM32F0xx_HAL_Driver/Src/stm32f0xx_hal_pcd.c ****         ep = &hpcd->OUT_ep[epindex];
 2011              		.loc 1 1768 9 is_stmt 1 view .LVU536
 2012              	.LBB11:
1768:Drivers/STM32F0xx_HAL_Driver/Src/stm32f0xx_hal_pcd.c ****         ep = &hpcd->OUT_ep[epindex];
 2013              		.loc 1 1768 9 view .LVU537
1768:Drivers/STM32F0xx_HAL_Driver/Src/stm32f0xx_hal_pcd.c ****         ep = &hpcd->OUT_ep[epindex];
 2014              		.loc 1 1768 9 view .LVU538
 2015 0218 0388     		ldrh	r3, [r0]
 2016 021a 544A     		ldr	r2, .L96+16
 2017 021c 1340     		ands	r3, r2
 2018              	.LVL175:
1768:Drivers/STM32F0xx_HAL_Driver/Src/stm32f0xx_hal_pcd.c ****         ep = &hpcd->OUT_ep[epindex];
 2019              		.loc 1 1768 9 view .LVU539
 2020 021e 8022     		movs	r2, #128
 2021 0220 1343     		orrs	r3, r2
 2022              	.LVL176:
1768:Drivers/STM32F0xx_HAL_Driver/Src/stm32f0xx_hal_pcd.c ****         ep = &hpcd->OUT_ep[epindex];
 2023              		.loc 1 1768 9 is_stmt 0 view .LVU540
 2024 0222 9BB2     		uxth	r3, r3
 2025 0224 0380     		strh	r3, [r0]
 2026              	.LBE11:
1768:Drivers/STM32F0xx_HAL_Driver/Src/stm32f0xx_hal_pcd.c ****         ep = &hpcd->OUT_ep[epindex];
 2027              		.loc 1 1768 9 is_stmt 1 view .LVU541
1769:Drivers/STM32F0xx_HAL_Driver/Src/stm32f0xx_hal_pcd.c **** 
 2028              		.loc 1 1769 9 view .LVU542
 2029              	.LVL177:
1772:Drivers/STM32F0xx_HAL_Driver/Src/stm32f0xx_hal_pcd.c ****         {
 2030              		.loc 1 1772 9 view .LVU543
1772:Drivers/STM32F0xx_HAL_Driver/Src/stm32f0xx_hal_pcd.c ****         {
 2031              		.loc 1 1772 15 is_stmt 0 view .LVU544
 2032 0226 6B01     		lsls	r3, r5, #5
 2033 0228 E318     		adds	r3, r4, r3
 2034 022a 3533     		adds	r3, r3, #53
 2035 022c FF33     		adds	r3, r3, #255
 2036 022e 1B78     		ldrb	r3, [r3]
1772:Drivers/STM32F0xx_HAL_Driver/Src/stm32f0xx_hal_pcd.c ****         {
 2037              		.loc 1 1772 12 view .LVU545
 2038 0230 002B     		cmp	r3, #0
 2039 0232 20D1     		bne	.L83
1774:Drivers/STM32F0xx_HAL_Driver/Src/stm32f0xx_hal_pcd.c ****           if (count != 0U)
 2040              		.loc 1 1774 11 is_stmt 1 view .LVU546
1774:Drivers/STM32F0xx_HAL_Driver/Src/stm32f0xx_hal_pcd.c ****           if (count != 0U)
 2041              		.loc 1 1774 29 is_stmt 0 view .LVU547
 2042 0234 2068     		ldr	r0, [r4]
 2043 0236 5033     		adds	r3, r3, #80
 2044 0238 C35A     		ldrh	r3, [r0, r3]
 2045 023a 6A01     		lsls	r2, r5, #5
 2046 023c A218     		adds	r2, r4, r2
 2047 023e 2932     		adds	r2, r2, #41
 2048 0240 FF32     		adds	r2, r2, #255
 2049 0242 1278     		ldrb	r2, [r2]
 2050 0244 D200     		lsls	r2, r2, #3
 2051 0246 9B18     		adds	r3, r3, r2
 2052 0248 1B18     		adds	r3, r3, r0
 2053 024a 474A     		ldr	r2, .L96+12
 2054 024c 9446     		mov	ip, r2
 2055 024e 6344     		add	r3, r3, ip
ARM GAS  /tmp/ccrcqutw.s 			page 72


 2056 0250 1B88     		ldrh	r3, [r3]
1774:Drivers/STM32F0xx_HAL_Driver/Src/stm32f0xx_hal_pcd.c ****           if (count != 0U)
 2057              		.loc 1 1774 17 view .LVU548
 2058 0252 9B05     		lsls	r3, r3, #22
 2059 0254 9A0D     		lsrs	r2, r3, #22
 2060 0256 9046     		mov	r8, r2
 2061              	.LVL178:
1775:Drivers/STM32F0xx_HAL_Driver/Src/stm32f0xx_hal_pcd.c ****           {
 2062              		.loc 1 1775 11 is_stmt 1 view .LVU549
1775:Drivers/STM32F0xx_HAL_Driver/Src/stm32f0xx_hal_pcd.c ****           {
 2063              		.loc 1 1775 14 is_stmt 0 view .LVU550
 2064 0258 002B     		cmp	r3, #0
 2065 025a 35D0     		beq	.L84
1777:Drivers/STM32F0xx_HAL_Driver/Src/stm32f0xx_hal_pcd.c ****           }
 2066              		.loc 1 1777 13 is_stmt 1 view .LVU551
 2067 025c 6B01     		lsls	r3, r5, #5
 2068 025e E318     		adds	r3, r4, r3
 2069 0260 1A00     		movs	r2, r3
 2070 0262 2F32     		adds	r2, r2, #47
 2071 0264 FF32     		adds	r2, r2, #255
 2072 0266 1288     		ldrh	r2, [r2]
 2073 0268 3D33     		adds	r3, r3, #61
 2074 026a FF33     		adds	r3, r3, #255
 2075 026c 1968     		ldr	r1, [r3]
 2076              	.LVL179:
1777:Drivers/STM32F0xx_HAL_Driver/Src/stm32f0xx_hal_pcd.c ****           }
 2077              		.loc 1 1777 13 is_stmt 0 view .LVU552
 2078 026e 4346     		mov	r3, r8
 2079 0270 FFF7FEFF 		bl	USB_ReadPMA
 2080              	.LVL180:
 2081 0274 28E0     		b	.L84
 2082              	.LVL181:
 2083              	.L83:
1782:Drivers/STM32F0xx_HAL_Driver/Src/stm32f0xx_hal_pcd.c ****           {
 2084              		.loc 1 1782 11 is_stmt 1 view .LVU553
1782:Drivers/STM32F0xx_HAL_Driver/Src/stm32f0xx_hal_pcd.c ****           {
 2085              		.loc 1 1782 16 is_stmt 0 view .LVU554
 2086 0276 2068     		ldr	r0, [r4]
 2087 0278 6B01     		lsls	r3, r5, #5
 2088 027a E318     		adds	r3, r4, r3
 2089 027c 2933     		adds	r3, r3, #41
 2090 027e FF33     		adds	r3, r3, #255
 2091 0280 1B78     		ldrb	r3, [r3]
 2092 0282 9A00     		lsls	r2, r3, #2
 2093 0284 8218     		adds	r2, r0, r2
 2094 0286 1288     		ldrh	r2, [r2]
1782:Drivers/STM32F0xx_HAL_Driver/Src/stm32f0xx_hal_pcd.c ****           {
 2095              		.loc 1 1782 14 view .LVU555
 2096 0288 5204     		lsls	r2, r2, #17
 2097 028a 4CD5     		bpl	.L85
1785:Drivers/STM32F0xx_HAL_Driver/Src/stm32f0xx_hal_pcd.c ****             if (count != 0U)
 2098              		.loc 1 1785 13 is_stmt 1 view .LVU556
1785:Drivers/STM32F0xx_HAL_Driver/Src/stm32f0xx_hal_pcd.c ****             if (count != 0U)
 2099              		.loc 1 1785 31 is_stmt 0 view .LVU557
 2100 028c 5022     		movs	r2, #80
 2101 028e 825A     		ldrh	r2, [r0, r2]
 2102 0290 DB00     		lsls	r3, r3, #3
ARM GAS  /tmp/ccrcqutw.s 			page 73


 2103 0292 D318     		adds	r3, r2, r3
 2104 0294 1B18     		adds	r3, r3, r0
 2105 0296 334A     		ldr	r2, .L96+8
 2106 0298 9446     		mov	ip, r2
 2107 029a 6344     		add	r3, r3, ip
 2108 029c 1B88     		ldrh	r3, [r3]
1785:Drivers/STM32F0xx_HAL_Driver/Src/stm32f0xx_hal_pcd.c ****             if (count != 0U)
 2109              		.loc 1 1785 19 view .LVU558
 2110 029e 9B05     		lsls	r3, r3, #22
 2111 02a0 9A0D     		lsrs	r2, r3, #22
 2112 02a2 9046     		mov	r8, r2
 2113              	.LVL182:
1786:Drivers/STM32F0xx_HAL_Driver/Src/stm32f0xx_hal_pcd.c ****             {
 2114              		.loc 1 1786 13 is_stmt 1 view .LVU559
1786:Drivers/STM32F0xx_HAL_Driver/Src/stm32f0xx_hal_pcd.c ****             {
 2115              		.loc 1 1786 16 is_stmt 0 view .LVU560
 2116 02a4 002B     		cmp	r3, #0
 2117 02a6 31D1     		bne	.L95
 2118              	.LVL183:
 2119              	.L86:
1801:Drivers/STM32F0xx_HAL_Driver/Src/stm32f0xx_hal_pcd.c ****         }
 2120              		.loc 1 1801 11 is_stmt 1 discriminator 1 view .LVU561
1801:Drivers/STM32F0xx_HAL_Driver/Src/stm32f0xx_hal_pcd.c ****         }
 2121              		.loc 1 1801 11 discriminator 1 view .LVU562
1801:Drivers/STM32F0xx_HAL_Driver/Src/stm32f0xx_hal_pcd.c ****         }
 2122              		.loc 1 1801 11 discriminator 1 view .LVU563
 2123              	.LBB12:
1801:Drivers/STM32F0xx_HAL_Driver/Src/stm32f0xx_hal_pcd.c ****         }
 2124              		.loc 1 1801 11 discriminator 1 view .LVU564
1801:Drivers/STM32F0xx_HAL_Driver/Src/stm32f0xx_hal_pcd.c ****         }
 2125              		.loc 1 1801 11 discriminator 1 view .LVU565
 2126 02a8 6B01     		lsls	r3, r5, #5
 2127 02aa E318     		adds	r3, r4, r3
 2128 02ac 2933     		adds	r3, r3, #41
 2129 02ae FF33     		adds	r3, r3, #255
 2130 02b0 1A78     		ldrb	r2, [r3]
 2131 02b2 9200     		lsls	r2, r2, #2
 2132 02b4 2368     		ldr	r3, [r4]
 2133 02b6 9C46     		mov	ip, r3
 2134 02b8 6244     		add	r2, r2, ip
 2135 02ba 1388     		ldrh	r3, [r2]
 2136 02bc 2F49     		ldr	r1, .L96+32
 2137 02be 1940     		ands	r1, r3
 2138              	.LVL184:
1801:Drivers/STM32F0xx_HAL_Driver/Src/stm32f0xx_hal_pcd.c ****         }
 2139              		.loc 1 1801 11 discriminator 1 view .LVU566
 2140 02c0 2F4B     		ldr	r3, .L96+36
 2141 02c2 0B43     		orrs	r3, r1
 2142 02c4 9BB2     		uxth	r3, r3
 2143 02c6 1380     		strh	r3, [r2]
 2144              	.LBE12:
1801:Drivers/STM32F0xx_HAL_Driver/Src/stm32f0xx_hal_pcd.c ****         }
 2145              		.loc 1 1801 11 discriminator 1 view .LVU567
 2146              	.LVL185:
 2147              	.L84:
1801:Drivers/STM32F0xx_HAL_Driver/Src/stm32f0xx_hal_pcd.c ****         }
 2148              		.loc 1 1801 11 discriminator 6 view .LVU568
ARM GAS  /tmp/ccrcqutw.s 			page 74


1801:Drivers/STM32F0xx_HAL_Driver/Src/stm32f0xx_hal_pcd.c ****         }
 2149              		.loc 1 1801 11 discriminator 6 view .LVU569
1804:Drivers/STM32F0xx_HAL_Driver/Src/stm32f0xx_hal_pcd.c ****         ep->xfer_buff += count;
 2150              		.loc 1 1804 9 discriminator 6 view .LVU570
1804:Drivers/STM32F0xx_HAL_Driver/Src/stm32f0xx_hal_pcd.c ****         ep->xfer_buff += count;
 2151              		.loc 1 1804 24 is_stmt 0 discriminator 6 view .LVU571
 2152 02c8 4046     		mov	r0, r8
 2153 02ca 2B00     		movs	r3, r5
 2154 02cc 0A33     		adds	r3, r3, #10
 2155 02ce 5B01     		lsls	r3, r3, #5
 2156 02d0 E118     		adds	r1, r4, r3
 2157 02d2 4A68     		ldr	r2, [r1, #4]
 2158 02d4 4244     		add	r2, r2, r8
 2159 02d6 4A60     		str	r2, [r1, #4]
1805:Drivers/STM32F0xx_HAL_Driver/Src/stm32f0xx_hal_pcd.c **** 
 2160              		.loc 1 1805 9 is_stmt 1 discriminator 6 view .LVU572
1805:Drivers/STM32F0xx_HAL_Driver/Src/stm32f0xx_hal_pcd.c **** 
 2161              		.loc 1 1805 23 is_stmt 0 discriminator 6 view .LVU573
 2162 02d8 6901     		lsls	r1, r5, #5
 2163 02da 6118     		adds	r1, r4, r1
 2164 02dc 3D31     		adds	r1, r1, #61
 2165 02de FF31     		adds	r1, r1, #255
 2166 02e0 0A68     		ldr	r2, [r1]
 2167 02e2 4244     		add	r2, r2, r8
 2168 02e4 0A60     		str	r2, [r1]
1807:Drivers/STM32F0xx_HAL_Driver/Src/stm32f0xx_hal_pcd.c ****         {
 2169              		.loc 1 1807 9 is_stmt 1 discriminator 6 view .LVU574
1807:Drivers/STM32F0xx_HAL_Driver/Src/stm32f0xx_hal_pcd.c ****         {
 2170              		.loc 1 1807 16 is_stmt 0 discriminator 6 view .LVU575
 2171 02e6 1B59     		ldr	r3, [r3, r4]
1807:Drivers/STM32F0xx_HAL_Driver/Src/stm32f0xx_hal_pcd.c ****         {
 2172              		.loc 1 1807 12 discriminator 6 view .LVU576
 2173 02e8 002B     		cmp	r3, #0
 2174 02ea 06D0     		beq	.L87
1807:Drivers/STM32F0xx_HAL_Driver/Src/stm32f0xx_hal_pcd.c ****         {
 2175              		.loc 1 1807 48 discriminator 1 view .LVU577
 2176 02ec 6901     		lsls	r1, r5, #5
 2177 02ee 6118     		adds	r1, r4, r1
 2178 02f0 3931     		adds	r1, r1, #57
 2179 02f2 FF31     		adds	r1, r1, #255
 2180 02f4 0968     		ldr	r1, [r1]
1807:Drivers/STM32F0xx_HAL_Driver/Src/stm32f0xx_hal_pcd.c ****         {
 2181              		.loc 1 1807 34 discriminator 1 view .LVU578
 2182 02f6 8842     		cmp	r0, r1
 2183 02f8 44D2     		bcs	.L88
 2184              	.L87:
1813:Drivers/STM32F0xx_HAL_Driver/Src/stm32f0xx_hal_pcd.c **** #endif /* USE_HAL_PCD_REGISTER_CALLBACKS */
 2185              		.loc 1 1813 11 is_stmt 1 view .LVU579
 2186 02fa 6B01     		lsls	r3, r5, #5
 2187 02fc E318     		adds	r3, r4, r3
 2188 02fe 2933     		adds	r3, r3, #41
 2189 0300 FF33     		adds	r3, r3, #255
 2190 0302 1978     		ldrb	r1, [r3]
 2191 0304 2000     		movs	r0, r4
 2192 0306 FFF7FEFF 		bl	HAL_PCD_DataOutStageCallback
 2193              	.LVL186:
 2194 030a F0E6     		b	.L82
ARM GAS  /tmp/ccrcqutw.s 			page 75


 2195              	.LVL187:
 2196              	.L95:
1788:Drivers/STM32F0xx_HAL_Driver/Src/stm32f0xx_hal_pcd.c ****             }
 2197              		.loc 1 1788 15 view .LVU580
 2198 030c 6B01     		lsls	r3, r5, #5
 2199 030e E318     		adds	r3, r4, r3
 2200 0310 1A00     		movs	r2, r3
 2201 0312 3132     		adds	r2, r2, #49
 2202 0314 FF32     		adds	r2, r2, #255
 2203 0316 1288     		ldrh	r2, [r2]
 2204 0318 3D33     		adds	r3, r3, #61
 2205 031a FF33     		adds	r3, r3, #255
 2206 031c 1968     		ldr	r1, [r3]
 2207              	.LVL188:
1788:Drivers/STM32F0xx_HAL_Driver/Src/stm32f0xx_hal_pcd.c ****             }
 2208              		.loc 1 1788 15 is_stmt 0 view .LVU581
 2209 031e 4346     		mov	r3, r8
 2210 0320 FFF7FEFF 		bl	USB_ReadPMA
 2211              	.LVL189:
 2212 0324 C0E7     		b	.L86
 2213              	.LVL190:
 2214              	.L85:
1794:Drivers/STM32F0xx_HAL_Driver/Src/stm32f0xx_hal_pcd.c ****             if (count != 0U)
 2215              		.loc 1 1794 13 is_stmt 1 view .LVU582
1794:Drivers/STM32F0xx_HAL_Driver/Src/stm32f0xx_hal_pcd.c ****             if (count != 0U)
 2216              		.loc 1 1794 31 is_stmt 0 view .LVU583
 2217 0326 5022     		movs	r2, #80
 2218 0328 825A     		ldrh	r2, [r0, r2]
 2219 032a DB00     		lsls	r3, r3, #3
 2220 032c D318     		adds	r3, r2, r3
 2221 032e 1B18     		adds	r3, r3, r0
 2222 0330 0D4A     		ldr	r2, .L96+12
 2223 0332 9446     		mov	ip, r2
 2224 0334 6344     		add	r3, r3, ip
 2225 0336 1B88     		ldrh	r3, [r3]
1794:Drivers/STM32F0xx_HAL_Driver/Src/stm32f0xx_hal_pcd.c ****             if (count != 0U)
 2226              		.loc 1 1794 19 view .LVU584
 2227 0338 9B05     		lsls	r3, r3, #22
 2228 033a 9A0D     		lsrs	r2, r3, #22
 2229 033c 9046     		mov	r8, r2
 2230              	.LVL191:
1795:Drivers/STM32F0xx_HAL_Driver/Src/stm32f0xx_hal_pcd.c ****             {
 2231              		.loc 1 1795 13 is_stmt 1 view .LVU585
1795:Drivers/STM32F0xx_HAL_Driver/Src/stm32f0xx_hal_pcd.c ****             {
 2232              		.loc 1 1795 16 is_stmt 0 view .LVU586
 2233 033e 002B     		cmp	r3, #0
 2234 0340 B2D0     		beq	.L86
1797:Drivers/STM32F0xx_HAL_Driver/Src/stm32f0xx_hal_pcd.c ****             }
 2235              		.loc 1 1797 15 is_stmt 1 view .LVU587
 2236 0342 6B01     		lsls	r3, r5, #5
 2237 0344 E318     		adds	r3, r4, r3
 2238 0346 1A00     		movs	r2, r3
 2239 0348 3332     		adds	r2, r2, #51
 2240 034a FF32     		adds	r2, r2, #255
 2241 034c 1288     		ldrh	r2, [r2]
 2242 034e 3D33     		adds	r3, r3, #61
 2243 0350 FF33     		adds	r3, r3, #255
ARM GAS  /tmp/ccrcqutw.s 			page 76


 2244 0352 1968     		ldr	r1, [r3]
 2245              	.LVL192:
1797:Drivers/STM32F0xx_HAL_Driver/Src/stm32f0xx_hal_pcd.c ****             }
 2246              		.loc 1 1797 15 is_stmt 0 view .LVU588
 2247 0354 4346     		mov	r3, r8
 2248 0356 FFF7FEFF 		bl	USB_ReadPMA
 2249              	.LVL193:
 2250 035a A5E7     		b	.L86
 2251              	.L97:
 2252              		.align	2
 2253              	.L96:
 2254 035c 0F8FFFFF 		.word	-28913
 2255 0360 0080FFFF 		.word	-32768
 2256 0364 02040000 		.word	1026
 2257 0368 06040000 		.word	1030
 2258 036c 8F0F0000 		.word	3983
 2259 0370 FF83FFFF 		.word	-31745
 2260 0374 8FBFFFFF 		.word	-16497
 2261 0378 8080FFFF 		.word	-32640
 2262 037c 8F8FFFFF 		.word	-28785
 2263 0380 C080FFFF 		.word	-32576
 2264              	.L88:
1818:Drivers/STM32F0xx_HAL_Driver/Src/stm32f0xx_hal_pcd.c ****         }
 2265              		.loc 1 1818 11 is_stmt 1 view .LVU589
1818:Drivers/STM32F0xx_HAL_Driver/Src/stm32f0xx_hal_pcd.c ****         }
 2266              		.loc 1 1818 17 is_stmt 0 view .LVU590
 2267 0384 6901     		lsls	r1, r5, #5
 2268 0386 6118     		adds	r1, r4, r1
 2269 0388 2931     		adds	r1, r1, #41
 2270 038a FF31     		adds	r1, r1, #255
 2271 038c 0978     		ldrb	r1, [r1]
 2272 038e 2000     		movs	r0, r4
 2273 0390 FFF7FEFF 		bl	HAL_PCD_EP_Receive
 2274              	.LVL194:
 2275 0394 ABE6     		b	.L82
 2276              	.LVL195:
 2277              	.L89:
1842:Drivers/STM32F0xx_HAL_Driver/Src/stm32f0xx_hal_pcd.c **** #endif /* USE_HAL_PCD_REGISTER_CALLBACKS */
1843:Drivers/STM32F0xx_HAL_Driver/Src/stm32f0xx_hal_pcd.c ****         }
1844:Drivers/STM32F0xx_HAL_Driver/Src/stm32f0xx_hal_pcd.c ****         else
1845:Drivers/STM32F0xx_HAL_Driver/Src/stm32f0xx_hal_pcd.c ****         {
1846:Drivers/STM32F0xx_HAL_Driver/Src/stm32f0xx_hal_pcd.c ****           (void)HAL_PCD_EP_Transmit(hpcd, ep->num, ep->xfer_buff, ep->xfer_len);
 2278              		.loc 1 1846 11 is_stmt 1 view .LVU591
 2279              		.loc 1 1846 17 is_stmt 0 view .LVU592
 2280 0396 6D01     		lsls	r5, r5, #5
 2281              	.LVL196:
 2282              		.loc 1 1846 17 view .LVU593
 2283 0398 6519     		adds	r5, r4, r5
 2284 039a 2835     		adds	r5, r5, #40
 2285 039c 2978     		ldrb	r1, [r5]
 2286 039e 2000     		movs	r0, r4
 2287 03a0 FFF7FEFF 		bl	HAL_PCD_EP_Transmit
 2288              	.LVL197:
 2289 03a4 D2E6     		b	.L71
 2290              	.LVL198:
 2291              	.L92:
1847:Drivers/STM32F0xx_HAL_Driver/Src/stm32f0xx_hal_pcd.c ****         }
ARM GAS  /tmp/ccrcqutw.s 			page 77


1848:Drivers/STM32F0xx_HAL_Driver/Src/stm32f0xx_hal_pcd.c ****       }
1849:Drivers/STM32F0xx_HAL_Driver/Src/stm32f0xx_hal_pcd.c ****     }
1850:Drivers/STM32F0xx_HAL_Driver/Src/stm32f0xx_hal_pcd.c ****   }
1851:Drivers/STM32F0xx_HAL_Driver/Src/stm32f0xx_hal_pcd.c ****   return HAL_OK;
 2292              		.loc 1 1851 3 is_stmt 1 view .LVU594
1852:Drivers/STM32F0xx_HAL_Driver/Src/stm32f0xx_hal_pcd.c **** }
 2293              		.loc 1 1852 1 is_stmt 0 view .LVU595
 2294 03a6 0020     		movs	r0, #0
 2295              		@ sp needed
 2296              	.LVL199:
 2297              		.loc 1 1852 1 view .LVU596
 2298 03a8 04BC     		pop	{r2}
 2299 03aa 9046     		mov	r8, r2
 2300 03ac F0BD     		pop	{r4, r5, r6, r7, pc}
 2301              		.cfi_endproc
 2302              	.LFE72:
 2304 03ae C046     		.section	.text.HAL_PCD_IRQHandler,"ax",%progbits
 2305              		.align	1
 2306              		.global	HAL_PCD_IRQHandler
 2307              		.syntax unified
 2308              		.code	16
 2309              		.thumb_func
 2310              		.fpu softvfp
 2312              	HAL_PCD_IRQHandler:
 2313              	.LVL200:
 2314              	.LFB46:
 995:Drivers/STM32F0xx_HAL_Driver/Src/stm32f0xx_hal_pcd.c ****   if (__HAL_PCD_GET_FLAG(hpcd, USB_ISTR_CTR))
 2315              		.loc 1 995 1 is_stmt 1 view -0
 2316              		.cfi_startproc
 2317              		@ args = 0, pretend = 0, frame = 0
 2318              		@ frame_needed = 0, uses_anonymous_args = 0
 995:Drivers/STM32F0xx_HAL_Driver/Src/stm32f0xx_hal_pcd.c ****   if (__HAL_PCD_GET_FLAG(hpcd, USB_ISTR_CTR))
 2319              		.loc 1 995 1 is_stmt 0 view .LVU598
 2320 0000 70B5     		push	{r4, r5, r6, lr}
 2321              	.LCFI14:
 2322              		.cfi_def_cfa_offset 16
 2323              		.cfi_offset 4, -16
 2324              		.cfi_offset 5, -12
 2325              		.cfi_offset 6, -8
 2326              		.cfi_offset 14, -4
 2327 0002 0400     		movs	r4, r0
 996:Drivers/STM32F0xx_HAL_Driver/Src/stm32f0xx_hal_pcd.c ****   {
 2328              		.loc 1 996 3 is_stmt 1 view .LVU599
 996:Drivers/STM32F0xx_HAL_Driver/Src/stm32f0xx_hal_pcd.c ****   {
 2329              		.loc 1 996 7 is_stmt 0 view .LVU600
 2330 0004 0068     		ldr	r0, [r0]
 2331              	.LVL201:
 996:Drivers/STM32F0xx_HAL_Driver/Src/stm32f0xx_hal_pcd.c ****   {
 2332              		.loc 1 996 7 view .LVU601
 2333 0006 FFF7FEFF 		bl	USB_ReadInterrupts
 2334              	.LVL202:
 996:Drivers/STM32F0xx_HAL_Driver/Src/stm32f0xx_hal_pcd.c ****   {
 2335              		.loc 1 996 6 view .LVU602
 2336 000a 0304     		lsls	r3, r0, #16
 2337 000c 00D5     		bpl	.LCB2083
 2338 000e 7EE0     		b	.L110	@long jump
 2339              	.LCB2083:
ARM GAS  /tmp/ccrcqutw.s 			page 78


 2340              	.L99:
1003:Drivers/STM32F0xx_HAL_Driver/Src/stm32f0xx_hal_pcd.c ****   {
 2341              		.loc 1 1003 3 is_stmt 1 view .LVU603
1003:Drivers/STM32F0xx_HAL_Driver/Src/stm32f0xx_hal_pcd.c ****   {
 2342              		.loc 1 1003 7 is_stmt 0 view .LVU604
 2343 0010 2068     		ldr	r0, [r4]
 2344 0012 FFF7FEFF 		bl	USB_ReadInterrupts
 2345              	.LVL203:
1003:Drivers/STM32F0xx_HAL_Driver/Src/stm32f0xx_hal_pcd.c ****   {
 2346              		.loc 1 1003 6 view .LVU605
 2347 0016 4305     		lsls	r3, r0, #21
 2348 0018 00D5     		bpl	.LCB2093
 2349 001a 7CE0     		b	.L111	@long jump
 2350              	.LCB2093:
 2351              	.L100:
1016:Drivers/STM32F0xx_HAL_Driver/Src/stm32f0xx_hal_pcd.c ****   {
 2352              		.loc 1 1016 3 is_stmt 1 view .LVU606
1016:Drivers/STM32F0xx_HAL_Driver/Src/stm32f0xx_hal_pcd.c ****   {
 2353              		.loc 1 1016 7 is_stmt 0 view .LVU607
 2354 001c 2068     		ldr	r0, [r4]
 2355 001e FFF7FEFF 		bl	USB_ReadInterrupts
 2356              	.LVL204:
1016:Drivers/STM32F0xx_HAL_Driver/Src/stm32f0xx_hal_pcd.c ****   {
 2357              		.loc 1 1016 6 view .LVU608
 2358 0022 4304     		lsls	r3, r0, #17
 2359 0024 05D5     		bpl	.L101
1018:Drivers/STM32F0xx_HAL_Driver/Src/stm32f0xx_hal_pcd.c ****   }
 2360              		.loc 1 1018 5 is_stmt 1 view .LVU609
 2361 0026 2168     		ldr	r1, [r4]
 2362 0028 4422     		movs	r2, #68
 2363 002a 8B5A     		ldrh	r3, [r1, r2]
 2364 002c 5B48     		ldr	r0, .L115
 2365 002e 0340     		ands	r3, r0
 2366 0030 8B52     		strh	r3, [r1, r2]
 2367              	.L101:
1021:Drivers/STM32F0xx_HAL_Driver/Src/stm32f0xx_hal_pcd.c ****   {
 2368              		.loc 1 1021 3 view .LVU610
1021:Drivers/STM32F0xx_HAL_Driver/Src/stm32f0xx_hal_pcd.c ****   {
 2369              		.loc 1 1021 7 is_stmt 0 view .LVU611
 2370 0032 2068     		ldr	r0, [r4]
 2371 0034 FFF7FEFF 		bl	USB_ReadInterrupts
 2372              	.LVL205:
1021:Drivers/STM32F0xx_HAL_Driver/Src/stm32f0xx_hal_pcd.c ****   {
 2373              		.loc 1 1021 6 view .LVU612
 2374 0038 8304     		lsls	r3, r0, #18
 2375 003a 05D5     		bpl	.L102
1023:Drivers/STM32F0xx_HAL_Driver/Src/stm32f0xx_hal_pcd.c ****   }
 2376              		.loc 1 1023 5 is_stmt 1 view .LVU613
 2377 003c 2168     		ldr	r1, [r4]
 2378 003e 4422     		movs	r2, #68
 2379 0040 8B5A     		ldrh	r3, [r1, r2]
 2380 0042 5748     		ldr	r0, .L115+4
 2381 0044 0340     		ands	r3, r0
 2382 0046 8B52     		strh	r3, [r1, r2]
 2383              	.L102:
1026:Drivers/STM32F0xx_HAL_Driver/Src/stm32f0xx_hal_pcd.c ****   {
 2384              		.loc 1 1026 3 view .LVU614
ARM GAS  /tmp/ccrcqutw.s 			page 79


1026:Drivers/STM32F0xx_HAL_Driver/Src/stm32f0xx_hal_pcd.c ****   {
 2385              		.loc 1 1026 7 is_stmt 0 view .LVU615
 2386 0048 2068     		ldr	r0, [r4]
 2387 004a FFF7FEFF 		bl	USB_ReadInterrupts
 2388              	.LVL206:
1026:Drivers/STM32F0xx_HAL_Driver/Src/stm32f0xx_hal_pcd.c ****   {
 2389              		.loc 1 1026 6 view .LVU616
 2390 004e C304     		lsls	r3, r0, #19
 2391 0050 18D5     		bpl	.L103
1028:Drivers/STM32F0xx_HAL_Driver/Src/stm32f0xx_hal_pcd.c ****     hpcd->Instance->CNTR &= (uint16_t) ~(USB_CNTR_FSUSP);
 2392              		.loc 1 1028 5 is_stmt 1 view .LVU617
1028:Drivers/STM32F0xx_HAL_Driver/Src/stm32f0xx_hal_pcd.c ****     hpcd->Instance->CNTR &= (uint16_t) ~(USB_CNTR_FSUSP);
 2393              		.loc 1 1028 9 is_stmt 0 view .LVU618
 2394 0052 2168     		ldr	r1, [r4]
1028:Drivers/STM32F0xx_HAL_Driver/Src/stm32f0xx_hal_pcd.c ****     hpcd->Instance->CNTR &= (uint16_t) ~(USB_CNTR_FSUSP);
 2395              		.loc 1 1028 26 view .LVU619
 2396 0054 4023     		movs	r3, #64
 2397 0056 CA5A     		ldrh	r2, [r1, r3]
 2398 0058 0420     		movs	r0, #4
 2399 005a 8243     		bics	r2, r0
 2400 005c CA52     		strh	r2, [r1, r3]
1029:Drivers/STM32F0xx_HAL_Driver/Src/stm32f0xx_hal_pcd.c **** 
 2401              		.loc 1 1029 5 is_stmt 1 view .LVU620
1029:Drivers/STM32F0xx_HAL_Driver/Src/stm32f0xx_hal_pcd.c **** 
 2402              		.loc 1 1029 9 is_stmt 0 view .LVU621
 2403 005e 2168     		ldr	r1, [r4]
1029:Drivers/STM32F0xx_HAL_Driver/Src/stm32f0xx_hal_pcd.c **** 
 2404              		.loc 1 1029 26 view .LVU622
 2405 0060 CA5A     		ldrh	r2, [r1, r3]
 2406 0062 0430     		adds	r0, r0, #4
 2407 0064 8243     		bics	r2, r0
 2408 0066 CA52     		strh	r2, [r1, r3]
1031:Drivers/STM32F0xx_HAL_Driver/Src/stm32f0xx_hal_pcd.c ****     {
 2409              		.loc 1 1031 5 is_stmt 1 view .LVU623
1031:Drivers/STM32F0xx_HAL_Driver/Src/stm32f0xx_hal_pcd.c ****     {
 2410              		.loc 1 1031 13 is_stmt 0 view .LVU624
 2411 0068 9823     		movs	r3, #152
 2412 006a 9B00     		lsls	r3, r3, #2
 2413 006c E35C     		ldrb	r3, [r4, r3]
1031:Drivers/STM32F0xx_HAL_Driver/Src/stm32f0xx_hal_pcd.c ****     {
 2414              		.loc 1 1031 8 view .LVU625
 2415 006e 012B     		cmp	r3, #1
 2416 0070 5FD0     		beq	.L112
 2417              	.L104:
1044:Drivers/STM32F0xx_HAL_Driver/Src/stm32f0xx_hal_pcd.c **** #endif /* USE_HAL_PCD_REGISTER_CALLBACKS */
 2418              		.loc 1 1044 5 is_stmt 1 view .LVU626
 2419 0072 2000     		movs	r0, r4
 2420 0074 FFF7FEFF 		bl	HAL_PCD_ResumeCallback
 2421              	.LVL207:
1047:Drivers/STM32F0xx_HAL_Driver/Src/stm32f0xx_hal_pcd.c ****   }
 2422              		.loc 1 1047 5 view .LVU627
 2423 0078 2168     		ldr	r1, [r4]
 2424 007a 4422     		movs	r2, #68
 2425 007c 8B5A     		ldrh	r3, [r1, r2]
 2426 007e 4948     		ldr	r0, .L115+8
 2427 0080 0340     		ands	r3, r0
 2428 0082 8B52     		strh	r3, [r1, r2]
ARM GAS  /tmp/ccrcqutw.s 			page 80


 2429              	.L103:
1050:Drivers/STM32F0xx_HAL_Driver/Src/stm32f0xx_hal_pcd.c ****   {
 2430              		.loc 1 1050 3 view .LVU628
1050:Drivers/STM32F0xx_HAL_Driver/Src/stm32f0xx_hal_pcd.c ****   {
 2431              		.loc 1 1050 7 is_stmt 0 view .LVU629
 2432 0084 2068     		ldr	r0, [r4]
 2433 0086 FFF7FEFF 		bl	USB_ReadInterrupts
 2434              	.LVL208:
1050:Drivers/STM32F0xx_HAL_Driver/Src/stm32f0xx_hal_pcd.c ****   {
 2435              		.loc 1 1050 6 view .LVU630
 2436 008a 0305     		lsls	r3, r0, #20
 2437 008c 5AD4     		bmi	.L113
 2438              	.L105:
1071:Drivers/STM32F0xx_HAL_Driver/Src/stm32f0xx_hal_pcd.c ****   {
 2439              		.loc 1 1071 3 is_stmt 1 view .LVU631
1071:Drivers/STM32F0xx_HAL_Driver/Src/stm32f0xx_hal_pcd.c ****   {
 2440              		.loc 1 1071 7 is_stmt 0 view .LVU632
 2441 008e 2068     		ldr	r0, [r4]
 2442 0090 FFF7FEFF 		bl	USB_ReadInterrupts
 2443              	.LVL209:
1071:Drivers/STM32F0xx_HAL_Driver/Src/stm32f0xx_hal_pcd.c ****   {
 2444              		.loc 1 1071 6 view .LVU633
 2445 0094 0306     		lsls	r3, r0, #24
 2446 0096 29D5     		bpl	.L106
1073:Drivers/STM32F0xx_HAL_Driver/Src/stm32f0xx_hal_pcd.c ****     if (hpcd->LPM_State == LPM_L0)
 2447              		.loc 1 1073 5 is_stmt 1 view .LVU634
 2448 0098 2168     		ldr	r1, [r4]
 2449 009a 4422     		movs	r2, #68
 2450 009c 8B5A     		ldrh	r3, [r1, r2]
 2451 009e 8020     		movs	r0, #128
 2452 00a0 8343     		bics	r3, r0
 2453 00a2 8B52     		strh	r3, [r1, r2]
1074:Drivers/STM32F0xx_HAL_Driver/Src/stm32f0xx_hal_pcd.c ****     {
 2454              		.loc 1 1074 5 view .LVU635
1074:Drivers/STM32F0xx_HAL_Driver/Src/stm32f0xx_hal_pcd.c ****     {
 2455              		.loc 1 1074 13 is_stmt 0 view .LVU636
 2456 00a4 9823     		movs	r3, #152
 2457 00a6 9B00     		lsls	r3, r3, #2
 2458 00a8 E35C     		ldrb	r3, [r4, r3]
1074:Drivers/STM32F0xx_HAL_Driver/Src/stm32f0xx_hal_pcd.c ****     {
 2459              		.loc 1 1074 8 view .LVU637
 2460 00aa 002B     		cmp	r3, #0
 2461 00ac 00D0     		beq	.LCB2216
 2462 00ae 66E0     		b	.L107	@long jump
 2463              	.LCB2216:
1077:Drivers/STM32F0xx_HAL_Driver/Src/stm32f0xx_hal_pcd.c ****       hpcd->Instance->CNTR |= USB_CNTR_FSUSP;
 2464              		.loc 1 1077 7 is_stmt 1 view .LVU638
1077:Drivers/STM32F0xx_HAL_Driver/Src/stm32f0xx_hal_pcd.c ****       hpcd->Instance->CNTR |= USB_CNTR_FSUSP;
 2465              		.loc 1 1077 11 is_stmt 0 view .LVU639
 2466 00b0 2168     		ldr	r1, [r4]
1077:Drivers/STM32F0xx_HAL_Driver/Src/stm32f0xx_hal_pcd.c ****       hpcd->Instance->CNTR |= USB_CNTR_FSUSP;
 2467              		.loc 1 1077 28 view .LVU640
 2468 00b2 043A     		subs	r2, r2, #4
 2469 00b4 8B5A     		ldrh	r3, [r1, r2]
 2470 00b6 0420     		movs	r0, #4
 2471 00b8 0343     		orrs	r3, r0
 2472 00ba 9BB2     		uxth	r3, r3
ARM GAS  /tmp/ccrcqutw.s 			page 81


 2473 00bc 8B52     		strh	r3, [r1, r2]
1078:Drivers/STM32F0xx_HAL_Driver/Src/stm32f0xx_hal_pcd.c **** 
 2474              		.loc 1 1078 7 is_stmt 1 view .LVU641
1078:Drivers/STM32F0xx_HAL_Driver/Src/stm32f0xx_hal_pcd.c **** 
 2475              		.loc 1 1078 11 is_stmt 0 view .LVU642
 2476 00be 2168     		ldr	r1, [r4]
1078:Drivers/STM32F0xx_HAL_Driver/Src/stm32f0xx_hal_pcd.c **** 
 2477              		.loc 1 1078 28 view .LVU643
 2478 00c0 8B5A     		ldrh	r3, [r1, r2]
 2479 00c2 0820     		movs	r0, #8
 2480 00c4 0343     		orrs	r3, r0
 2481 00c6 9BB2     		uxth	r3, r3
 2482 00c8 8B52     		strh	r3, [r1, r2]
1080:Drivers/STM32F0xx_HAL_Driver/Src/stm32f0xx_hal_pcd.c ****       hpcd->BESL = ((uint32_t)hpcd->Instance->LPMCSR & USB_LPMCSR_BESL) >> 2;
 2483              		.loc 1 1080 7 is_stmt 1 view .LVU644
1080:Drivers/STM32F0xx_HAL_Driver/Src/stm32f0xx_hal_pcd.c ****       hpcd->BESL = ((uint32_t)hpcd->Instance->LPMCSR & USB_LPMCSR_BESL) >> 2;
 2484              		.loc 1 1080 23 is_stmt 0 view .LVU645
 2485 00ca 9823     		movs	r3, #152
 2486 00cc 9B00     		lsls	r3, r3, #2
 2487 00ce 3F3A     		subs	r2, r2, #63
 2488 00d0 E254     		strb	r2, [r4, r3]
1081:Drivers/STM32F0xx_HAL_Driver/Src/stm32f0xx_hal_pcd.c **** #if (USE_HAL_PCD_REGISTER_CALLBACKS == 1U)
 2489              		.loc 1 1081 7 is_stmt 1 view .LVU646
1081:Drivers/STM32F0xx_HAL_Driver/Src/stm32f0xx_hal_pcd.c **** #if (USE_HAL_PCD_REGISTER_CALLBACKS == 1U)
 2490              		.loc 1 1081 45 is_stmt 0 view .LVU647
 2491 00d2 5423     		movs	r3, #84
 2492 00d4 2268     		ldr	r2, [r4]
 2493 00d6 D25A     		ldrh	r2, [r2, r3]
1081:Drivers/STM32F0xx_HAL_Driver/Src/stm32f0xx_hal_pcd.c **** #if (USE_HAL_PCD_REGISTER_CALLBACKS == 1U)
 2494              		.loc 1 1081 73 view .LVU648
 2495 00d8 9208     		lsrs	r2, r2, #2
 2496 00da 183B     		subs	r3, r3, #24
 2497 00dc 1340     		ands	r3, r2
1081:Drivers/STM32F0xx_HAL_Driver/Src/stm32f0xx_hal_pcd.c **** #if (USE_HAL_PCD_REGISTER_CALLBACKS == 1U)
 2498              		.loc 1 1081 18 view .LVU649
 2499 00de 9922     		movs	r2, #153
 2500 00e0 9200     		lsls	r2, r2, #2
 2501 00e2 A350     		str	r3, [r4, r2]
1085:Drivers/STM32F0xx_HAL_Driver/Src/stm32f0xx_hal_pcd.c **** #endif /* USE_HAL_PCD_REGISTER_CALLBACKS */
 2502              		.loc 1 1085 7 is_stmt 1 view .LVU650
 2503 00e4 0121     		movs	r1, #1
 2504 00e6 2000     		movs	r0, r4
 2505 00e8 FFF7FEFF 		bl	HAL_PCDEx_LPM_Callback
 2506              	.LVL210:
 2507              	.L106:
1098:Drivers/STM32F0xx_HAL_Driver/Src/stm32f0xx_hal_pcd.c ****   {
 2508              		.loc 1 1098 3 view .LVU651
1098:Drivers/STM32F0xx_HAL_Driver/Src/stm32f0xx_hal_pcd.c ****   {
 2509              		.loc 1 1098 7 is_stmt 0 view .LVU652
 2510 00ec 2068     		ldr	r0, [r4]
 2511 00ee FFF7FEFF 		bl	USB_ReadInterrupts
 2512              	.LVL211:
1098:Drivers/STM32F0xx_HAL_Driver/Src/stm32f0xx_hal_pcd.c ****   {
 2513              		.loc 1 1098 6 view .LVU653
 2514 00f2 8305     		lsls	r3, r0, #22
 2515 00f4 47D4     		bmi	.L114
 2516              	.L108:
ARM GAS  /tmp/ccrcqutw.s 			page 82


1109:Drivers/STM32F0xx_HAL_Driver/Src/stm32f0xx_hal_pcd.c ****   {
 2517              		.loc 1 1109 3 is_stmt 1 view .LVU654
1109:Drivers/STM32F0xx_HAL_Driver/Src/stm32f0xx_hal_pcd.c ****   {
 2518              		.loc 1 1109 7 is_stmt 0 view .LVU655
 2519 00f6 2068     		ldr	r0, [r4]
 2520 00f8 FFF7FEFF 		bl	USB_ReadInterrupts
 2521              	.LVL212:
1109:Drivers/STM32F0xx_HAL_Driver/Src/stm32f0xx_hal_pcd.c ****   {
 2522              		.loc 1 1109 6 view .LVU656
 2523 00fc C305     		lsls	r3, r0, #23
 2524 00fe 05D5     		bpl	.L98
1112:Drivers/STM32F0xx_HAL_Driver/Src/stm32f0xx_hal_pcd.c ****   }
 2525              		.loc 1 1112 5 is_stmt 1 view .LVU657
 2526 0100 2168     		ldr	r1, [r4]
 2527 0102 4422     		movs	r2, #68
 2528 0104 8B5A     		ldrh	r3, [r1, r2]
 2529 0106 2848     		ldr	r0, .L115+12
 2530 0108 0340     		ands	r3, r0
 2531 010a 8B52     		strh	r3, [r1, r2]
 2532              	.L98:
1114:Drivers/STM32F0xx_HAL_Driver/Src/stm32f0xx_hal_pcd.c **** 
 2533              		.loc 1 1114 1 is_stmt 0 view .LVU658
 2534              		@ sp needed
 2535              	.LVL213:
1114:Drivers/STM32F0xx_HAL_Driver/Src/stm32f0xx_hal_pcd.c **** 
 2536              		.loc 1 1114 1 view .LVU659
 2537 010c 70BD     		pop	{r4, r5, r6, pc}
 2538              	.LVL214:
 2539              	.L110:
1000:Drivers/STM32F0xx_HAL_Driver/Src/stm32f0xx_hal_pcd.c ****   }
 2540              		.loc 1 1000 5 is_stmt 1 view .LVU660
1000:Drivers/STM32F0xx_HAL_Driver/Src/stm32f0xx_hal_pcd.c ****   }
 2541              		.loc 1 1000 11 is_stmt 0 view .LVU661
 2542 010e 2000     		movs	r0, r4
 2543 0110 FFF7FEFF 		bl	PCD_EP_ISR_Handler
 2544              	.LVL215:
 2545 0114 7CE7     		b	.L99
 2546              	.L111:
1005:Drivers/STM32F0xx_HAL_Driver/Src/stm32f0xx_hal_pcd.c **** 
 2547              		.loc 1 1005 5 is_stmt 1 view .LVU662
 2548 0116 2168     		ldr	r1, [r4]
 2549 0118 4422     		movs	r2, #68
 2550 011a 8B5A     		ldrh	r3, [r1, r2]
 2551 011c 2348     		ldr	r0, .L115+16
 2552 011e 0340     		ands	r3, r0
 2553 0120 8B52     		strh	r3, [r1, r2]
1010:Drivers/STM32F0xx_HAL_Driver/Src/stm32f0xx_hal_pcd.c **** #endif /* USE_HAL_PCD_REGISTER_CALLBACKS */
 2554              		.loc 1 1010 5 view .LVU663
 2555 0122 2000     		movs	r0, r4
 2556 0124 FFF7FEFF 		bl	HAL_PCD_ResetCallback
 2557              	.LVL216:
1013:Drivers/STM32F0xx_HAL_Driver/Src/stm32f0xx_hal_pcd.c ****   }
 2558              		.loc 1 1013 5 view .LVU664
1013:Drivers/STM32F0xx_HAL_Driver/Src/stm32f0xx_hal_pcd.c ****   }
 2559              		.loc 1 1013 11 is_stmt 0 view .LVU665
 2560 0128 0021     		movs	r1, #0
 2561 012a 2000     		movs	r0, r4
ARM GAS  /tmp/ccrcqutw.s 			page 83


 2562 012c FFF7FEFF 		bl	HAL_PCD_SetAddress
 2563              	.LVL217:
 2564 0130 74E7     		b	.L100
 2565              	.L112:
1033:Drivers/STM32F0xx_HAL_Driver/Src/stm32f0xx_hal_pcd.c **** #if (USE_HAL_PCD_REGISTER_CALLBACKS == 1U)
 2566              		.loc 1 1033 7 is_stmt 1 view .LVU666
1033:Drivers/STM32F0xx_HAL_Driver/Src/stm32f0xx_hal_pcd.c **** #if (USE_HAL_PCD_REGISTER_CALLBACKS == 1U)
 2567              		.loc 1 1033 23 is_stmt 0 view .LVU667
 2568 0132 9823     		movs	r3, #152
 2569 0134 9B00     		lsls	r3, r3, #2
 2570 0136 0022     		movs	r2, #0
 2571 0138 E254     		strb	r2, [r4, r3]
1037:Drivers/STM32F0xx_HAL_Driver/Src/stm32f0xx_hal_pcd.c **** #endif /* USE_HAL_PCD_REGISTER_CALLBACKS */
 2572              		.loc 1 1037 7 is_stmt 1 view .LVU668
 2573 013a 0021     		movs	r1, #0
 2574 013c 2000     		movs	r0, r4
 2575 013e FFF7FEFF 		bl	HAL_PCDEx_LPM_Callback
 2576              	.LVL218:
 2577 0142 96E7     		b	.L104
 2578              	.L113:
1053:Drivers/STM32F0xx_HAL_Driver/Src/stm32f0xx_hal_pcd.c **** 
 2579              		.loc 1 1053 5 view .LVU669
1053:Drivers/STM32F0xx_HAL_Driver/Src/stm32f0xx_hal_pcd.c **** 
 2580              		.loc 1 1053 9 is_stmt 0 view .LVU670
 2581 0144 2168     		ldr	r1, [r4]
1053:Drivers/STM32F0xx_HAL_Driver/Src/stm32f0xx_hal_pcd.c **** 
 2582              		.loc 1 1053 26 view .LVU671
 2583 0146 4022     		movs	r2, #64
 2584 0148 8B5A     		ldrh	r3, [r1, r2]
 2585 014a 0820     		movs	r0, #8
 2586 014c 0343     		orrs	r3, r0
 2587 014e 9BB2     		uxth	r3, r3
 2588 0150 8B52     		strh	r3, [r1, r2]
1056:Drivers/STM32F0xx_HAL_Driver/Src/stm32f0xx_hal_pcd.c **** 
 2589              		.loc 1 1056 5 is_stmt 1 view .LVU672
 2590 0152 2068     		ldr	r0, [r4]
 2591 0154 4421     		movs	r1, #68
 2592 0156 435A     		ldrh	r3, [r0, r1]
 2593 0158 154D     		ldr	r5, .L115+20
 2594 015a 2B40     		ands	r3, r5
 2595 015c 4352     		strh	r3, [r0, r1]
1058:Drivers/STM32F0xx_HAL_Driver/Src/stm32f0xx_hal_pcd.c **** 
 2596              		.loc 1 1058 5 view .LVU673
1058:Drivers/STM32F0xx_HAL_Driver/Src/stm32f0xx_hal_pcd.c **** 
 2597              		.loc 1 1058 9 is_stmt 0 view .LVU674
 2598 015e 2168     		ldr	r1, [r4]
1058:Drivers/STM32F0xx_HAL_Driver/Src/stm32f0xx_hal_pcd.c **** 
 2599              		.loc 1 1058 26 view .LVU675
 2600 0160 8B5A     		ldrh	r3, [r1, r2]
 2601 0162 0420     		movs	r0, #4
 2602 0164 0343     		orrs	r3, r0
 2603 0166 9BB2     		uxth	r3, r3
 2604 0168 8B52     		strh	r3, [r1, r2]
1060:Drivers/STM32F0xx_HAL_Driver/Src/stm32f0xx_hal_pcd.c ****     {
 2605              		.loc 1 1060 5 is_stmt 1 view .LVU676
1060:Drivers/STM32F0xx_HAL_Driver/Src/stm32f0xx_hal_pcd.c ****     {
 2606              		.loc 1 1060 9 is_stmt 0 view .LVU677
ARM GAS  /tmp/ccrcqutw.s 			page 84


 2607 016a 2068     		ldr	r0, [r4]
 2608 016c FFF7FEFF 		bl	USB_ReadInterrupts
 2609              	.LVL219:
1060:Drivers/STM32F0xx_HAL_Driver/Src/stm32f0xx_hal_pcd.c ****     {
 2610              		.loc 1 1060 8 view .LVU678
 2611 0170 C304     		lsls	r3, r0, #19
 2612 0172 00D5     		bpl	.LCB2374
 2613 0174 8BE7     		b	.L105	@long jump
 2614              	.LCB2374:
1065:Drivers/STM32F0xx_HAL_Driver/Src/stm32f0xx_hal_pcd.c **** #endif /* USE_HAL_PCD_REGISTER_CALLBACKS */
 2615              		.loc 1 1065 7 is_stmt 1 view .LVU679
 2616 0176 2000     		movs	r0, r4
 2617 0178 FFF7FEFF 		bl	HAL_PCD_SuspendCallback
 2618              	.LVL220:
 2619 017c 87E7     		b	.L105
 2620              	.L107:
1093:Drivers/STM32F0xx_HAL_Driver/Src/stm32f0xx_hal_pcd.c **** #endif /* USE_HAL_PCD_REGISTER_CALLBACKS */
 2621              		.loc 1 1093 7 view .LVU680
 2622 017e 2000     		movs	r0, r4
 2623 0180 FFF7FEFF 		bl	HAL_PCD_SuspendCallback
 2624              	.LVL221:
 2625 0184 B2E7     		b	.L106
 2626              	.L114:
1100:Drivers/STM32F0xx_HAL_Driver/Src/stm32f0xx_hal_pcd.c **** 
 2627              		.loc 1 1100 5 view .LVU681
 2628 0186 2168     		ldr	r1, [r4]
 2629 0188 4422     		movs	r2, #68
 2630 018a 8B5A     		ldrh	r3, [r1, r2]
 2631 018c 0948     		ldr	r0, .L115+24
 2632 018e 0340     		ands	r3, r0
 2633 0190 8B52     		strh	r3, [r1, r2]
1105:Drivers/STM32F0xx_HAL_Driver/Src/stm32f0xx_hal_pcd.c **** #endif /* USE_HAL_PCD_REGISTER_CALLBACKS */
 2634              		.loc 1 1105 5 view .LVU682
 2635 0192 2000     		movs	r0, r4
 2636 0194 FFF7FEFF 		bl	HAL_PCD_SOFCallback
 2637              	.LVL222:
 2638 0198 ADE7     		b	.L108
 2639              	.L116:
 2640 019a C046     		.align	2
 2641              	.L115:
 2642 019c FFBFFFFF 		.word	-16385
 2643 01a0 FFDFFFFF 		.word	-8193
 2644 01a4 FFEFFFFF 		.word	-4097
 2645 01a8 FFFEFFFF 		.word	-257
 2646 01ac FFFBFFFF 		.word	-1025
 2647 01b0 FFF7FFFF 		.word	-2049
 2648 01b4 FFFDFFFF 		.word	-513
 2649              		.cfi_endproc
 2650              	.LFE46:
 2652              		.section	.text.HAL_PCD_EP_SetStall,"ax",%progbits
 2653              		.align	1
 2654              		.global	HAL_PCD_EP_SetStall
 2655              		.syntax unified
 2656              		.code	16
 2657              		.thumb_func
 2658              		.fpu softvfp
 2660              	HAL_PCD_EP_SetStall:
ARM GAS  /tmp/ccrcqutw.s 			page 85


 2661              	.LVL223:
 2662              	.LFB66:
1506:Drivers/STM32F0xx_HAL_Driver/Src/stm32f0xx_hal_pcd.c ****   PCD_EPTypeDef *ep;
 2663              		.loc 1 1506 1 view -0
 2664              		.cfi_startproc
 2665              		@ args = 0, pretend = 0, frame = 0
 2666              		@ frame_needed = 0, uses_anonymous_args = 0
1506:Drivers/STM32F0xx_HAL_Driver/Src/stm32f0xx_hal_pcd.c ****   PCD_EPTypeDef *ep;
 2667              		.loc 1 1506 1 is_stmt 0 view .LVU684
 2668 0000 70B5     		push	{r4, r5, r6, lr}
 2669              	.LCFI15:
 2670              		.cfi_def_cfa_offset 16
 2671              		.cfi_offset 4, -16
 2672              		.cfi_offset 5, -12
 2673              		.cfi_offset 6, -8
 2674              		.cfi_offset 14, -4
 2675 0002 0400     		movs	r4, r0
1507:Drivers/STM32F0xx_HAL_Driver/Src/stm32f0xx_hal_pcd.c **** 
 2676              		.loc 1 1507 3 is_stmt 1 view .LVU685
1509:Drivers/STM32F0xx_HAL_Driver/Src/stm32f0xx_hal_pcd.c ****   {
 2677              		.loc 1 1509 3 view .LVU686
 2678 0004 0725     		movs	r5, #7
 2679 0006 0D40     		ands	r5, r1
1509:Drivers/STM32F0xx_HAL_Driver/Src/stm32f0xx_hal_pcd.c ****   {
 2680              		.loc 1 1509 6 is_stmt 0 view .LVU687
 2681 0008 4368     		ldr	r3, [r0, #4]
 2682 000a 9D42     		cmp	r5, r3
 2683 000c 33D8     		bhi	.L122
1514:Drivers/STM32F0xx_HAL_Driver/Src/stm32f0xx_hal_pcd.c ****   {
 2684              		.loc 1 1514 3 is_stmt 1 view .LVU688
1514:Drivers/STM32F0xx_HAL_Driver/Src/stm32f0xx_hal_pcd.c ****   {
 2685              		.loc 1 1514 25 is_stmt 0 view .LVU689
 2686 000e 4BB2     		sxtb	r3, r1
1514:Drivers/STM32F0xx_HAL_Driver/Src/stm32f0xx_hal_pcd.c ****   {
 2687              		.loc 1 1514 6 view .LVU690
 2688 0010 002B     		cmp	r3, #0
 2689 0012 20DB     		blt	.L124
1521:Drivers/STM32F0xx_HAL_Driver/Src/stm32f0xx_hal_pcd.c ****     ep->is_in = 0U;
 2690              		.loc 1 1521 5 is_stmt 1 view .LVU691
1521:Drivers/STM32F0xx_HAL_Driver/Src/stm32f0xx_hal_pcd.c ****     ep->is_in = 0U;
 2691              		.loc 1 1521 8 is_stmt 0 view .LVU692
 2692 0014 4B01     		lsls	r3, r1, #5
 2693 0016 1900     		movs	r1, r3
 2694              	.LVL224:
1521:Drivers/STM32F0xx_HAL_Driver/Src/stm32f0xx_hal_pcd.c ****     ep->is_in = 0U;
 2695              		.loc 1 1521 8 view .LVU693
 2696 0018 2931     		adds	r1, r1, #41
 2697 001a FF31     		adds	r1, r1, #255
 2698 001c 4118     		adds	r1, r0, r1
 2699              	.LVL225:
1522:Drivers/STM32F0xx_HAL_Driver/Src/stm32f0xx_hal_pcd.c ****   }
 2700              		.loc 1 1522 5 is_stmt 1 view .LVU694
1522:Drivers/STM32F0xx_HAL_Driver/Src/stm32f0xx_hal_pcd.c ****   }
 2701              		.loc 1 1522 15 is_stmt 0 view .LVU695
 2702 001e C318     		adds	r3, r0, r3
 2703 0020 2A33     		adds	r3, r3, #42
 2704 0022 FF33     		adds	r3, r3, #255
ARM GAS  /tmp/ccrcqutw.s 			page 86


 2705 0024 0022     		movs	r2, #0
 2706 0026 1A70     		strb	r2, [r3]
 2707              	.L120:
1525:Drivers/STM32F0xx_HAL_Driver/Src/stm32f0xx_hal_pcd.c ****   ep->num = ep_addr & EP_ADDR_MSK;
 2708              		.loc 1 1525 3 is_stmt 1 view .LVU696
1525:Drivers/STM32F0xx_HAL_Driver/Src/stm32f0xx_hal_pcd.c ****   ep->num = ep_addr & EP_ADDR_MSK;
 2709              		.loc 1 1525 16 is_stmt 0 view .LVU697
 2710 0028 0123     		movs	r3, #1
 2711 002a 8B70     		strb	r3, [r1, #2]
1526:Drivers/STM32F0xx_HAL_Driver/Src/stm32f0xx_hal_pcd.c **** 
 2712              		.loc 1 1526 3 is_stmt 1 view .LVU698
1526:Drivers/STM32F0xx_HAL_Driver/Src/stm32f0xx_hal_pcd.c **** 
 2713              		.loc 1 1526 11 is_stmt 0 view .LVU699
 2714 002c 0D70     		strb	r5, [r1]
1528:Drivers/STM32F0xx_HAL_Driver/Src/stm32f0xx_hal_pcd.c **** 
 2715              		.loc 1 1528 3 is_stmt 1 view .LVU700
1528:Drivers/STM32F0xx_HAL_Driver/Src/stm32f0xx_hal_pcd.c **** 
 2716              		.loc 1 1528 3 view .LVU701
 2717 002e 8A23     		movs	r3, #138
 2718 0030 9B00     		lsls	r3, r3, #2
 2719 0032 E35C     		ldrb	r3, [r4, r3]
 2720 0034 012B     		cmp	r3, #1
 2721 0036 20D0     		beq	.L123
1528:Drivers/STM32F0xx_HAL_Driver/Src/stm32f0xx_hal_pcd.c **** 
 2722              		.loc 1 1528 3 discriminator 2 view .LVU702
 2723 0038 8A23     		movs	r3, #138
 2724 003a 9B00     		lsls	r3, r3, #2
 2725 003c 0122     		movs	r2, #1
 2726 003e E254     		strb	r2, [r4, r3]
1528:Drivers/STM32F0xx_HAL_Driver/Src/stm32f0xx_hal_pcd.c **** 
 2727              		.loc 1 1528 3 discriminator 2 view .LVU703
1530:Drivers/STM32F0xx_HAL_Driver/Src/stm32f0xx_hal_pcd.c ****   if ((ep_addr & EP_ADDR_MSK) == 0U)
 2728              		.loc 1 1530 3 discriminator 2 view .LVU704
1530:Drivers/STM32F0xx_HAL_Driver/Src/stm32f0xx_hal_pcd.c ****   if ((ep_addr & EP_ADDR_MSK) == 0U)
 2729              		.loc 1 1530 9 is_stmt 0 discriminator 2 view .LVU705
 2730 0040 2068     		ldr	r0, [r4]
 2731              	.LVL226:
1530:Drivers/STM32F0xx_HAL_Driver/Src/stm32f0xx_hal_pcd.c ****   if ((ep_addr & EP_ADDR_MSK) == 0U)
 2732              		.loc 1 1530 9 discriminator 2 view .LVU706
 2733 0042 FFF7FEFF 		bl	USB_EPSetStall
 2734              	.LVL227:
1531:Drivers/STM32F0xx_HAL_Driver/Src/stm32f0xx_hal_pcd.c ****   {
 2735              		.loc 1 1531 3 is_stmt 1 discriminator 2 view .LVU707
1531:Drivers/STM32F0xx_HAL_Driver/Src/stm32f0xx_hal_pcd.c ****   {
 2736              		.loc 1 1531 6 is_stmt 0 discriminator 2 view .LVU708
 2737 0046 002D     		cmp	r5, #0
 2738 0048 0ED0     		beq	.L125
 2739              	.L121:
1535:Drivers/STM32F0xx_HAL_Driver/Src/stm32f0xx_hal_pcd.c **** 
 2740              		.loc 1 1535 3 is_stmt 1 view .LVU709
1535:Drivers/STM32F0xx_HAL_Driver/Src/stm32f0xx_hal_pcd.c **** 
 2741              		.loc 1 1535 3 view .LVU710
 2742 004a 8A23     		movs	r3, #138
 2743 004c 9B00     		lsls	r3, r3, #2
 2744 004e 0022     		movs	r2, #0
 2745 0050 E254     		strb	r2, [r4, r3]
1535:Drivers/STM32F0xx_HAL_Driver/Src/stm32f0xx_hal_pcd.c **** 
ARM GAS  /tmp/ccrcqutw.s 			page 87


 2746              		.loc 1 1535 3 view .LVU711
1537:Drivers/STM32F0xx_HAL_Driver/Src/stm32f0xx_hal_pcd.c **** }
 2747              		.loc 1 1537 3 view .LVU712
1537:Drivers/STM32F0xx_HAL_Driver/Src/stm32f0xx_hal_pcd.c **** }
 2748              		.loc 1 1537 10 is_stmt 0 view .LVU713
 2749 0052 0020     		movs	r0, #0
 2750              	.L118:
1538:Drivers/STM32F0xx_HAL_Driver/Src/stm32f0xx_hal_pcd.c **** 
 2751              		.loc 1 1538 1 view .LVU714
 2752              		@ sp needed
 2753              	.LVL228:
1538:Drivers/STM32F0xx_HAL_Driver/Src/stm32f0xx_hal_pcd.c **** 
 2754              		.loc 1 1538 1 view .LVU715
 2755 0054 70BD     		pop	{r4, r5, r6, pc}
 2756              	.LVL229:
 2757              	.L124:
1516:Drivers/STM32F0xx_HAL_Driver/Src/stm32f0xx_hal_pcd.c ****     ep->is_in = 1U;
 2758              		.loc 1 1516 5 is_stmt 1 view .LVU716
1516:Drivers/STM32F0xx_HAL_Driver/Src/stm32f0xx_hal_pcd.c ****     ep->is_in = 1U;
 2759              		.loc 1 1516 8 is_stmt 0 view .LVU717
 2760 0056 6B01     		lsls	r3, r5, #5
 2761 0058 1900     		movs	r1, r3
 2762              	.LVL230:
1516:Drivers/STM32F0xx_HAL_Driver/Src/stm32f0xx_hal_pcd.c ****     ep->is_in = 1U;
 2763              		.loc 1 1516 8 view .LVU718
 2764 005a 2831     		adds	r1, r1, #40
 2765 005c 4118     		adds	r1, r0, r1
 2766              	.LVL231:
1517:Drivers/STM32F0xx_HAL_Driver/Src/stm32f0xx_hal_pcd.c ****   }
 2767              		.loc 1 1517 5 is_stmt 1 view .LVU719
1517:Drivers/STM32F0xx_HAL_Driver/Src/stm32f0xx_hal_pcd.c ****   }
 2768              		.loc 1 1517 15 is_stmt 0 view .LVU720
 2769 005e C318     		adds	r3, r0, r3
 2770 0060 2933     		adds	r3, r3, #41
 2771 0062 0122     		movs	r2, #1
 2772 0064 1A70     		strb	r2, [r3]
 2773 0066 DFE7     		b	.L120
 2774              	.LVL232:
 2775              	.L125:
1533:Drivers/STM32F0xx_HAL_Driver/Src/stm32f0xx_hal_pcd.c ****   }
 2776              		.loc 1 1533 5 is_stmt 1 view .LVU721
1533:Drivers/STM32F0xx_HAL_Driver/Src/stm32f0xx_hal_pcd.c ****   }
 2777              		.loc 1 1533 55 is_stmt 0 view .LVU722
 2778 0068 8C23     		movs	r3, #140
 2779 006a 9B00     		lsls	r3, r3, #2
 2780 006c E118     		adds	r1, r4, r3
1533:Drivers/STM32F0xx_HAL_Driver/Src/stm32f0xx_hal_pcd.c ****   }
 2781              		.loc 1 1533 11 view .LVU723
 2782 006e 2068     		ldr	r0, [r4]
 2783 0070 FFF7FEFF 		bl	USB_EP0_OutStart
 2784              	.LVL233:
 2785 0074 E9E7     		b	.L121
 2786              	.LVL234:
 2787              	.L122:
1511:Drivers/STM32F0xx_HAL_Driver/Src/stm32f0xx_hal_pcd.c ****   }
 2788              		.loc 1 1511 12 view .LVU724
 2789 0076 0120     		movs	r0, #1
ARM GAS  /tmp/ccrcqutw.s 			page 88


 2790              	.LVL235:
1511:Drivers/STM32F0xx_HAL_Driver/Src/stm32f0xx_hal_pcd.c ****   }
 2791              		.loc 1 1511 12 view .LVU725
 2792 0078 ECE7     		b	.L118
 2793              	.LVL236:
 2794              	.L123:
1528:Drivers/STM32F0xx_HAL_Driver/Src/stm32f0xx_hal_pcd.c **** 
 2795              		.loc 1 1528 3 view .LVU726
 2796 007a 0220     		movs	r0, #2
 2797              	.LVL237:
1528:Drivers/STM32F0xx_HAL_Driver/Src/stm32f0xx_hal_pcd.c **** 
 2798              		.loc 1 1528 3 view .LVU727
 2799 007c EAE7     		b	.L118
 2800              		.cfi_endproc
 2801              	.LFE66:
 2803              		.section	.text.HAL_PCD_EP_ClrStall,"ax",%progbits
 2804              		.align	1
 2805              		.global	HAL_PCD_EP_ClrStall
 2806              		.syntax unified
 2807              		.code	16
 2808              		.thumb_func
 2809              		.fpu softvfp
 2811              	HAL_PCD_EP_ClrStall:
 2812              	.LVL238:
 2813              	.LFB67:
1547:Drivers/STM32F0xx_HAL_Driver/Src/stm32f0xx_hal_pcd.c ****   PCD_EPTypeDef *ep;
 2814              		.loc 1 1547 1 is_stmt 1 view -0
 2815              		.cfi_startproc
 2816              		@ args = 0, pretend = 0, frame = 0
 2817              		@ frame_needed = 0, uses_anonymous_args = 0
1547:Drivers/STM32F0xx_HAL_Driver/Src/stm32f0xx_hal_pcd.c ****   PCD_EPTypeDef *ep;
 2818              		.loc 1 1547 1 is_stmt 0 view .LVU729
 2819 0000 70B5     		push	{r4, r5, r6, lr}
 2820              	.LCFI16:
 2821              		.cfi_def_cfa_offset 16
 2822              		.cfi_offset 4, -16
 2823              		.cfi_offset 5, -12
 2824              		.cfi_offset 6, -8
 2825              		.cfi_offset 14, -4
 2826 0002 0400     		movs	r4, r0
 2827 0004 0B00     		movs	r3, r1
1548:Drivers/STM32F0xx_HAL_Driver/Src/stm32f0xx_hal_pcd.c **** 
 2828              		.loc 1 1548 3 is_stmt 1 view .LVU730
1550:Drivers/STM32F0xx_HAL_Driver/Src/stm32f0xx_hal_pcd.c ****   {
 2829              		.loc 1 1550 3 view .LVU731
1550:Drivers/STM32F0xx_HAL_Driver/Src/stm32f0xx_hal_pcd.c ****   {
 2830              		.loc 1 1550 26 is_stmt 0 view .LVU732
 2831 0006 0F22     		movs	r2, #15
 2832 0008 0A40     		ands	r2, r1
1550:Drivers/STM32F0xx_HAL_Driver/Src/stm32f0xx_hal_pcd.c ****   {
 2833              		.loc 1 1550 6 view .LVU733
 2834 000a 4168     		ldr	r1, [r0, #4]
 2835              	.LVL239:
1550:Drivers/STM32F0xx_HAL_Driver/Src/stm32f0xx_hal_pcd.c ****   {
 2836              		.loc 1 1550 6 view .LVU734
 2837 000c 8A42     		cmp	r2, r1
 2838 000e 2ED8     		bhi	.L130
ARM GAS  /tmp/ccrcqutw.s 			page 89


1555:Drivers/STM32F0xx_HAL_Driver/Src/stm32f0xx_hal_pcd.c ****   {
 2839              		.loc 1 1555 3 is_stmt 1 view .LVU735
1555:Drivers/STM32F0xx_HAL_Driver/Src/stm32f0xx_hal_pcd.c ****   {
 2840              		.loc 1 1555 25 is_stmt 0 view .LVU736
 2841 0010 5AB2     		sxtb	r2, r3
1555:Drivers/STM32F0xx_HAL_Driver/Src/stm32f0xx_hal_pcd.c ****   {
 2842              		.loc 1 1555 6 view .LVU737
 2843 0012 002A     		cmp	r2, #0
 2844 0014 20DB     		blt	.L132
1562:Drivers/STM32F0xx_HAL_Driver/Src/stm32f0xx_hal_pcd.c ****     ep->is_in = 0U;
 2845              		.loc 1 1562 5 is_stmt 1 view .LVU738
1562:Drivers/STM32F0xx_HAL_Driver/Src/stm32f0xx_hal_pcd.c ****     ep->is_in = 0U;
 2846              		.loc 1 1562 32 is_stmt 0 view .LVU739
 2847 0016 0722     		movs	r2, #7
 2848 0018 1A40     		ands	r2, r3
1562:Drivers/STM32F0xx_HAL_Driver/Src/stm32f0xx_hal_pcd.c ****     ep->is_in = 0U;
 2849              		.loc 1 1562 8 view .LVU740
 2850 001a 5201     		lsls	r2, r2, #5
 2851 001c 1100     		movs	r1, r2
 2852 001e 2931     		adds	r1, r1, #41
 2853 0020 FF31     		adds	r1, r1, #255
 2854 0022 4118     		adds	r1, r0, r1
 2855              	.LVL240:
1563:Drivers/STM32F0xx_HAL_Driver/Src/stm32f0xx_hal_pcd.c ****   }
 2856              		.loc 1 1563 5 is_stmt 1 view .LVU741
1563:Drivers/STM32F0xx_HAL_Driver/Src/stm32f0xx_hal_pcd.c ****   }
 2857              		.loc 1 1563 15 is_stmt 0 view .LVU742
 2858 0024 8218     		adds	r2, r0, r2
 2859 0026 2A32     		adds	r2, r2, #42
 2860 0028 FF32     		adds	r2, r2, #255
 2861 002a 0020     		movs	r0, #0
 2862              	.LVL241:
1563:Drivers/STM32F0xx_HAL_Driver/Src/stm32f0xx_hal_pcd.c ****   }
 2863              		.loc 1 1563 15 view .LVU743
 2864 002c 1070     		strb	r0, [r2]
 2865              	.L129:
1566:Drivers/STM32F0xx_HAL_Driver/Src/stm32f0xx_hal_pcd.c ****   ep->num = ep_addr & EP_ADDR_MSK;
 2866              		.loc 1 1566 3 is_stmt 1 view .LVU744
1566:Drivers/STM32F0xx_HAL_Driver/Src/stm32f0xx_hal_pcd.c ****   ep->num = ep_addr & EP_ADDR_MSK;
 2867              		.loc 1 1566 16 is_stmt 0 view .LVU745
 2868 002e 0022     		movs	r2, #0
 2869 0030 8A70     		strb	r2, [r1, #2]
1567:Drivers/STM32F0xx_HAL_Driver/Src/stm32f0xx_hal_pcd.c **** 
 2870              		.loc 1 1567 3 is_stmt 1 view .LVU746
1567:Drivers/STM32F0xx_HAL_Driver/Src/stm32f0xx_hal_pcd.c **** 
 2871              		.loc 1 1567 21 is_stmt 0 view .LVU747
 2872 0032 0732     		adds	r2, r2, #7
 2873 0034 1340     		ands	r3, r2
1567:Drivers/STM32F0xx_HAL_Driver/Src/stm32f0xx_hal_pcd.c **** 
 2874              		.loc 1 1567 11 view .LVU748
 2875 0036 0B70     		strb	r3, [r1]
1569:Drivers/STM32F0xx_HAL_Driver/Src/stm32f0xx_hal_pcd.c ****   (void)USB_EPClearStall(hpcd->Instance, ep);
 2876              		.loc 1 1569 3 is_stmt 1 view .LVU749
1569:Drivers/STM32F0xx_HAL_Driver/Src/stm32f0xx_hal_pcd.c ****   (void)USB_EPClearStall(hpcd->Instance, ep);
 2877              		.loc 1 1569 3 view .LVU750
 2878 0038 8A23     		movs	r3, #138
 2879 003a 9B00     		lsls	r3, r3, #2
ARM GAS  /tmp/ccrcqutw.s 			page 90


 2880 003c E35C     		ldrb	r3, [r4, r3]
 2881 003e 012B     		cmp	r3, #1
 2882 0040 17D0     		beq	.L131
1569:Drivers/STM32F0xx_HAL_Driver/Src/stm32f0xx_hal_pcd.c ****   (void)USB_EPClearStall(hpcd->Instance, ep);
 2883              		.loc 1 1569 3 discriminator 2 view .LVU751
 2884 0042 8A25     		movs	r5, #138
 2885 0044 AD00     		lsls	r5, r5, #2
 2886 0046 0123     		movs	r3, #1
 2887 0048 6355     		strb	r3, [r4, r5]
1569:Drivers/STM32F0xx_HAL_Driver/Src/stm32f0xx_hal_pcd.c ****   (void)USB_EPClearStall(hpcd->Instance, ep);
 2888              		.loc 1 1569 3 discriminator 2 view .LVU752
1570:Drivers/STM32F0xx_HAL_Driver/Src/stm32f0xx_hal_pcd.c ****   __HAL_UNLOCK(hpcd);
 2889              		.loc 1 1570 3 discriminator 2 view .LVU753
1570:Drivers/STM32F0xx_HAL_Driver/Src/stm32f0xx_hal_pcd.c ****   __HAL_UNLOCK(hpcd);
 2890              		.loc 1 1570 9 is_stmt 0 discriminator 2 view .LVU754
 2891 004a 2068     		ldr	r0, [r4]
 2892 004c FFF7FEFF 		bl	USB_EPClearStall
 2893              	.LVL242:
1571:Drivers/STM32F0xx_HAL_Driver/Src/stm32f0xx_hal_pcd.c **** 
 2894              		.loc 1 1571 3 is_stmt 1 discriminator 2 view .LVU755
1571:Drivers/STM32F0xx_HAL_Driver/Src/stm32f0xx_hal_pcd.c **** 
 2895              		.loc 1 1571 3 discriminator 2 view .LVU756
 2896 0050 0023     		movs	r3, #0
 2897 0052 6355     		strb	r3, [r4, r5]
1571:Drivers/STM32F0xx_HAL_Driver/Src/stm32f0xx_hal_pcd.c **** 
 2898              		.loc 1 1571 3 discriminator 2 view .LVU757
1573:Drivers/STM32F0xx_HAL_Driver/Src/stm32f0xx_hal_pcd.c **** }
 2899              		.loc 1 1573 3 discriminator 2 view .LVU758
1573:Drivers/STM32F0xx_HAL_Driver/Src/stm32f0xx_hal_pcd.c **** }
 2900              		.loc 1 1573 10 is_stmt 0 discriminator 2 view .LVU759
 2901 0054 0020     		movs	r0, #0
 2902              	.L127:
1574:Drivers/STM32F0xx_HAL_Driver/Src/stm32f0xx_hal_pcd.c **** 
 2903              		.loc 1 1574 1 view .LVU760
 2904              		@ sp needed
 2905              	.LVL243:
1574:Drivers/STM32F0xx_HAL_Driver/Src/stm32f0xx_hal_pcd.c **** 
 2906              		.loc 1 1574 1 view .LVU761
 2907 0056 70BD     		pop	{r4, r5, r6, pc}
 2908              	.LVL244:
 2909              	.L132:
1557:Drivers/STM32F0xx_HAL_Driver/Src/stm32f0xx_hal_pcd.c ****     ep->is_in = 1U;
 2910              		.loc 1 1557 5 is_stmt 1 view .LVU762
1557:Drivers/STM32F0xx_HAL_Driver/Src/stm32f0xx_hal_pcd.c ****     ep->is_in = 1U;
 2911              		.loc 1 1557 31 is_stmt 0 view .LVU763
 2912 0058 0722     		movs	r2, #7
 2913 005a 1A40     		ands	r2, r3
1557:Drivers/STM32F0xx_HAL_Driver/Src/stm32f0xx_hal_pcd.c ****     ep->is_in = 1U;
 2914              		.loc 1 1557 8 view .LVU764
 2915 005c 5201     		lsls	r2, r2, #5
 2916 005e 1100     		movs	r1, r2
 2917 0060 2831     		adds	r1, r1, #40
 2918 0062 4118     		adds	r1, r0, r1
 2919              	.LVL245:
1558:Drivers/STM32F0xx_HAL_Driver/Src/stm32f0xx_hal_pcd.c ****   }
 2920              		.loc 1 1558 5 is_stmt 1 view .LVU765
1558:Drivers/STM32F0xx_HAL_Driver/Src/stm32f0xx_hal_pcd.c ****   }
ARM GAS  /tmp/ccrcqutw.s 			page 91


 2921              		.loc 1 1558 15 is_stmt 0 view .LVU766
 2922 0064 8218     		adds	r2, r0, r2
 2923 0066 2932     		adds	r2, r2, #41
 2924 0068 0120     		movs	r0, #1
 2925              	.LVL246:
1558:Drivers/STM32F0xx_HAL_Driver/Src/stm32f0xx_hal_pcd.c ****   }
 2926              		.loc 1 1558 15 view .LVU767
 2927 006a 1070     		strb	r0, [r2]
 2928 006c DFE7     		b	.L129
 2929              	.LVL247:
 2930              	.L130:
1552:Drivers/STM32F0xx_HAL_Driver/Src/stm32f0xx_hal_pcd.c ****   }
 2931              		.loc 1 1552 12 view .LVU768
 2932 006e 0120     		movs	r0, #1
 2933              	.LVL248:
1552:Drivers/STM32F0xx_HAL_Driver/Src/stm32f0xx_hal_pcd.c ****   }
 2934              		.loc 1 1552 12 view .LVU769
 2935 0070 F1E7     		b	.L127
 2936              	.LVL249:
 2937              	.L131:
1569:Drivers/STM32F0xx_HAL_Driver/Src/stm32f0xx_hal_pcd.c ****   (void)USB_EPClearStall(hpcd->Instance, ep);
 2938              		.loc 1 1569 3 view .LVU770
 2939 0072 0220     		movs	r0, #2
 2940 0074 EFE7     		b	.L127
 2941              		.cfi_endproc
 2942              	.LFE67:
 2944              		.section	.text.HAL_PCD_EP_Flush,"ax",%progbits
 2945              		.align	1
 2946              		.global	HAL_PCD_EP_Flush
 2947              		.syntax unified
 2948              		.code	16
 2949              		.thumb_func
 2950              		.fpu softvfp
 2952              	HAL_PCD_EP_Flush:
 2953              	.LVL250:
 2954              	.LFB68:
1583:Drivers/STM32F0xx_HAL_Driver/Src/stm32f0xx_hal_pcd.c ****   /* Prevent unused argument(s) compilation warning */
 2955              		.loc 1 1583 1 is_stmt 1 view -0
 2956              		.cfi_startproc
 2957              		@ args = 0, pretend = 0, frame = 0
 2958              		@ frame_needed = 0, uses_anonymous_args = 0
 2959              		@ link register save eliminated.
1585:Drivers/STM32F0xx_HAL_Driver/Src/stm32f0xx_hal_pcd.c ****   UNUSED(ep_addr);
 2960              		.loc 1 1585 3 view .LVU772
1586:Drivers/STM32F0xx_HAL_Driver/Src/stm32f0xx_hal_pcd.c **** 
 2961              		.loc 1 1586 3 view .LVU773
1588:Drivers/STM32F0xx_HAL_Driver/Src/stm32f0xx_hal_pcd.c **** }
 2962              		.loc 1 1588 3 view .LVU774
1589:Drivers/STM32F0xx_HAL_Driver/Src/stm32f0xx_hal_pcd.c **** 
 2963              		.loc 1 1589 1 is_stmt 0 view .LVU775
 2964 0000 0020     		movs	r0, #0
 2965              	.LVL251:
1589:Drivers/STM32F0xx_HAL_Driver/Src/stm32f0xx_hal_pcd.c **** 
 2966              		.loc 1 1589 1 view .LVU776
 2967              		@ sp needed
 2968 0002 7047     		bx	lr
 2969              		.cfi_endproc
ARM GAS  /tmp/ccrcqutw.s 			page 92


 2970              	.LFE68:
 2972              		.section	.text.HAL_PCD_ActivateRemoteWakeup,"ax",%progbits
 2973              		.align	1
 2974              		.global	HAL_PCD_ActivateRemoteWakeup
 2975              		.syntax unified
 2976              		.code	16
 2977              		.thumb_func
 2978              		.fpu softvfp
 2980              	HAL_PCD_ActivateRemoteWakeup:
 2981              	.LVL252:
 2982              	.LFB69:
1597:Drivers/STM32F0xx_HAL_Driver/Src/stm32f0xx_hal_pcd.c ****   return (USB_ActivateRemoteWakeup(hpcd->Instance));
 2983              		.loc 1 1597 1 is_stmt 1 view -0
 2984              		.cfi_startproc
 2985              		@ args = 0, pretend = 0, frame = 0
 2986              		@ frame_needed = 0, uses_anonymous_args = 0
1597:Drivers/STM32F0xx_HAL_Driver/Src/stm32f0xx_hal_pcd.c ****   return (USB_ActivateRemoteWakeup(hpcd->Instance));
 2987              		.loc 1 1597 1 is_stmt 0 view .LVU778
 2988 0000 10B5     		push	{r4, lr}
 2989              	.LCFI17:
 2990              		.cfi_def_cfa_offset 8
 2991              		.cfi_offset 4, -8
 2992              		.cfi_offset 14, -4
1598:Drivers/STM32F0xx_HAL_Driver/Src/stm32f0xx_hal_pcd.c **** }
 2993              		.loc 1 1598 3 is_stmt 1 view .LVU779
1598:Drivers/STM32F0xx_HAL_Driver/Src/stm32f0xx_hal_pcd.c **** }
 2994              		.loc 1 1598 40 is_stmt 0 view .LVU780
 2995 0002 0068     		ldr	r0, [r0]
 2996              	.LVL253:
1598:Drivers/STM32F0xx_HAL_Driver/Src/stm32f0xx_hal_pcd.c **** }
 2997              		.loc 1 1598 11 view .LVU781
 2998 0004 FFF7FEFF 		bl	USB_ActivateRemoteWakeup
 2999              	.LVL254:
1599:Drivers/STM32F0xx_HAL_Driver/Src/stm32f0xx_hal_pcd.c **** 
 3000              		.loc 1 1599 1 view .LVU782
 3001              		@ sp needed
 3002 0008 10BD     		pop	{r4, pc}
 3003              		.cfi_endproc
 3004              	.LFE69:
 3006              		.section	.text.HAL_PCD_DeActivateRemoteWakeup,"ax",%progbits
 3007              		.align	1
 3008              		.global	HAL_PCD_DeActivateRemoteWakeup
 3009              		.syntax unified
 3010              		.code	16
 3011              		.thumb_func
 3012              		.fpu softvfp
 3014              	HAL_PCD_DeActivateRemoteWakeup:
 3015              	.LVL255:
 3016              	.LFB70:
1607:Drivers/STM32F0xx_HAL_Driver/Src/stm32f0xx_hal_pcd.c ****   return (USB_DeActivateRemoteWakeup(hpcd->Instance));
 3017              		.loc 1 1607 1 is_stmt 1 view -0
 3018              		.cfi_startproc
 3019              		@ args = 0, pretend = 0, frame = 0
 3020              		@ frame_needed = 0, uses_anonymous_args = 0
1607:Drivers/STM32F0xx_HAL_Driver/Src/stm32f0xx_hal_pcd.c ****   return (USB_DeActivateRemoteWakeup(hpcd->Instance));
 3021              		.loc 1 1607 1 is_stmt 0 view .LVU784
 3022 0000 10B5     		push	{r4, lr}
ARM GAS  /tmp/ccrcqutw.s 			page 93


 3023              	.LCFI18:
 3024              		.cfi_def_cfa_offset 8
 3025              		.cfi_offset 4, -8
 3026              		.cfi_offset 14, -4
1608:Drivers/STM32F0xx_HAL_Driver/Src/stm32f0xx_hal_pcd.c **** }
 3027              		.loc 1 1608 3 is_stmt 1 view .LVU785
1608:Drivers/STM32F0xx_HAL_Driver/Src/stm32f0xx_hal_pcd.c **** }
 3028              		.loc 1 1608 42 is_stmt 0 view .LVU786
 3029 0002 0068     		ldr	r0, [r0]
 3030              	.LVL256:
1608:Drivers/STM32F0xx_HAL_Driver/Src/stm32f0xx_hal_pcd.c **** }
 3031              		.loc 1 1608 11 view .LVU787
 3032 0004 FFF7FEFF 		bl	USB_DeActivateRemoteWakeup
 3033              	.LVL257:
1609:Drivers/STM32F0xx_HAL_Driver/Src/stm32f0xx_hal_pcd.c **** 
 3034              		.loc 1 1609 1 view .LVU788
 3035              		@ sp needed
 3036 0008 10BD     		pop	{r4, pc}
 3037              		.cfi_endproc
 3038              	.LFE70:
 3040              		.section	.text.HAL_PCD_GetState,"ax",%progbits
 3041              		.align	1
 3042              		.global	HAL_PCD_GetState
 3043              		.syntax unified
 3044              		.code	16
 3045              		.thumb_func
 3046              		.fpu softvfp
 3048              	HAL_PCD_GetState:
 3049              	.LVL258:
 3050              	.LFB71:
1636:Drivers/STM32F0xx_HAL_Driver/Src/stm32f0xx_hal_pcd.c ****   return hpcd->State;
 3051              		.loc 1 1636 1 is_stmt 1 view -0
 3052              		.cfi_startproc
 3053              		@ args = 0, pretend = 0, frame = 0
 3054              		@ frame_needed = 0, uses_anonymous_args = 0
 3055              		@ link register save eliminated.
1637:Drivers/STM32F0xx_HAL_Driver/Src/stm32f0xx_hal_pcd.c **** }
 3056              		.loc 1 1637 3 view .LVU790
1637:Drivers/STM32F0xx_HAL_Driver/Src/stm32f0xx_hal_pcd.c **** }
 3057              		.loc 1 1637 14 is_stmt 0 view .LVU791
 3058 0000 014B     		ldr	r3, .L137
 3059 0002 C05C     		ldrb	r0, [r0, r3]
 3060              	.LVL259:
1637:Drivers/STM32F0xx_HAL_Driver/Src/stm32f0xx_hal_pcd.c **** }
 3061              		.loc 1 1637 14 view .LVU792
 3062 0004 C0B2     		uxtb	r0, r0
1638:Drivers/STM32F0xx_HAL_Driver/Src/stm32f0xx_hal_pcd.c **** 
 3063              		.loc 1 1638 1 view .LVU793
 3064              		@ sp needed
 3065 0006 7047     		bx	lr
 3066              	.L138:
 3067              		.align	2
 3068              	.L137:
 3069 0008 29020000 		.word	553
 3070              		.cfi_endproc
 3071              	.LFE71:
 3073              		.text
ARM GAS  /tmp/ccrcqutw.s 			page 94


 3074              	.Letext0:
 3075              		.file 2 "/usr/lib/gcc/arm-none-eabi/9.2.1/include/stdint.h"
 3076              		.file 3 "Drivers/CMSIS/Device/ST/STM32F0xx/Include/system_stm32f0xx.h"
 3077              		.file 4 "Drivers/CMSIS/Device/ST/STM32F0xx/Include/stm32f072xb.h"
 3078              		.file 5 "Drivers/STM32F0xx_HAL_Driver/Inc/stm32f0xx_hal_def.h"
 3079              		.file 6 "Drivers/STM32F0xx_HAL_Driver/Inc/stm32f0xx_ll_usb.h"
 3080              		.file 7 "Drivers/STM32F0xx_HAL_Driver/Inc/stm32f0xx_hal_pcd.h"
 3081              		.file 8 "Drivers/STM32F0xx_HAL_Driver/Inc/stm32f0xx_hal.h"
 3082              		.file 9 "Drivers/STM32F0xx_HAL_Driver/Inc/stm32f0xx_hal_pcd_ex.h"
ARM GAS  /tmp/ccrcqutw.s 			page 95


DEFINED SYMBOLS
                            *ABS*:0000000000000000 stm32f0xx_hal_pcd.c
     /tmp/ccrcqutw.s:16     .text.HAL_PCD_MspInit:0000000000000000 $t
     /tmp/ccrcqutw.s:24     .text.HAL_PCD_MspInit:0000000000000000 HAL_PCD_MspInit
     /tmp/ccrcqutw.s:41     .text.HAL_PCD_Init:0000000000000000 $t
     /tmp/ccrcqutw.s:48     .text.HAL_PCD_Init:0000000000000000 HAL_PCD_Init
     /tmp/ccrcqutw.s:266    .text.HAL_PCD_Init:00000000000000d0 $d
     /tmp/ccrcqutw.s:271    .text.HAL_PCD_MspDeInit:0000000000000000 $t
     /tmp/ccrcqutw.s:278    .text.HAL_PCD_MspDeInit:0000000000000000 HAL_PCD_MspDeInit
     /tmp/ccrcqutw.s:294    .text.HAL_PCD_Start:0000000000000000 $t
     /tmp/ccrcqutw.s:301    .text.HAL_PCD_Start:0000000000000000 HAL_PCD_Start
     /tmp/ccrcqutw.s:366    .text.HAL_PCD_Stop:0000000000000000 $t
     /tmp/ccrcqutw.s:373    .text.HAL_PCD_Stop:0000000000000000 HAL_PCD_Stop
     /tmp/ccrcqutw.s:438    .text.HAL_PCD_DeInit:0000000000000000 $t
     /tmp/ccrcqutw.s:445    .text.HAL_PCD_DeInit:0000000000000000 HAL_PCD_DeInit
     /tmp/ccrcqutw.s:500    .text.HAL_PCD_DeInit:0000000000000024 $d
     /tmp/ccrcqutw.s:505    .text.HAL_PCD_DataOutStageCallback:0000000000000000 $t
     /tmp/ccrcqutw.s:512    .text.HAL_PCD_DataOutStageCallback:0000000000000000 HAL_PCD_DataOutStageCallback
     /tmp/ccrcqutw.s:529    .text.HAL_PCD_DataInStageCallback:0000000000000000 $t
     /tmp/ccrcqutw.s:536    .text.HAL_PCD_DataInStageCallback:0000000000000000 HAL_PCD_DataInStageCallback
     /tmp/ccrcqutw.s:553    .text.HAL_PCD_SetupStageCallback:0000000000000000 $t
     /tmp/ccrcqutw.s:560    .text.HAL_PCD_SetupStageCallback:0000000000000000 HAL_PCD_SetupStageCallback
     /tmp/ccrcqutw.s:576    .text.HAL_PCD_SOFCallback:0000000000000000 $t
     /tmp/ccrcqutw.s:583    .text.HAL_PCD_SOFCallback:0000000000000000 HAL_PCD_SOFCallback
     /tmp/ccrcqutw.s:599    .text.HAL_PCD_ResetCallback:0000000000000000 $t
     /tmp/ccrcqutw.s:606    .text.HAL_PCD_ResetCallback:0000000000000000 HAL_PCD_ResetCallback
     /tmp/ccrcqutw.s:622    .text.HAL_PCD_SuspendCallback:0000000000000000 $t
     /tmp/ccrcqutw.s:629    .text.HAL_PCD_SuspendCallback:0000000000000000 HAL_PCD_SuspendCallback
     /tmp/ccrcqutw.s:645    .text.HAL_PCD_ResumeCallback:0000000000000000 $t
     /tmp/ccrcqutw.s:652    .text.HAL_PCD_ResumeCallback:0000000000000000 HAL_PCD_ResumeCallback
     /tmp/ccrcqutw.s:668    .text.HAL_PCD_ISOOUTIncompleteCallback:0000000000000000 $t
     /tmp/ccrcqutw.s:675    .text.HAL_PCD_ISOOUTIncompleteCallback:0000000000000000 HAL_PCD_ISOOUTIncompleteCallback
     /tmp/ccrcqutw.s:692    .text.HAL_PCD_ISOINIncompleteCallback:0000000000000000 $t
     /tmp/ccrcqutw.s:699    .text.HAL_PCD_ISOINIncompleteCallback:0000000000000000 HAL_PCD_ISOINIncompleteCallback
     /tmp/ccrcqutw.s:716    .text.HAL_PCD_ConnectCallback:0000000000000000 $t
     /tmp/ccrcqutw.s:723    .text.HAL_PCD_ConnectCallback:0000000000000000 HAL_PCD_ConnectCallback
     /tmp/ccrcqutw.s:739    .text.HAL_PCD_DisconnectCallback:0000000000000000 $t
     /tmp/ccrcqutw.s:746    .text.HAL_PCD_DisconnectCallback:0000000000000000 HAL_PCD_DisconnectCallback
     /tmp/ccrcqutw.s:762    .text.HAL_PCD_DevConnect:0000000000000000 $t
     /tmp/ccrcqutw.s:769    .text.HAL_PCD_DevConnect:0000000000000000 HAL_PCD_DevConnect
     /tmp/ccrcqutw.s:830    .text.HAL_PCD_DevDisconnect:0000000000000000 $t
     /tmp/ccrcqutw.s:837    .text.HAL_PCD_DevDisconnect:0000000000000000 HAL_PCD_DevDisconnect
     /tmp/ccrcqutw.s:898    .text.HAL_PCD_SetAddress:0000000000000000 $t
     /tmp/ccrcqutw.s:905    .text.HAL_PCD_SetAddress:0000000000000000 HAL_PCD_SetAddress
     /tmp/ccrcqutw.s:970    .text.HAL_PCD_EP_Open:0000000000000000 $t
     /tmp/ccrcqutw.s:977    .text.HAL_PCD_EP_Open:0000000000000000 HAL_PCD_EP_Open
     /tmp/ccrcqutw.s:1126   .text.HAL_PCD_EP_Close:0000000000000000 $t
     /tmp/ccrcqutw.s:1133   .text.HAL_PCD_EP_Close:0000000000000000 HAL_PCD_EP_Close
     /tmp/ccrcqutw.s:1249   .text.HAL_PCD_EP_Receive:0000000000000000 $t
     /tmp/ccrcqutw.s:1256   .text.HAL_PCD_EP_Receive:0000000000000000 HAL_PCD_EP_Receive
     /tmp/ccrcqutw.s:1355   .text.HAL_PCD_EP_GetRxCount:0000000000000000 $t
     /tmp/ccrcqutw.s:1362   .text.HAL_PCD_EP_GetRxCount:0000000000000000 HAL_PCD_EP_GetRxCount
     /tmp/ccrcqutw.s:1387   .text.HAL_PCD_EP_Transmit:0000000000000000 $t
     /tmp/ccrcqutw.s:1394   .text.HAL_PCD_EP_Transmit:0000000000000000 HAL_PCD_EP_Transmit
     /tmp/ccrcqutw.s:1487   .text.PCD_EP_ISR_Handler:0000000000000000 $t
     /tmp/ccrcqutw.s:1493   .text.PCD_EP_ISR_Handler:0000000000000000 PCD_EP_ISR_Handler
     /tmp/ccrcqutw.s:2254   .text.PCD_EP_ISR_Handler:000000000000035c $d
ARM GAS  /tmp/ccrcqutw.s 			page 96


     /tmp/ccrcqutw.s:2267   .text.PCD_EP_ISR_Handler:0000000000000384 $t
     /tmp/ccrcqutw.s:2305   .text.HAL_PCD_IRQHandler:0000000000000000 $t
     /tmp/ccrcqutw.s:2312   .text.HAL_PCD_IRQHandler:0000000000000000 HAL_PCD_IRQHandler
     /tmp/ccrcqutw.s:2642   .text.HAL_PCD_IRQHandler:000000000000019c $d
     /tmp/ccrcqutw.s:2653   .text.HAL_PCD_EP_SetStall:0000000000000000 $t
     /tmp/ccrcqutw.s:2660   .text.HAL_PCD_EP_SetStall:0000000000000000 HAL_PCD_EP_SetStall
     /tmp/ccrcqutw.s:2804   .text.HAL_PCD_EP_ClrStall:0000000000000000 $t
     /tmp/ccrcqutw.s:2811   .text.HAL_PCD_EP_ClrStall:0000000000000000 HAL_PCD_EP_ClrStall
     /tmp/ccrcqutw.s:2945   .text.HAL_PCD_EP_Flush:0000000000000000 $t
     /tmp/ccrcqutw.s:2952   .text.HAL_PCD_EP_Flush:0000000000000000 HAL_PCD_EP_Flush
     /tmp/ccrcqutw.s:2973   .text.HAL_PCD_ActivateRemoteWakeup:0000000000000000 $t
     /tmp/ccrcqutw.s:2980   .text.HAL_PCD_ActivateRemoteWakeup:0000000000000000 HAL_PCD_ActivateRemoteWakeup
     /tmp/ccrcqutw.s:3007   .text.HAL_PCD_DeActivateRemoteWakeup:0000000000000000 $t
     /tmp/ccrcqutw.s:3014   .text.HAL_PCD_DeActivateRemoteWakeup:0000000000000000 HAL_PCD_DeActivateRemoteWakeup
     /tmp/ccrcqutw.s:3041   .text.HAL_PCD_GetState:0000000000000000 $t
     /tmp/ccrcqutw.s:3048   .text.HAL_PCD_GetState:0000000000000000 HAL_PCD_GetState
     /tmp/ccrcqutw.s:3069   .text.HAL_PCD_GetState:0000000000000008 $d

UNDEFINED SYMBOLS
USB_DisableGlobalInt
USB_DevInit
HAL_PCDEx_ActivateLPM
USB_DevConnect
USB_EnableGlobalInt
USB_StopDevice
USB_DevDisconnect
USB_SetDevAddress
USB_ActivateEndpoint
USB_DeactivateEndpoint
USB_EPStartXfer
USB_ReadPMA
USB_ReadInterrupts
HAL_PCDEx_LPM_Callback
USB_EPSetStall
USB_EP0_OutStart
USB_EPClearStall
USB_ActivateRemoteWakeup
USB_DeActivateRemoteWakeup
