ARM GAS  /tmp/ccUJMCfe.s 			page 1


   1              		.cpu cortex-m0
   2              		.eabi_attribute 20, 1
   3              		.eabi_attribute 21, 1
   4              		.eabi_attribute 23, 3
   5              		.eabi_attribute 24, 1
   6              		.eabi_attribute 25, 1
   7              		.eabi_attribute 26, 1
   8              		.eabi_attribute 30, 1
   9              		.eabi_attribute 34, 0
  10              		.eabi_attribute 18, 4
  11              		.file	"stm32f0xx_hal_msp.c"
  12              		.text
  13              	.Ltext0:
  14              		.cfi_sections	.debug_frame
  15              		.section	.text.HAL_MspInit,"ax",%progbits
  16              		.align	1
  17              		.global	HAL_MspInit
  18              		.arch armv6s-m
  19              		.syntax unified
  20              		.code	16
  21              		.thumb_func
  22              		.fpu softvfp
  24              	HAL_MspInit:
  25              	.LFB40:
  26              		.file 1 "Src/stm32f0xx_hal_msp.c"
   1:Src/stm32f0xx_hal_msp.c **** /* USER CODE BEGIN Header */
   2:Src/stm32f0xx_hal_msp.c **** /**
   3:Src/stm32f0xx_hal_msp.c ****   ******************************************************************************
   4:Src/stm32f0xx_hal_msp.c ****   * File Name          : stm32f0xx_hal_msp.c
   5:Src/stm32f0xx_hal_msp.c ****   * Description        : This file provides code for the MSP Initialization
   6:Src/stm32f0xx_hal_msp.c ****   *                      and de-Initialization codes.
   7:Src/stm32f0xx_hal_msp.c ****   ******************************************************************************
   8:Src/stm32f0xx_hal_msp.c ****   * @attention
   9:Src/stm32f0xx_hal_msp.c ****   *
  10:Src/stm32f0xx_hal_msp.c ****   * <h2><center>&copy; Copyright (c) 2020 STMicroelectronics.
  11:Src/stm32f0xx_hal_msp.c ****   * All rights reserved.</center></h2>
  12:Src/stm32f0xx_hal_msp.c ****   *
  13:Src/stm32f0xx_hal_msp.c ****   * This software component is licensed by ST under BSD 3-Clause license,
  14:Src/stm32f0xx_hal_msp.c ****   * the "License"; You may not use this file except in compliance with the
  15:Src/stm32f0xx_hal_msp.c ****   * License. You may obtain a copy of the License at:
  16:Src/stm32f0xx_hal_msp.c ****   *                        opensource.org/licenses/BSD-3-Clause
  17:Src/stm32f0xx_hal_msp.c ****   *
  18:Src/stm32f0xx_hal_msp.c ****   ******************************************************************************
  19:Src/stm32f0xx_hal_msp.c ****   */
  20:Src/stm32f0xx_hal_msp.c **** /* USER CODE END Header */
  21:Src/stm32f0xx_hal_msp.c **** 
  22:Src/stm32f0xx_hal_msp.c **** /* Includes ------------------------------------------------------------------*/
  23:Src/stm32f0xx_hal_msp.c **** #include "main.h"
  24:Src/stm32f0xx_hal_msp.c **** /* USER CODE BEGIN Includes */
  25:Src/stm32f0xx_hal_msp.c **** 
  26:Src/stm32f0xx_hal_msp.c **** /* USER CODE END Includes */
  27:Src/stm32f0xx_hal_msp.c **** extern DMA_HandleTypeDef hdma_spi1_tx;
  28:Src/stm32f0xx_hal_msp.c **** 
  29:Src/stm32f0xx_hal_msp.c **** /* Private typedef -----------------------------------------------------------*/
  30:Src/stm32f0xx_hal_msp.c **** /* USER CODE BEGIN TD */
  31:Src/stm32f0xx_hal_msp.c **** 
  32:Src/stm32f0xx_hal_msp.c **** /* USER CODE END TD */
ARM GAS  /tmp/ccUJMCfe.s 			page 2


  33:Src/stm32f0xx_hal_msp.c **** 
  34:Src/stm32f0xx_hal_msp.c **** /* Private define ------------------------------------------------------------*/
  35:Src/stm32f0xx_hal_msp.c **** /* USER CODE BEGIN Define */
  36:Src/stm32f0xx_hal_msp.c **** 
  37:Src/stm32f0xx_hal_msp.c **** /* USER CODE END Define */
  38:Src/stm32f0xx_hal_msp.c **** 
  39:Src/stm32f0xx_hal_msp.c **** /* Private macro -------------------------------------------------------------*/
  40:Src/stm32f0xx_hal_msp.c **** /* USER CODE BEGIN Macro */
  41:Src/stm32f0xx_hal_msp.c **** 
  42:Src/stm32f0xx_hal_msp.c **** /* USER CODE END Macro */
  43:Src/stm32f0xx_hal_msp.c **** 
  44:Src/stm32f0xx_hal_msp.c **** /* Private variables ---------------------------------------------------------*/
  45:Src/stm32f0xx_hal_msp.c **** /* USER CODE BEGIN PV */
  46:Src/stm32f0xx_hal_msp.c **** 
  47:Src/stm32f0xx_hal_msp.c **** /* USER CODE END PV */
  48:Src/stm32f0xx_hal_msp.c **** 
  49:Src/stm32f0xx_hal_msp.c **** /* Private function prototypes -----------------------------------------------*/
  50:Src/stm32f0xx_hal_msp.c **** /* USER CODE BEGIN PFP */
  51:Src/stm32f0xx_hal_msp.c **** 
  52:Src/stm32f0xx_hal_msp.c **** /* USER CODE END PFP */
  53:Src/stm32f0xx_hal_msp.c **** 
  54:Src/stm32f0xx_hal_msp.c **** /* External functions --------------------------------------------------------*/
  55:Src/stm32f0xx_hal_msp.c **** /* USER CODE BEGIN ExternalFunctions */
  56:Src/stm32f0xx_hal_msp.c **** 
  57:Src/stm32f0xx_hal_msp.c **** /* USER CODE END ExternalFunctions */
  58:Src/stm32f0xx_hal_msp.c **** 
  59:Src/stm32f0xx_hal_msp.c **** /* USER CODE BEGIN 0 */
  60:Src/stm32f0xx_hal_msp.c **** 
  61:Src/stm32f0xx_hal_msp.c **** /* USER CODE END 0 */
  62:Src/stm32f0xx_hal_msp.c **** 
  63:Src/stm32f0xx_hal_msp.c **** void HAL_TIM_MspPostInit(TIM_HandleTypeDef *htim);
  64:Src/stm32f0xx_hal_msp.c ****                                         /**
  65:Src/stm32f0xx_hal_msp.c ****   * Initializes the Global MSP.
  66:Src/stm32f0xx_hal_msp.c ****   */
  67:Src/stm32f0xx_hal_msp.c **** void HAL_MspInit(void)
  68:Src/stm32f0xx_hal_msp.c **** {
  27              		.loc 1 68 1 view -0
  28              		.cfi_startproc
  29              		@ args = 0, pretend = 0, frame = 8
  30              		@ frame_needed = 0, uses_anonymous_args = 0
  31              		@ link register save eliminated.
  32 0000 82B0     		sub	sp, sp, #8
  33              	.LCFI0:
  34              		.cfi_def_cfa_offset 8
  69:Src/stm32f0xx_hal_msp.c ****   /* USER CODE BEGIN MspInit 0 */
  70:Src/stm32f0xx_hal_msp.c **** 
  71:Src/stm32f0xx_hal_msp.c ****   /* USER CODE END MspInit 0 */
  72:Src/stm32f0xx_hal_msp.c **** 
  73:Src/stm32f0xx_hal_msp.c ****   __HAL_RCC_SYSCFG_CLK_ENABLE();
  35              		.loc 1 73 3 view .LVU1
  36              	.LBB2:
  37              		.loc 1 73 3 view .LVU2
  38              		.loc 1 73 3 view .LVU3
  39 0002 0A4B     		ldr	r3, .L2
  40 0004 9969     		ldr	r1, [r3, #24]
  41 0006 0122     		movs	r2, #1
  42 0008 1143     		orrs	r1, r2
ARM GAS  /tmp/ccUJMCfe.s 			page 3


  43 000a 9961     		str	r1, [r3, #24]
  44              		.loc 1 73 3 view .LVU4
  45 000c 9969     		ldr	r1, [r3, #24]
  46 000e 0A40     		ands	r2, r1
  47 0010 0092     		str	r2, [sp]
  48              		.loc 1 73 3 view .LVU5
  49 0012 009A     		ldr	r2, [sp]
  50              	.LBE2:
  51              		.loc 1 73 3 view .LVU6
  74:Src/stm32f0xx_hal_msp.c ****   __HAL_RCC_PWR_CLK_ENABLE();
  52              		.loc 1 74 3 view .LVU7
  53              	.LBB3:
  54              		.loc 1 74 3 view .LVU8
  55              		.loc 1 74 3 view .LVU9
  56 0014 DA69     		ldr	r2, [r3, #28]
  57 0016 8021     		movs	r1, #128
  58 0018 4905     		lsls	r1, r1, #21
  59 001a 0A43     		orrs	r2, r1
  60 001c DA61     		str	r2, [r3, #28]
  61              		.loc 1 74 3 view .LVU10
  62 001e DB69     		ldr	r3, [r3, #28]
  63 0020 0B40     		ands	r3, r1
  64 0022 0193     		str	r3, [sp, #4]
  65              		.loc 1 74 3 view .LVU11
  66 0024 019B     		ldr	r3, [sp, #4]
  67              	.LBE3:
  68              		.loc 1 74 3 view .LVU12
  75:Src/stm32f0xx_hal_msp.c **** 
  76:Src/stm32f0xx_hal_msp.c ****   /* System interrupt init*/
  77:Src/stm32f0xx_hal_msp.c **** 
  78:Src/stm32f0xx_hal_msp.c ****   /* USER CODE BEGIN MspInit 1 */
  79:Src/stm32f0xx_hal_msp.c **** 
  80:Src/stm32f0xx_hal_msp.c ****   /* USER CODE END MspInit 1 */
  81:Src/stm32f0xx_hal_msp.c **** }
  69              		.loc 1 81 1 is_stmt 0 view .LVU13
  70 0026 02B0     		add	sp, sp, #8
  71              		@ sp needed
  72 0028 7047     		bx	lr
  73              	.L3:
  74 002a C046     		.align	2
  75              	.L2:
  76 002c 00100240 		.word	1073876992
  77              		.cfi_endproc
  78              	.LFE40:
  80              		.section	.text.HAL_I2C_MspInit,"ax",%progbits
  81              		.align	1
  82              		.global	HAL_I2C_MspInit
  83              		.syntax unified
  84              		.code	16
  85              		.thumb_func
  86              		.fpu softvfp
  88              	HAL_I2C_MspInit:
  89              	.LVL0:
  90              	.LFB41:
  82:Src/stm32f0xx_hal_msp.c **** 
  83:Src/stm32f0xx_hal_msp.c **** /**
  84:Src/stm32f0xx_hal_msp.c **** * @brief I2C MSP Initialization
ARM GAS  /tmp/ccUJMCfe.s 			page 4


  85:Src/stm32f0xx_hal_msp.c **** * This function configures the hardware resources used in this example
  86:Src/stm32f0xx_hal_msp.c **** * @param hi2c: I2C handle pointer
  87:Src/stm32f0xx_hal_msp.c **** * @retval None
  88:Src/stm32f0xx_hal_msp.c **** */
  89:Src/stm32f0xx_hal_msp.c **** void HAL_I2C_MspInit(I2C_HandleTypeDef* hi2c)
  90:Src/stm32f0xx_hal_msp.c **** {
  91              		.loc 1 90 1 is_stmt 1 view -0
  92              		.cfi_startproc
  93              		@ args = 0, pretend = 0, frame = 32
  94              		@ frame_needed = 0, uses_anonymous_args = 0
  95              		.loc 1 90 1 is_stmt 0 view .LVU15
  96 0000 10B5     		push	{r4, lr}
  97              	.LCFI1:
  98              		.cfi_def_cfa_offset 8
  99              		.cfi_offset 4, -8
 100              		.cfi_offset 14, -4
 101 0002 88B0     		sub	sp, sp, #32
 102              	.LCFI2:
 103              		.cfi_def_cfa_offset 40
 104 0004 0400     		movs	r4, r0
  91:Src/stm32f0xx_hal_msp.c ****   GPIO_InitTypeDef GPIO_InitStruct = {0};
 105              		.loc 1 91 3 is_stmt 1 view .LVU16
 106              		.loc 1 91 20 is_stmt 0 view .LVU17
 107 0006 1422     		movs	r2, #20
 108 0008 0021     		movs	r1, #0
 109 000a 03A8     		add	r0, sp, #12
 110              	.LVL1:
 111              		.loc 1 91 20 view .LVU18
 112 000c FFF7FEFF 		bl	memset
 113              	.LVL2:
  92:Src/stm32f0xx_hal_msp.c ****   if(hi2c->Instance==I2C2)
 114              		.loc 1 92 3 is_stmt 1 view .LVU19
 115              		.loc 1 92 10 is_stmt 0 view .LVU20
 116 0010 2268     		ldr	r2, [r4]
 117              		.loc 1 92 5 view .LVU21
 118 0012 134B     		ldr	r3, .L7
 119 0014 9A42     		cmp	r2, r3
 120 0016 01D0     		beq	.L6
 121              	.LVL3:
 122              	.L4:
  93:Src/stm32f0xx_hal_msp.c ****   {
  94:Src/stm32f0xx_hal_msp.c ****   /* USER CODE BEGIN I2C2_MspInit 0 */
  95:Src/stm32f0xx_hal_msp.c **** 
  96:Src/stm32f0xx_hal_msp.c ****   /* USER CODE END I2C2_MspInit 0 */
  97:Src/stm32f0xx_hal_msp.c **** 
  98:Src/stm32f0xx_hal_msp.c ****     __HAL_RCC_GPIOB_CLK_ENABLE();
  99:Src/stm32f0xx_hal_msp.c ****     /**I2C2 GPIO Configuration
 100:Src/stm32f0xx_hal_msp.c ****     PB10     ------> I2C2_SCL
 101:Src/stm32f0xx_hal_msp.c ****     PB11     ------> I2C2_SDA
 102:Src/stm32f0xx_hal_msp.c ****     */
 103:Src/stm32f0xx_hal_msp.c ****     GPIO_InitStruct.Pin = ACC_SCL_Pin|ACC_SDA_Pin;
 104:Src/stm32f0xx_hal_msp.c ****     GPIO_InitStruct.Mode = GPIO_MODE_AF_OD;
 105:Src/stm32f0xx_hal_msp.c ****     GPIO_InitStruct.Pull = GPIO_PULLUP;
 106:Src/stm32f0xx_hal_msp.c ****     GPIO_InitStruct.Speed = GPIO_SPEED_FREQ_HIGH;
 107:Src/stm32f0xx_hal_msp.c ****     GPIO_InitStruct.Alternate = GPIO_AF1_I2C2;
 108:Src/stm32f0xx_hal_msp.c ****     HAL_GPIO_Init(GPIOB, &GPIO_InitStruct);
 109:Src/stm32f0xx_hal_msp.c **** 
ARM GAS  /tmp/ccUJMCfe.s 			page 5


 110:Src/stm32f0xx_hal_msp.c ****     /* Peripheral clock enable */
 111:Src/stm32f0xx_hal_msp.c ****     __HAL_RCC_I2C2_CLK_ENABLE();
 112:Src/stm32f0xx_hal_msp.c ****   /* USER CODE BEGIN I2C2_MspInit 1 */
 113:Src/stm32f0xx_hal_msp.c **** 
 114:Src/stm32f0xx_hal_msp.c ****   /* USER CODE END I2C2_MspInit 1 */
 115:Src/stm32f0xx_hal_msp.c ****   }
 116:Src/stm32f0xx_hal_msp.c **** 
 117:Src/stm32f0xx_hal_msp.c **** }
 123              		.loc 1 117 1 view .LVU22
 124 0018 08B0     		add	sp, sp, #32
 125              		@ sp needed
 126 001a 10BD     		pop	{r4, pc}
 127              	.LVL4:
 128              	.L6:
  98:Src/stm32f0xx_hal_msp.c ****     /**I2C2 GPIO Configuration
 129              		.loc 1 98 5 is_stmt 1 view .LVU23
 130              	.LBB4:
  98:Src/stm32f0xx_hal_msp.c ****     /**I2C2 GPIO Configuration
 131              		.loc 1 98 5 view .LVU24
  98:Src/stm32f0xx_hal_msp.c ****     /**I2C2 GPIO Configuration
 132              		.loc 1 98 5 view .LVU25
 133 001c 114C     		ldr	r4, .L7+4
 134              	.LVL5:
  98:Src/stm32f0xx_hal_msp.c ****     /**I2C2 GPIO Configuration
 135              		.loc 1 98 5 is_stmt 0 view .LVU26
 136 001e 6269     		ldr	r2, [r4, #20]
 137 0020 8021     		movs	r1, #128
 138 0022 C902     		lsls	r1, r1, #11
 139 0024 0A43     		orrs	r2, r1
 140 0026 6261     		str	r2, [r4, #20]
  98:Src/stm32f0xx_hal_msp.c ****     /**I2C2 GPIO Configuration
 141              		.loc 1 98 5 is_stmt 1 view .LVU27
 142 0028 6369     		ldr	r3, [r4, #20]
 143 002a 0B40     		ands	r3, r1
 144 002c 0193     		str	r3, [sp, #4]
  98:Src/stm32f0xx_hal_msp.c ****     /**I2C2 GPIO Configuration
 145              		.loc 1 98 5 view .LVU28
 146 002e 019B     		ldr	r3, [sp, #4]
 147              	.LBE4:
  98:Src/stm32f0xx_hal_msp.c ****     /**I2C2 GPIO Configuration
 148              		.loc 1 98 5 view .LVU29
 103:Src/stm32f0xx_hal_msp.c ****     GPIO_InitStruct.Mode = GPIO_MODE_AF_OD;
 149              		.loc 1 103 5 view .LVU30
 103:Src/stm32f0xx_hal_msp.c ****     GPIO_InitStruct.Mode = GPIO_MODE_AF_OD;
 150              		.loc 1 103 25 is_stmt 0 view .LVU31
 151 0030 C023     		movs	r3, #192
 152 0032 1B01     		lsls	r3, r3, #4
 153 0034 0393     		str	r3, [sp, #12]
 104:Src/stm32f0xx_hal_msp.c ****     GPIO_InitStruct.Pull = GPIO_PULLUP;
 154              		.loc 1 104 5 is_stmt 1 view .LVU32
 104:Src/stm32f0xx_hal_msp.c ****     GPIO_InitStruct.Pull = GPIO_PULLUP;
 155              		.loc 1 104 26 is_stmt 0 view .LVU33
 156 0036 1223     		movs	r3, #18
 157 0038 0493     		str	r3, [sp, #16]
 105:Src/stm32f0xx_hal_msp.c ****     GPIO_InitStruct.Speed = GPIO_SPEED_FREQ_HIGH;
 158              		.loc 1 105 5 is_stmt 1 view .LVU34
 105:Src/stm32f0xx_hal_msp.c ****     GPIO_InitStruct.Speed = GPIO_SPEED_FREQ_HIGH;
ARM GAS  /tmp/ccUJMCfe.s 			page 6


 159              		.loc 1 105 26 is_stmt 0 view .LVU35
 160 003a 113B     		subs	r3, r3, #17
 161 003c 0593     		str	r3, [sp, #20]
 106:Src/stm32f0xx_hal_msp.c ****     GPIO_InitStruct.Alternate = GPIO_AF1_I2C2;
 162              		.loc 1 106 5 is_stmt 1 view .LVU36
 106:Src/stm32f0xx_hal_msp.c ****     GPIO_InitStruct.Alternate = GPIO_AF1_I2C2;
 163              		.loc 1 106 27 is_stmt 0 view .LVU37
 164 003e 0322     		movs	r2, #3
 165 0040 0692     		str	r2, [sp, #24]
 107:Src/stm32f0xx_hal_msp.c ****     HAL_GPIO_Init(GPIOB, &GPIO_InitStruct);
 166              		.loc 1 107 5 is_stmt 1 view .LVU38
 107:Src/stm32f0xx_hal_msp.c ****     HAL_GPIO_Init(GPIOB, &GPIO_InitStruct);
 167              		.loc 1 107 31 is_stmt 0 view .LVU39
 168 0042 0793     		str	r3, [sp, #28]
 108:Src/stm32f0xx_hal_msp.c **** 
 169              		.loc 1 108 5 is_stmt 1 view .LVU40
 170 0044 03A9     		add	r1, sp, #12
 171 0046 0848     		ldr	r0, .L7+8
 172 0048 FFF7FEFF 		bl	HAL_GPIO_Init
 173              	.LVL6:
 111:Src/stm32f0xx_hal_msp.c ****   /* USER CODE BEGIN I2C2_MspInit 1 */
 174              		.loc 1 111 5 view .LVU41
 175              	.LBB5:
 111:Src/stm32f0xx_hal_msp.c ****   /* USER CODE BEGIN I2C2_MspInit 1 */
 176              		.loc 1 111 5 view .LVU42
 111:Src/stm32f0xx_hal_msp.c ****   /* USER CODE BEGIN I2C2_MspInit 1 */
 177              		.loc 1 111 5 view .LVU43
 178 004c E269     		ldr	r2, [r4, #28]
 179 004e 8021     		movs	r1, #128
 180 0050 C903     		lsls	r1, r1, #15
 181 0052 0A43     		orrs	r2, r1
 182 0054 E261     		str	r2, [r4, #28]
 111:Src/stm32f0xx_hal_msp.c ****   /* USER CODE BEGIN I2C2_MspInit 1 */
 183              		.loc 1 111 5 view .LVU44
 184 0056 E369     		ldr	r3, [r4, #28]
 185 0058 0B40     		ands	r3, r1
 186 005a 0293     		str	r3, [sp, #8]
 111:Src/stm32f0xx_hal_msp.c ****   /* USER CODE BEGIN I2C2_MspInit 1 */
 187              		.loc 1 111 5 view .LVU45
 188 005c 029B     		ldr	r3, [sp, #8]
 189              	.LBE5:
 111:Src/stm32f0xx_hal_msp.c ****   /* USER CODE BEGIN I2C2_MspInit 1 */
 190              		.loc 1 111 5 view .LVU46
 191              		.loc 1 117 1 is_stmt 0 view .LVU47
 192 005e DBE7     		b	.L4
 193              	.L8:
 194              		.align	2
 195              	.L7:
 196 0060 00580040 		.word	1073764352
 197 0064 00100240 		.word	1073876992
 198 0068 00040048 		.word	1207960576
 199              		.cfi_endproc
 200              	.LFE41:
 202              		.section	.text.HAL_I2C_MspDeInit,"ax",%progbits
 203              		.align	1
 204              		.global	HAL_I2C_MspDeInit
 205              		.syntax unified
ARM GAS  /tmp/ccUJMCfe.s 			page 7


 206              		.code	16
 207              		.thumb_func
 208              		.fpu softvfp
 210              	HAL_I2C_MspDeInit:
 211              	.LVL7:
 212              	.LFB42:
 118:Src/stm32f0xx_hal_msp.c **** 
 119:Src/stm32f0xx_hal_msp.c **** /**
 120:Src/stm32f0xx_hal_msp.c **** * @brief I2C MSP De-Initialization
 121:Src/stm32f0xx_hal_msp.c **** * This function freeze the hardware resources used in this example
 122:Src/stm32f0xx_hal_msp.c **** * @param hi2c: I2C handle pointer
 123:Src/stm32f0xx_hal_msp.c **** * @retval None
 124:Src/stm32f0xx_hal_msp.c **** */
 125:Src/stm32f0xx_hal_msp.c **** void HAL_I2C_MspDeInit(I2C_HandleTypeDef* hi2c)
 126:Src/stm32f0xx_hal_msp.c **** {
 213              		.loc 1 126 1 is_stmt 1 view -0
 214              		.cfi_startproc
 215              		@ args = 0, pretend = 0, frame = 0
 216              		@ frame_needed = 0, uses_anonymous_args = 0
 217              		.loc 1 126 1 is_stmt 0 view .LVU49
 218 0000 10B5     		push	{r4, lr}
 219              	.LCFI3:
 220              		.cfi_def_cfa_offset 8
 221              		.cfi_offset 4, -8
 222              		.cfi_offset 14, -4
 127:Src/stm32f0xx_hal_msp.c ****   if(hi2c->Instance==I2C2)
 223              		.loc 1 127 3 is_stmt 1 view .LVU50
 224              		.loc 1 127 10 is_stmt 0 view .LVU51
 225 0002 0268     		ldr	r2, [r0]
 226              		.loc 1 127 5 view .LVU52
 227 0004 074B     		ldr	r3, .L12
 228 0006 9A42     		cmp	r2, r3
 229 0008 00D0     		beq	.L11
 230              	.LVL8:
 231              	.L9:
 128:Src/stm32f0xx_hal_msp.c ****   {
 129:Src/stm32f0xx_hal_msp.c ****   /* USER CODE BEGIN I2C2_MspDeInit 0 */
 130:Src/stm32f0xx_hal_msp.c **** 
 131:Src/stm32f0xx_hal_msp.c ****   /* USER CODE END I2C2_MspDeInit 0 */
 132:Src/stm32f0xx_hal_msp.c ****     /* Peripheral clock disable */
 133:Src/stm32f0xx_hal_msp.c ****     __HAL_RCC_I2C2_CLK_DISABLE();
 134:Src/stm32f0xx_hal_msp.c **** 
 135:Src/stm32f0xx_hal_msp.c ****     /**I2C2 GPIO Configuration
 136:Src/stm32f0xx_hal_msp.c ****     PB10     ------> I2C2_SCL
 137:Src/stm32f0xx_hal_msp.c ****     PB11     ------> I2C2_SDA
 138:Src/stm32f0xx_hal_msp.c ****     */
 139:Src/stm32f0xx_hal_msp.c ****     HAL_GPIO_DeInit(GPIOB, ACC_SCL_Pin|ACC_SDA_Pin);
 140:Src/stm32f0xx_hal_msp.c **** 
 141:Src/stm32f0xx_hal_msp.c ****   /* USER CODE BEGIN I2C2_MspDeInit 1 */
 142:Src/stm32f0xx_hal_msp.c **** 
 143:Src/stm32f0xx_hal_msp.c ****   /* USER CODE END I2C2_MspDeInit 1 */
 144:Src/stm32f0xx_hal_msp.c ****   }
 145:Src/stm32f0xx_hal_msp.c **** 
 146:Src/stm32f0xx_hal_msp.c **** }
 232              		.loc 1 146 1 view .LVU53
 233              		@ sp needed
 234 000a 10BD     		pop	{r4, pc}
ARM GAS  /tmp/ccUJMCfe.s 			page 8


 235              	.LVL9:
 236              	.L11:
 133:Src/stm32f0xx_hal_msp.c **** 
 237              		.loc 1 133 5 is_stmt 1 view .LVU54
 238 000c 064A     		ldr	r2, .L12+4
 239 000e D369     		ldr	r3, [r2, #28]
 240 0010 0649     		ldr	r1, .L12+8
 241 0012 0B40     		ands	r3, r1
 242 0014 D361     		str	r3, [r2, #28]
 139:Src/stm32f0xx_hal_msp.c **** 
 243              		.loc 1 139 5 view .LVU55
 244 0016 C021     		movs	r1, #192
 245 0018 0901     		lsls	r1, r1, #4
 246 001a 0548     		ldr	r0, .L12+12
 247              	.LVL10:
 139:Src/stm32f0xx_hal_msp.c **** 
 248              		.loc 1 139 5 is_stmt 0 view .LVU56
 249 001c FFF7FEFF 		bl	HAL_GPIO_DeInit
 250              	.LVL11:
 251              		.loc 1 146 1 view .LVU57
 252 0020 F3E7     		b	.L9
 253              	.L13:
 254 0022 C046     		.align	2
 255              	.L12:
 256 0024 00580040 		.word	1073764352
 257 0028 00100240 		.word	1073876992
 258 002c FFFFBFFF 		.word	-4194305
 259 0030 00040048 		.word	1207960576
 260              		.cfi_endproc
 261              	.LFE42:
 263              		.section	.text.HAL_SPI_MspInit,"ax",%progbits
 264              		.align	1
 265              		.global	HAL_SPI_MspInit
 266              		.syntax unified
 267              		.code	16
 268              		.thumb_func
 269              		.fpu softvfp
 271              	HAL_SPI_MspInit:
 272              	.LVL12:
 273              	.LFB43:
 147:Src/stm32f0xx_hal_msp.c **** 
 148:Src/stm32f0xx_hal_msp.c **** /**
 149:Src/stm32f0xx_hal_msp.c **** * @brief SPI MSP Initialization
 150:Src/stm32f0xx_hal_msp.c **** * This function configures the hardware resources used in this example
 151:Src/stm32f0xx_hal_msp.c **** * @param hspi: SPI handle pointer
 152:Src/stm32f0xx_hal_msp.c **** * @retval None
 153:Src/stm32f0xx_hal_msp.c **** */
 154:Src/stm32f0xx_hal_msp.c **** void HAL_SPI_MspInit(SPI_HandleTypeDef* hspi)
 155:Src/stm32f0xx_hal_msp.c **** {
 274              		.loc 1 155 1 is_stmt 1 view -0
 275              		.cfi_startproc
 276              		@ args = 0, pretend = 0, frame = 32
 277              		@ frame_needed = 0, uses_anonymous_args = 0
 278              		.loc 1 155 1 is_stmt 0 view .LVU59
 279 0000 70B5     		push	{r4, r5, r6, lr}
 280              	.LCFI4:
 281              		.cfi_def_cfa_offset 16
ARM GAS  /tmp/ccUJMCfe.s 			page 9


 282              		.cfi_offset 4, -16
 283              		.cfi_offset 5, -12
 284              		.cfi_offset 6, -8
 285              		.cfi_offset 14, -4
 286 0002 88B0     		sub	sp, sp, #32
 287              	.LCFI5:
 288              		.cfi_def_cfa_offset 48
 289 0004 0400     		movs	r4, r0
 156:Src/stm32f0xx_hal_msp.c ****   GPIO_InitTypeDef GPIO_InitStruct = {0};
 290              		.loc 1 156 3 is_stmt 1 view .LVU60
 291              		.loc 1 156 20 is_stmt 0 view .LVU61
 292 0006 1422     		movs	r2, #20
 293 0008 0021     		movs	r1, #0
 294 000a 03A8     		add	r0, sp, #12
 295              	.LVL13:
 296              		.loc 1 156 20 view .LVU62
 297 000c FFF7FEFF 		bl	memset
 298              	.LVL14:
 157:Src/stm32f0xx_hal_msp.c ****   if(hspi->Instance==SPI1)
 299              		.loc 1 157 3 is_stmt 1 view .LVU63
 300              		.loc 1 157 5 is_stmt 0 view .LVU64
 301 0010 1E4B     		ldr	r3, .L19
 302 0012 2268     		ldr	r2, [r4]
 303 0014 9A42     		cmp	r2, r3
 304 0016 01D0     		beq	.L17
 305              	.L14:
 158:Src/stm32f0xx_hal_msp.c ****   {
 159:Src/stm32f0xx_hal_msp.c ****   /* USER CODE BEGIN SPI1_MspInit 0 */
 160:Src/stm32f0xx_hal_msp.c **** 
 161:Src/stm32f0xx_hal_msp.c ****   /* USER CODE END SPI1_MspInit 0 */
 162:Src/stm32f0xx_hal_msp.c ****     /* Peripheral clock enable */
 163:Src/stm32f0xx_hal_msp.c ****     __HAL_RCC_SPI1_CLK_ENABLE();
 164:Src/stm32f0xx_hal_msp.c **** 
 165:Src/stm32f0xx_hal_msp.c ****     __HAL_RCC_GPIOB_CLK_ENABLE();
 166:Src/stm32f0xx_hal_msp.c ****     /**SPI1 GPIO Configuration
 167:Src/stm32f0xx_hal_msp.c ****     PB3     ------> SPI1_SCK
 168:Src/stm32f0xx_hal_msp.c ****     PB5     ------> SPI1_MOSI
 169:Src/stm32f0xx_hal_msp.c ****     */
 170:Src/stm32f0xx_hal_msp.c ****     GPIO_InitStruct.Pin = IPS_SCK_Pin|IPS_MOSI_Pin;
 171:Src/stm32f0xx_hal_msp.c ****     GPIO_InitStruct.Mode = GPIO_MODE_AF_PP;
 172:Src/stm32f0xx_hal_msp.c ****     GPIO_InitStruct.Pull = GPIO_NOPULL;
 173:Src/stm32f0xx_hal_msp.c ****     GPIO_InitStruct.Speed = GPIO_SPEED_FREQ_HIGH;
 174:Src/stm32f0xx_hal_msp.c ****     GPIO_InitStruct.Alternate = GPIO_AF0_SPI1;
 175:Src/stm32f0xx_hal_msp.c ****     HAL_GPIO_Init(GPIOB, &GPIO_InitStruct);
 176:Src/stm32f0xx_hal_msp.c **** 
 177:Src/stm32f0xx_hal_msp.c ****     /* SPI1 DMA Init */
 178:Src/stm32f0xx_hal_msp.c ****     /* SPI1_TX Init */
 179:Src/stm32f0xx_hal_msp.c ****     hdma_spi1_tx.Instance = DMA1_Channel3;
 180:Src/stm32f0xx_hal_msp.c ****     hdma_spi1_tx.Init.Direction = DMA_MEMORY_TO_PERIPH;
 181:Src/stm32f0xx_hal_msp.c ****     hdma_spi1_tx.Init.PeriphInc = DMA_PINC_DISABLE;
 182:Src/stm32f0xx_hal_msp.c ****     hdma_spi1_tx.Init.MemInc = DMA_MINC_ENABLE;
 183:Src/stm32f0xx_hal_msp.c ****     hdma_spi1_tx.Init.PeriphDataAlignment = DMA_PDATAALIGN_BYTE;
 184:Src/stm32f0xx_hal_msp.c ****     hdma_spi1_tx.Init.MemDataAlignment = DMA_MDATAALIGN_BYTE;
 185:Src/stm32f0xx_hal_msp.c ****     hdma_spi1_tx.Init.Mode = DMA_NORMAL;
 186:Src/stm32f0xx_hal_msp.c ****     hdma_spi1_tx.Init.Priority = DMA_PRIORITY_MEDIUM;
 187:Src/stm32f0xx_hal_msp.c ****     if (HAL_DMA_Init(&hdma_spi1_tx) != HAL_OK)
 188:Src/stm32f0xx_hal_msp.c ****     {
ARM GAS  /tmp/ccUJMCfe.s 			page 10


 189:Src/stm32f0xx_hal_msp.c ****       Error_Handler();
 190:Src/stm32f0xx_hal_msp.c ****     }
 191:Src/stm32f0xx_hal_msp.c **** 
 192:Src/stm32f0xx_hal_msp.c ****     __HAL_LINKDMA(hspi,hdmatx,hdma_spi1_tx);
 193:Src/stm32f0xx_hal_msp.c **** 
 194:Src/stm32f0xx_hal_msp.c ****   /* USER CODE BEGIN SPI1_MspInit 1 */
 195:Src/stm32f0xx_hal_msp.c **** 
 196:Src/stm32f0xx_hal_msp.c ****   /* USER CODE END SPI1_MspInit 1 */
 197:Src/stm32f0xx_hal_msp.c ****   }
 198:Src/stm32f0xx_hal_msp.c **** 
 199:Src/stm32f0xx_hal_msp.c **** }
 306              		.loc 1 199 1 view .LVU65
 307 0018 08B0     		add	sp, sp, #32
 308              		@ sp needed
 309              	.LVL15:
 310              		.loc 1 199 1 view .LVU66
 311 001a 70BD     		pop	{r4, r5, r6, pc}
 312              	.LVL16:
 313              	.L17:
 163:Src/stm32f0xx_hal_msp.c **** 
 314              		.loc 1 163 5 is_stmt 1 view .LVU67
 315              	.LBB6:
 163:Src/stm32f0xx_hal_msp.c **** 
 316              		.loc 1 163 5 view .LVU68
 163:Src/stm32f0xx_hal_msp.c **** 
 317              		.loc 1 163 5 view .LVU69
 318 001c 1C4B     		ldr	r3, .L19+4
 319 001e 9A69     		ldr	r2, [r3, #24]
 320 0020 8026     		movs	r6, #128
 321 0022 7601     		lsls	r6, r6, #5
 322 0024 3243     		orrs	r2, r6
 323 0026 9A61     		str	r2, [r3, #24]
 163:Src/stm32f0xx_hal_msp.c **** 
 324              		.loc 1 163 5 view .LVU70
 325 0028 9A69     		ldr	r2, [r3, #24]
 326 002a 3240     		ands	r2, r6
 327 002c 0192     		str	r2, [sp, #4]
 163:Src/stm32f0xx_hal_msp.c **** 
 328              		.loc 1 163 5 view .LVU71
 329 002e 019A     		ldr	r2, [sp, #4]
 330              	.LBE6:
 163:Src/stm32f0xx_hal_msp.c **** 
 331              		.loc 1 163 5 view .LVU72
 165:Src/stm32f0xx_hal_msp.c ****     /**SPI1 GPIO Configuration
 332              		.loc 1 165 5 view .LVU73
 333              	.LBB7:
 165:Src/stm32f0xx_hal_msp.c ****     /**SPI1 GPIO Configuration
 334              		.loc 1 165 5 view .LVU74
 165:Src/stm32f0xx_hal_msp.c ****     /**SPI1 GPIO Configuration
 335              		.loc 1 165 5 view .LVU75
 336 0030 5A69     		ldr	r2, [r3, #20]
 337 0032 8021     		movs	r1, #128
 338 0034 C902     		lsls	r1, r1, #11
 339 0036 0A43     		orrs	r2, r1
 340 0038 5A61     		str	r2, [r3, #20]
 165:Src/stm32f0xx_hal_msp.c ****     /**SPI1 GPIO Configuration
 341              		.loc 1 165 5 view .LVU76
ARM GAS  /tmp/ccUJMCfe.s 			page 11


 342 003a 5B69     		ldr	r3, [r3, #20]
 343 003c 0B40     		ands	r3, r1
 344 003e 0293     		str	r3, [sp, #8]
 165:Src/stm32f0xx_hal_msp.c ****     /**SPI1 GPIO Configuration
 345              		.loc 1 165 5 view .LVU77
 346 0040 029B     		ldr	r3, [sp, #8]
 347              	.LBE7:
 165:Src/stm32f0xx_hal_msp.c ****     /**SPI1 GPIO Configuration
 348              		.loc 1 165 5 view .LVU78
 170:Src/stm32f0xx_hal_msp.c ****     GPIO_InitStruct.Mode = GPIO_MODE_AF_PP;
 349              		.loc 1 170 5 view .LVU79
 170:Src/stm32f0xx_hal_msp.c ****     GPIO_InitStruct.Mode = GPIO_MODE_AF_PP;
 350              		.loc 1 170 25 is_stmt 0 view .LVU80
 351 0042 2823     		movs	r3, #40
 352 0044 0393     		str	r3, [sp, #12]
 171:Src/stm32f0xx_hal_msp.c ****     GPIO_InitStruct.Pull = GPIO_NOPULL;
 353              		.loc 1 171 5 is_stmt 1 view .LVU81
 171:Src/stm32f0xx_hal_msp.c ****     GPIO_InitStruct.Pull = GPIO_NOPULL;
 354              		.loc 1 171 26 is_stmt 0 view .LVU82
 355 0046 263B     		subs	r3, r3, #38
 356 0048 0493     		str	r3, [sp, #16]
 172:Src/stm32f0xx_hal_msp.c ****     GPIO_InitStruct.Speed = GPIO_SPEED_FREQ_HIGH;
 357              		.loc 1 172 5 is_stmt 1 view .LVU83
 172:Src/stm32f0xx_hal_msp.c ****     GPIO_InitStruct.Speed = GPIO_SPEED_FREQ_HIGH;
 358              		.loc 1 172 26 is_stmt 0 view .LVU84
 359 004a 0025     		movs	r5, #0
 360 004c 0595     		str	r5, [sp, #20]
 173:Src/stm32f0xx_hal_msp.c ****     GPIO_InitStruct.Alternate = GPIO_AF0_SPI1;
 361              		.loc 1 173 5 is_stmt 1 view .LVU85
 173:Src/stm32f0xx_hal_msp.c ****     GPIO_InitStruct.Alternate = GPIO_AF0_SPI1;
 362              		.loc 1 173 27 is_stmt 0 view .LVU86
 363 004e 0133     		adds	r3, r3, #1
 364 0050 0693     		str	r3, [sp, #24]
 174:Src/stm32f0xx_hal_msp.c ****     HAL_GPIO_Init(GPIOB, &GPIO_InitStruct);
 365              		.loc 1 174 5 is_stmt 1 view .LVU87
 174:Src/stm32f0xx_hal_msp.c ****     HAL_GPIO_Init(GPIOB, &GPIO_InitStruct);
 366              		.loc 1 174 31 is_stmt 0 view .LVU88
 367 0052 0795     		str	r5, [sp, #28]
 175:Src/stm32f0xx_hal_msp.c **** 
 368              		.loc 1 175 5 is_stmt 1 view .LVU89
 369 0054 03A9     		add	r1, sp, #12
 370 0056 0F48     		ldr	r0, .L19+8
 371 0058 FFF7FEFF 		bl	HAL_GPIO_Init
 372              	.LVL17:
 179:Src/stm32f0xx_hal_msp.c ****     hdma_spi1_tx.Init.Direction = DMA_MEMORY_TO_PERIPH;
 373              		.loc 1 179 5 view .LVU90
 179:Src/stm32f0xx_hal_msp.c ****     hdma_spi1_tx.Init.Direction = DMA_MEMORY_TO_PERIPH;
 374              		.loc 1 179 27 is_stmt 0 view .LVU91
 375 005c 0E48     		ldr	r0, .L19+12
 376 005e 0F4B     		ldr	r3, .L19+16
 377 0060 0360     		str	r3, [r0]
 180:Src/stm32f0xx_hal_msp.c ****     hdma_spi1_tx.Init.PeriphInc = DMA_PINC_DISABLE;
 378              		.loc 1 180 5 is_stmt 1 view .LVU92
 180:Src/stm32f0xx_hal_msp.c ****     hdma_spi1_tx.Init.PeriphInc = DMA_PINC_DISABLE;
 379              		.loc 1 180 33 is_stmt 0 view .LVU93
 380 0062 1023     		movs	r3, #16
 381 0064 4360     		str	r3, [r0, #4]
ARM GAS  /tmp/ccUJMCfe.s 			page 12


 181:Src/stm32f0xx_hal_msp.c ****     hdma_spi1_tx.Init.MemInc = DMA_MINC_ENABLE;
 382              		.loc 1 181 5 is_stmt 1 view .LVU94
 181:Src/stm32f0xx_hal_msp.c ****     hdma_spi1_tx.Init.MemInc = DMA_MINC_ENABLE;
 383              		.loc 1 181 33 is_stmt 0 view .LVU95
 384 0066 8560     		str	r5, [r0, #8]
 182:Src/stm32f0xx_hal_msp.c ****     hdma_spi1_tx.Init.PeriphDataAlignment = DMA_PDATAALIGN_BYTE;
 385              		.loc 1 182 5 is_stmt 1 view .LVU96
 182:Src/stm32f0xx_hal_msp.c ****     hdma_spi1_tx.Init.PeriphDataAlignment = DMA_PDATAALIGN_BYTE;
 386              		.loc 1 182 30 is_stmt 0 view .LVU97
 387 0068 7033     		adds	r3, r3, #112
 388 006a C360     		str	r3, [r0, #12]
 183:Src/stm32f0xx_hal_msp.c ****     hdma_spi1_tx.Init.MemDataAlignment = DMA_MDATAALIGN_BYTE;
 389              		.loc 1 183 5 is_stmt 1 view .LVU98
 183:Src/stm32f0xx_hal_msp.c ****     hdma_spi1_tx.Init.MemDataAlignment = DMA_MDATAALIGN_BYTE;
 390              		.loc 1 183 43 is_stmt 0 view .LVU99
 391 006c 0561     		str	r5, [r0, #16]
 184:Src/stm32f0xx_hal_msp.c ****     hdma_spi1_tx.Init.Mode = DMA_NORMAL;
 392              		.loc 1 184 5 is_stmt 1 view .LVU100
 184:Src/stm32f0xx_hal_msp.c ****     hdma_spi1_tx.Init.Mode = DMA_NORMAL;
 393              		.loc 1 184 40 is_stmt 0 view .LVU101
 394 006e 4561     		str	r5, [r0, #20]
 185:Src/stm32f0xx_hal_msp.c ****     hdma_spi1_tx.Init.Priority = DMA_PRIORITY_MEDIUM;
 395              		.loc 1 185 5 is_stmt 1 view .LVU102
 185:Src/stm32f0xx_hal_msp.c ****     hdma_spi1_tx.Init.Priority = DMA_PRIORITY_MEDIUM;
 396              		.loc 1 185 28 is_stmt 0 view .LVU103
 397 0070 8561     		str	r5, [r0, #24]
 186:Src/stm32f0xx_hal_msp.c ****     if (HAL_DMA_Init(&hdma_spi1_tx) != HAL_OK)
 398              		.loc 1 186 5 is_stmt 1 view .LVU104
 186:Src/stm32f0xx_hal_msp.c ****     if (HAL_DMA_Init(&hdma_spi1_tx) != HAL_OK)
 399              		.loc 1 186 32 is_stmt 0 view .LVU105
 400 0072 C661     		str	r6, [r0, #28]
 187:Src/stm32f0xx_hal_msp.c ****     {
 401              		.loc 1 187 5 is_stmt 1 view .LVU106
 187:Src/stm32f0xx_hal_msp.c ****     {
 402              		.loc 1 187 9 is_stmt 0 view .LVU107
 403 0074 FFF7FEFF 		bl	HAL_DMA_Init
 404              	.LVL18:
 187:Src/stm32f0xx_hal_msp.c ****     {
 405              		.loc 1 187 8 view .LVU108
 406 0078 0028     		cmp	r0, #0
 407 007a 03D1     		bne	.L18
 408              	.L16:
 192:Src/stm32f0xx_hal_msp.c **** 
 409              		.loc 1 192 5 is_stmt 1 view .LVU109
 192:Src/stm32f0xx_hal_msp.c **** 
 410              		.loc 1 192 5 view .LVU110
 411 007c 064B     		ldr	r3, .L19+12
 412 007e 6365     		str	r3, [r4, #84]
 192:Src/stm32f0xx_hal_msp.c **** 
 413              		.loc 1 192 5 view .LVU111
 414 0080 5C62     		str	r4, [r3, #36]
 192:Src/stm32f0xx_hal_msp.c **** 
 415              		.loc 1 192 5 view .LVU112
 416              		.loc 1 199 1 is_stmt 0 view .LVU113
 417 0082 C9E7     		b	.L14
 418              	.L18:
 189:Src/stm32f0xx_hal_msp.c ****     }
ARM GAS  /tmp/ccUJMCfe.s 			page 13


 419              		.loc 1 189 7 is_stmt 1 view .LVU114
 420 0084 FFF7FEFF 		bl	Error_Handler
 421              	.LVL19:
 422 0088 F8E7     		b	.L16
 423              	.L20:
 424 008a C046     		.align	2
 425              	.L19:
 426 008c 00300140 		.word	1073819648
 427 0090 00100240 		.word	1073876992
 428 0094 00040048 		.word	1207960576
 429 0098 00000000 		.word	hdma_spi1_tx
 430 009c 30000240 		.word	1073872944
 431              		.cfi_endproc
 432              	.LFE43:
 434              		.section	.text.HAL_SPI_MspDeInit,"ax",%progbits
 435              		.align	1
 436              		.global	HAL_SPI_MspDeInit
 437              		.syntax unified
 438              		.code	16
 439              		.thumb_func
 440              		.fpu softvfp
 442              	HAL_SPI_MspDeInit:
 443              	.LVL20:
 444              	.LFB44:
 200:Src/stm32f0xx_hal_msp.c **** 
 201:Src/stm32f0xx_hal_msp.c **** /**
 202:Src/stm32f0xx_hal_msp.c **** * @brief SPI MSP De-Initialization
 203:Src/stm32f0xx_hal_msp.c **** * This function freeze the hardware resources used in this example
 204:Src/stm32f0xx_hal_msp.c **** * @param hspi: SPI handle pointer
 205:Src/stm32f0xx_hal_msp.c **** * @retval None
 206:Src/stm32f0xx_hal_msp.c **** */
 207:Src/stm32f0xx_hal_msp.c **** void HAL_SPI_MspDeInit(SPI_HandleTypeDef* hspi)
 208:Src/stm32f0xx_hal_msp.c **** {
 445              		.loc 1 208 1 view -0
 446              		.cfi_startproc
 447              		@ args = 0, pretend = 0, frame = 0
 448              		@ frame_needed = 0, uses_anonymous_args = 0
 449              		.loc 1 208 1 is_stmt 0 view .LVU116
 450 0000 10B5     		push	{r4, lr}
 451              	.LCFI6:
 452              		.cfi_def_cfa_offset 8
 453              		.cfi_offset 4, -8
 454              		.cfi_offset 14, -4
 455 0002 0400     		movs	r4, r0
 209:Src/stm32f0xx_hal_msp.c ****   if(hspi->Instance==SPI1)
 456              		.loc 1 209 3 is_stmt 1 view .LVU117
 457              		.loc 1 209 5 is_stmt 0 view .LVU118
 458 0004 084B     		ldr	r3, .L24
 459 0006 0268     		ldr	r2, [r0]
 460 0008 9A42     		cmp	r2, r3
 461 000a 00D0     		beq	.L23
 462              	.LVL21:
 463              	.L21:
 210:Src/stm32f0xx_hal_msp.c ****   {
 211:Src/stm32f0xx_hal_msp.c ****   /* USER CODE BEGIN SPI1_MspDeInit 0 */
 212:Src/stm32f0xx_hal_msp.c **** 
 213:Src/stm32f0xx_hal_msp.c ****   /* USER CODE END SPI1_MspDeInit 0 */
ARM GAS  /tmp/ccUJMCfe.s 			page 14


 214:Src/stm32f0xx_hal_msp.c ****     /* Peripheral clock disable */
 215:Src/stm32f0xx_hal_msp.c ****     __HAL_RCC_SPI1_CLK_DISABLE();
 216:Src/stm32f0xx_hal_msp.c **** 
 217:Src/stm32f0xx_hal_msp.c ****     /**SPI1 GPIO Configuration
 218:Src/stm32f0xx_hal_msp.c ****     PB3     ------> SPI1_SCK
 219:Src/stm32f0xx_hal_msp.c ****     PB5     ------> SPI1_MOSI
 220:Src/stm32f0xx_hal_msp.c ****     */
 221:Src/stm32f0xx_hal_msp.c ****     HAL_GPIO_DeInit(GPIOB, IPS_SCK_Pin|IPS_MOSI_Pin);
 222:Src/stm32f0xx_hal_msp.c **** 
 223:Src/stm32f0xx_hal_msp.c ****     /* SPI1 DMA DeInit */
 224:Src/stm32f0xx_hal_msp.c ****     HAL_DMA_DeInit(hspi->hdmatx);
 225:Src/stm32f0xx_hal_msp.c ****   /* USER CODE BEGIN SPI1_MspDeInit 1 */
 226:Src/stm32f0xx_hal_msp.c **** 
 227:Src/stm32f0xx_hal_msp.c ****   /* USER CODE END SPI1_MspDeInit 1 */
 228:Src/stm32f0xx_hal_msp.c ****   }
 229:Src/stm32f0xx_hal_msp.c **** 
 230:Src/stm32f0xx_hal_msp.c **** }
 464              		.loc 1 230 1 view .LVU119
 465              		@ sp needed
 466              	.LVL22:
 467              		.loc 1 230 1 view .LVU120
 468 000c 10BD     		pop	{r4, pc}
 469              	.LVL23:
 470              	.L23:
 215:Src/stm32f0xx_hal_msp.c **** 
 471              		.loc 1 215 5 is_stmt 1 view .LVU121
 472 000e 074A     		ldr	r2, .L24+4
 473 0010 9369     		ldr	r3, [r2, #24]
 474 0012 0749     		ldr	r1, .L24+8
 475 0014 0B40     		ands	r3, r1
 476 0016 9361     		str	r3, [r2, #24]
 221:Src/stm32f0xx_hal_msp.c **** 
 477              		.loc 1 221 5 view .LVU122
 478 0018 2821     		movs	r1, #40
 479 001a 0648     		ldr	r0, .L24+12
 480              	.LVL24:
 221:Src/stm32f0xx_hal_msp.c **** 
 481              		.loc 1 221 5 is_stmt 0 view .LVU123
 482 001c FFF7FEFF 		bl	HAL_GPIO_DeInit
 483              	.LVL25:
 224:Src/stm32f0xx_hal_msp.c ****   /* USER CODE BEGIN SPI1_MspDeInit 1 */
 484              		.loc 1 224 5 is_stmt 1 view .LVU124
 485 0020 606D     		ldr	r0, [r4, #84]
 486 0022 FFF7FEFF 		bl	HAL_DMA_DeInit
 487              	.LVL26:
 488              		.loc 1 230 1 is_stmt 0 view .LVU125
 489 0026 F1E7     		b	.L21
 490              	.L25:
 491              		.align	2
 492              	.L24:
 493 0028 00300140 		.word	1073819648
 494 002c 00100240 		.word	1073876992
 495 0030 FFEFFFFF 		.word	-4097
 496 0034 00040048 		.word	1207960576
 497              		.cfi_endproc
 498              	.LFE44:
 500              		.section	.text.HAL_TIM_Base_MspInit,"ax",%progbits
ARM GAS  /tmp/ccUJMCfe.s 			page 15


 501              		.align	1
 502              		.global	HAL_TIM_Base_MspInit
 503              		.syntax unified
 504              		.code	16
 505              		.thumb_func
 506              		.fpu softvfp
 508              	HAL_TIM_Base_MspInit:
 509              	.LVL27:
 510              	.LFB45:
 231:Src/stm32f0xx_hal_msp.c **** 
 232:Src/stm32f0xx_hal_msp.c **** /**
 233:Src/stm32f0xx_hal_msp.c **** * @brief TIM_Base MSP Initialization
 234:Src/stm32f0xx_hal_msp.c **** * This function configures the hardware resources used in this example
 235:Src/stm32f0xx_hal_msp.c **** * @param htim_base: TIM_Base handle pointer
 236:Src/stm32f0xx_hal_msp.c **** * @retval None
 237:Src/stm32f0xx_hal_msp.c **** */
 238:Src/stm32f0xx_hal_msp.c **** void HAL_TIM_Base_MspInit(TIM_HandleTypeDef* htim_base)
 239:Src/stm32f0xx_hal_msp.c **** {
 511              		.loc 1 239 1 is_stmt 1 view -0
 512              		.cfi_startproc
 513              		@ args = 0, pretend = 0, frame = 8
 514              		@ frame_needed = 0, uses_anonymous_args = 0
 515              		@ link register save eliminated.
 516              		.loc 1 239 1 is_stmt 0 view .LVU127
 517 0000 82B0     		sub	sp, sp, #8
 518              	.LCFI7:
 519              		.cfi_def_cfa_offset 8
 240:Src/stm32f0xx_hal_msp.c ****   if(htim_base->Instance==TIM1)
 520              		.loc 1 240 3 is_stmt 1 view .LVU128
 521              		.loc 1 240 15 is_stmt 0 view .LVU129
 522 0002 0368     		ldr	r3, [r0]
 523              		.loc 1 240 5 view .LVU130
 524 0004 0E4A     		ldr	r2, .L31
 525 0006 9342     		cmp	r3, r2
 526 0008 04D0     		beq	.L29
 241:Src/stm32f0xx_hal_msp.c ****   {
 242:Src/stm32f0xx_hal_msp.c ****   /* USER CODE BEGIN TIM1_MspInit 0 */
 243:Src/stm32f0xx_hal_msp.c **** 
 244:Src/stm32f0xx_hal_msp.c ****   /* USER CODE END TIM1_MspInit 0 */
 245:Src/stm32f0xx_hal_msp.c ****     /* Peripheral clock enable */
 246:Src/stm32f0xx_hal_msp.c ****     __HAL_RCC_TIM1_CLK_ENABLE();
 247:Src/stm32f0xx_hal_msp.c ****   /* USER CODE BEGIN TIM1_MspInit 1 */
 248:Src/stm32f0xx_hal_msp.c **** 
 249:Src/stm32f0xx_hal_msp.c ****   /* USER CODE END TIM1_MspInit 1 */
 250:Src/stm32f0xx_hal_msp.c ****   }
 251:Src/stm32f0xx_hal_msp.c ****   else if(htim_base->Instance==TIM16)
 527              		.loc 1 251 8 is_stmt 1 view .LVU131
 528              		.loc 1 251 10 is_stmt 0 view .LVU132
 529 000a 0E4A     		ldr	r2, .L31+4
 530 000c 9342     		cmp	r3, r2
 531 000e 0CD0     		beq	.L30
 532              	.LVL28:
 533              	.L26:
 252:Src/stm32f0xx_hal_msp.c ****   {
 253:Src/stm32f0xx_hal_msp.c ****   /* USER CODE BEGIN TIM16_MspInit 0 */
 254:Src/stm32f0xx_hal_msp.c **** 
 255:Src/stm32f0xx_hal_msp.c ****   /* USER CODE END TIM16_MspInit 0 */
ARM GAS  /tmp/ccUJMCfe.s 			page 16


 256:Src/stm32f0xx_hal_msp.c ****     /* Peripheral clock enable */
 257:Src/stm32f0xx_hal_msp.c ****     __HAL_RCC_TIM16_CLK_ENABLE();
 258:Src/stm32f0xx_hal_msp.c ****   /* USER CODE BEGIN TIM16_MspInit 1 */
 259:Src/stm32f0xx_hal_msp.c **** 
 260:Src/stm32f0xx_hal_msp.c ****   /* USER CODE END TIM16_MspInit 1 */
 261:Src/stm32f0xx_hal_msp.c ****   }
 262:Src/stm32f0xx_hal_msp.c **** 
 263:Src/stm32f0xx_hal_msp.c **** }
 534              		.loc 1 263 1 view .LVU133
 535 0010 02B0     		add	sp, sp, #8
 536              		@ sp needed
 537 0012 7047     		bx	lr
 538              	.LVL29:
 539              	.L29:
 246:Src/stm32f0xx_hal_msp.c ****   /* USER CODE BEGIN TIM1_MspInit 1 */
 540              		.loc 1 246 5 is_stmt 1 view .LVU134
 541              	.LBB8:
 246:Src/stm32f0xx_hal_msp.c ****   /* USER CODE BEGIN TIM1_MspInit 1 */
 542              		.loc 1 246 5 view .LVU135
 246:Src/stm32f0xx_hal_msp.c ****   /* USER CODE BEGIN TIM1_MspInit 1 */
 543              		.loc 1 246 5 view .LVU136
 544 0014 0C4A     		ldr	r2, .L31+8
 545 0016 9169     		ldr	r1, [r2, #24]
 546 0018 8020     		movs	r0, #128
 547              	.LVL30:
 246:Src/stm32f0xx_hal_msp.c ****   /* USER CODE BEGIN TIM1_MspInit 1 */
 548              		.loc 1 246 5 is_stmt 0 view .LVU137
 549 001a 0001     		lsls	r0, r0, #4
 550 001c 0143     		orrs	r1, r0
 551 001e 9161     		str	r1, [r2, #24]
 246:Src/stm32f0xx_hal_msp.c ****   /* USER CODE BEGIN TIM1_MspInit 1 */
 552              		.loc 1 246 5 is_stmt 1 view .LVU138
 553 0020 9369     		ldr	r3, [r2, #24]
 554 0022 0340     		ands	r3, r0
 555 0024 0093     		str	r3, [sp]
 246:Src/stm32f0xx_hal_msp.c ****   /* USER CODE BEGIN TIM1_MspInit 1 */
 556              		.loc 1 246 5 view .LVU139
 557 0026 009B     		ldr	r3, [sp]
 558              	.LBE8:
 246:Src/stm32f0xx_hal_msp.c ****   /* USER CODE BEGIN TIM1_MspInit 1 */
 559              		.loc 1 246 5 view .LVU140
 560 0028 F2E7     		b	.L26
 561              	.LVL31:
 562              	.L30:
 257:Src/stm32f0xx_hal_msp.c ****   /* USER CODE BEGIN TIM16_MspInit 1 */
 563              		.loc 1 257 5 view .LVU141
 564              	.LBB9:
 257:Src/stm32f0xx_hal_msp.c ****   /* USER CODE BEGIN TIM16_MspInit 1 */
 565              		.loc 1 257 5 view .LVU142
 257:Src/stm32f0xx_hal_msp.c ****   /* USER CODE BEGIN TIM16_MspInit 1 */
 566              		.loc 1 257 5 view .LVU143
 567 002a 074A     		ldr	r2, .L31+8
 568 002c 9169     		ldr	r1, [r2, #24]
 569 002e 8020     		movs	r0, #128
 570              	.LVL32:
 257:Src/stm32f0xx_hal_msp.c ****   /* USER CODE BEGIN TIM16_MspInit 1 */
 571              		.loc 1 257 5 is_stmt 0 view .LVU144
ARM GAS  /tmp/ccUJMCfe.s 			page 17


 572 0030 8002     		lsls	r0, r0, #10
 573 0032 0143     		orrs	r1, r0
 574 0034 9161     		str	r1, [r2, #24]
 257:Src/stm32f0xx_hal_msp.c ****   /* USER CODE BEGIN TIM16_MspInit 1 */
 575              		.loc 1 257 5 is_stmt 1 view .LVU145
 576 0036 9369     		ldr	r3, [r2, #24]
 577 0038 0340     		ands	r3, r0
 578 003a 0193     		str	r3, [sp, #4]
 257:Src/stm32f0xx_hal_msp.c ****   /* USER CODE BEGIN TIM16_MspInit 1 */
 579              		.loc 1 257 5 view .LVU146
 580 003c 019B     		ldr	r3, [sp, #4]
 581              	.LBE9:
 257:Src/stm32f0xx_hal_msp.c ****   /* USER CODE BEGIN TIM16_MspInit 1 */
 582              		.loc 1 257 5 view .LVU147
 583              		.loc 1 263 1 is_stmt 0 view .LVU148
 584 003e E7E7     		b	.L26
 585              	.L32:
 586              		.align	2
 587              	.L31:
 588 0040 002C0140 		.word	1073818624
 589 0044 00440140 		.word	1073824768
 590 0048 00100240 		.word	1073876992
 591              		.cfi_endproc
 592              	.LFE45:
 594              		.section	.text.HAL_TIM_MspPostInit,"ax",%progbits
 595              		.align	1
 596              		.global	HAL_TIM_MspPostInit
 597              		.syntax unified
 598              		.code	16
 599              		.thumb_func
 600              		.fpu softvfp
 602              	HAL_TIM_MspPostInit:
 603              	.LVL33:
 604              	.LFB46:
 264:Src/stm32f0xx_hal_msp.c **** 
 265:Src/stm32f0xx_hal_msp.c **** void HAL_TIM_MspPostInit(TIM_HandleTypeDef* htim)
 266:Src/stm32f0xx_hal_msp.c **** {
 605              		.loc 1 266 1 is_stmt 1 view -0
 606              		.cfi_startproc
 607              		@ args = 0, pretend = 0, frame = 32
 608              		@ frame_needed = 0, uses_anonymous_args = 0
 609              		.loc 1 266 1 is_stmt 0 view .LVU150
 610 0000 10B5     		push	{r4, lr}
 611              	.LCFI8:
 612              		.cfi_def_cfa_offset 8
 613              		.cfi_offset 4, -8
 614              		.cfi_offset 14, -4
 615 0002 88B0     		sub	sp, sp, #32
 616              	.LCFI9:
 617              		.cfi_def_cfa_offset 40
 618 0004 0400     		movs	r4, r0
 267:Src/stm32f0xx_hal_msp.c ****   GPIO_InitTypeDef GPIO_InitStruct = {0};
 619              		.loc 1 267 3 is_stmt 1 view .LVU151
 620              		.loc 1 267 20 is_stmt 0 view .LVU152
 621 0006 1422     		movs	r2, #20
 622 0008 0021     		movs	r1, #0
 623 000a 03A8     		add	r0, sp, #12
ARM GAS  /tmp/ccUJMCfe.s 			page 18


 624              	.LVL34:
 625              		.loc 1 267 20 view .LVU153
 626 000c FFF7FEFF 		bl	memset
 627              	.LVL35:
 268:Src/stm32f0xx_hal_msp.c ****   if(htim->Instance==TIM1)
 628              		.loc 1 268 3 is_stmt 1 view .LVU154
 629              		.loc 1 268 10 is_stmt 0 view .LVU155
 630 0010 2368     		ldr	r3, [r4]
 631              		.loc 1 268 5 view .LVU156
 632 0012 1D4A     		ldr	r2, .L38
 633 0014 9342     		cmp	r3, r2
 634 0016 04D0     		beq	.L36
 269:Src/stm32f0xx_hal_msp.c ****   {
 270:Src/stm32f0xx_hal_msp.c ****   /* USER CODE BEGIN TIM1_MspPostInit 0 */
 271:Src/stm32f0xx_hal_msp.c **** 
 272:Src/stm32f0xx_hal_msp.c ****   /* USER CODE END TIM1_MspPostInit 0 */
 273:Src/stm32f0xx_hal_msp.c ****     __HAL_RCC_GPIOA_CLK_ENABLE();
 274:Src/stm32f0xx_hal_msp.c ****     /**TIM1 GPIO Configuration
 275:Src/stm32f0xx_hal_msp.c ****     PA8     ------> TIM1_CH1
 276:Src/stm32f0xx_hal_msp.c ****     */
 277:Src/stm32f0xx_hal_msp.c ****     GPIO_InitStruct.Pin = GPIO_PIN_8;
 278:Src/stm32f0xx_hal_msp.c ****     GPIO_InitStruct.Mode = GPIO_MODE_AF_PP;
 279:Src/stm32f0xx_hal_msp.c ****     GPIO_InitStruct.Pull = GPIO_NOPULL;
 280:Src/stm32f0xx_hal_msp.c ****     GPIO_InitStruct.Speed = GPIO_SPEED_FREQ_HIGH;
 281:Src/stm32f0xx_hal_msp.c ****     GPIO_InitStruct.Alternate = GPIO_AF2_TIM1;
 282:Src/stm32f0xx_hal_msp.c ****     HAL_GPIO_Init(GPIOA, &GPIO_InitStruct);
 283:Src/stm32f0xx_hal_msp.c **** 
 284:Src/stm32f0xx_hal_msp.c ****   /* USER CODE BEGIN TIM1_MspPostInit 1 */
 285:Src/stm32f0xx_hal_msp.c **** 
 286:Src/stm32f0xx_hal_msp.c ****   /* USER CODE END TIM1_MspPostInit 1 */
 287:Src/stm32f0xx_hal_msp.c ****   }
 288:Src/stm32f0xx_hal_msp.c ****   else if(htim->Instance==TIM16)
 635              		.loc 1 288 8 is_stmt 1 view .LVU157
 636              		.loc 1 288 10 is_stmt 0 view .LVU158
 637 0018 1C4A     		ldr	r2, .L38+4
 638 001a 9342     		cmp	r3, r2
 639 001c 1BD0     		beq	.L37
 640              	.L33:
 289:Src/stm32f0xx_hal_msp.c ****   {
 290:Src/stm32f0xx_hal_msp.c ****   /* USER CODE BEGIN TIM16_MspPostInit 0 */
 291:Src/stm32f0xx_hal_msp.c **** 
 292:Src/stm32f0xx_hal_msp.c ****   /* USER CODE END TIM16_MspPostInit 0 */
 293:Src/stm32f0xx_hal_msp.c **** 
 294:Src/stm32f0xx_hal_msp.c ****     __HAL_RCC_GPIOB_CLK_ENABLE();
 295:Src/stm32f0xx_hal_msp.c ****     /**TIM16 GPIO Configuration
 296:Src/stm32f0xx_hal_msp.c ****     PB8     ------> TIM16_CH1
 297:Src/stm32f0xx_hal_msp.c ****     */
 298:Src/stm32f0xx_hal_msp.c ****     GPIO_InitStruct.Pin = IPS_PWM_Pin;
 299:Src/stm32f0xx_hal_msp.c ****     GPIO_InitStruct.Mode = GPIO_MODE_AF_PP;
 300:Src/stm32f0xx_hal_msp.c ****     GPIO_InitStruct.Pull = GPIO_NOPULL;
 301:Src/stm32f0xx_hal_msp.c ****     GPIO_InitStruct.Speed = GPIO_SPEED_FREQ_LOW;
 302:Src/stm32f0xx_hal_msp.c ****     GPIO_InitStruct.Alternate = GPIO_AF2_TIM16;
 303:Src/stm32f0xx_hal_msp.c ****     HAL_GPIO_Init(IPS_PWM_GPIO_Port, &GPIO_InitStruct);
 304:Src/stm32f0xx_hal_msp.c **** 
 305:Src/stm32f0xx_hal_msp.c ****   /* USER CODE BEGIN TIM16_MspPostInit 1 */
 306:Src/stm32f0xx_hal_msp.c **** 
 307:Src/stm32f0xx_hal_msp.c ****   /* USER CODE END TIM16_MspPostInit 1 */
ARM GAS  /tmp/ccUJMCfe.s 			page 19


 308:Src/stm32f0xx_hal_msp.c ****   }
 309:Src/stm32f0xx_hal_msp.c **** 
 310:Src/stm32f0xx_hal_msp.c **** }
 641              		.loc 1 310 1 view .LVU159
 642 001e 08B0     		add	sp, sp, #32
 643              		@ sp needed
 644              	.LVL36:
 645              		.loc 1 310 1 view .LVU160
 646 0020 10BD     		pop	{r4, pc}
 647              	.LVL37:
 648              	.L36:
 273:Src/stm32f0xx_hal_msp.c ****     /**TIM1 GPIO Configuration
 649              		.loc 1 273 5 is_stmt 1 view .LVU161
 650              	.LBB10:
 273:Src/stm32f0xx_hal_msp.c ****     /**TIM1 GPIO Configuration
 651              		.loc 1 273 5 view .LVU162
 273:Src/stm32f0xx_hal_msp.c ****     /**TIM1 GPIO Configuration
 652              		.loc 1 273 5 view .LVU163
 653 0022 1B4A     		ldr	r2, .L38+8
 654 0024 5169     		ldr	r1, [r2, #20]
 655 0026 8020     		movs	r0, #128
 656 0028 8002     		lsls	r0, r0, #10
 657 002a 0143     		orrs	r1, r0
 658 002c 5161     		str	r1, [r2, #20]
 273:Src/stm32f0xx_hal_msp.c ****     /**TIM1 GPIO Configuration
 659              		.loc 1 273 5 view .LVU164
 660 002e 5369     		ldr	r3, [r2, #20]
 661 0030 0340     		ands	r3, r0
 662 0032 0193     		str	r3, [sp, #4]
 273:Src/stm32f0xx_hal_msp.c ****     /**TIM1 GPIO Configuration
 663              		.loc 1 273 5 view .LVU165
 664 0034 019B     		ldr	r3, [sp, #4]
 665              	.LBE10:
 273:Src/stm32f0xx_hal_msp.c ****     /**TIM1 GPIO Configuration
 666              		.loc 1 273 5 view .LVU166
 277:Src/stm32f0xx_hal_msp.c ****     GPIO_InitStruct.Mode = GPIO_MODE_AF_PP;
 667              		.loc 1 277 5 view .LVU167
 277:Src/stm32f0xx_hal_msp.c ****     GPIO_InitStruct.Mode = GPIO_MODE_AF_PP;
 668              		.loc 1 277 25 is_stmt 0 view .LVU168
 669 0036 8023     		movs	r3, #128
 670 0038 5B00     		lsls	r3, r3, #1
 671 003a 0393     		str	r3, [sp, #12]
 278:Src/stm32f0xx_hal_msp.c ****     GPIO_InitStruct.Pull = GPIO_NOPULL;
 672              		.loc 1 278 5 is_stmt 1 view .LVU169
 278:Src/stm32f0xx_hal_msp.c ****     GPIO_InitStruct.Pull = GPIO_NOPULL;
 673              		.loc 1 278 26 is_stmt 0 view .LVU170
 674 003c FE3B     		subs	r3, r3, #254
 675 003e 0493     		str	r3, [sp, #16]
 279:Src/stm32f0xx_hal_msp.c ****     GPIO_InitStruct.Speed = GPIO_SPEED_FREQ_HIGH;
 676              		.loc 1 279 5 is_stmt 1 view .LVU171
 279:Src/stm32f0xx_hal_msp.c ****     GPIO_InitStruct.Speed = GPIO_SPEED_FREQ_HIGH;
 677              		.loc 1 279 26 is_stmt 0 view .LVU172
 678 0040 0022     		movs	r2, #0
 679 0042 0592     		str	r2, [sp, #20]
 280:Src/stm32f0xx_hal_msp.c ****     GPIO_InitStruct.Alternate = GPIO_AF2_TIM1;
 680              		.loc 1 280 5 is_stmt 1 view .LVU173
 280:Src/stm32f0xx_hal_msp.c ****     GPIO_InitStruct.Alternate = GPIO_AF2_TIM1;
ARM GAS  /tmp/ccUJMCfe.s 			page 20


 681              		.loc 1 280 27 is_stmt 0 view .LVU174
 682 0044 0332     		adds	r2, r2, #3
 683 0046 0692     		str	r2, [sp, #24]
 281:Src/stm32f0xx_hal_msp.c ****     HAL_GPIO_Init(GPIOA, &GPIO_InitStruct);
 684              		.loc 1 281 5 is_stmt 1 view .LVU175
 281:Src/stm32f0xx_hal_msp.c ****     HAL_GPIO_Init(GPIOA, &GPIO_InitStruct);
 685              		.loc 1 281 31 is_stmt 0 view .LVU176
 686 0048 0793     		str	r3, [sp, #28]
 282:Src/stm32f0xx_hal_msp.c **** 
 687              		.loc 1 282 5 is_stmt 1 view .LVU177
 688 004a 9020     		movs	r0, #144
 689 004c 03A9     		add	r1, sp, #12
 690 004e C005     		lsls	r0, r0, #23
 691 0050 FFF7FEFF 		bl	HAL_GPIO_Init
 692              	.LVL38:
 693 0054 E3E7     		b	.L33
 694              	.L37:
 294:Src/stm32f0xx_hal_msp.c ****     /**TIM16 GPIO Configuration
 695              		.loc 1 294 5 view .LVU178
 696              	.LBB11:
 294:Src/stm32f0xx_hal_msp.c ****     /**TIM16 GPIO Configuration
 697              		.loc 1 294 5 view .LVU179
 294:Src/stm32f0xx_hal_msp.c ****     /**TIM16 GPIO Configuration
 698              		.loc 1 294 5 view .LVU180
 699 0056 0E4A     		ldr	r2, .L38+8
 700 0058 5169     		ldr	r1, [r2, #20]
 701 005a 8020     		movs	r0, #128
 702 005c C002     		lsls	r0, r0, #11
 703 005e 0143     		orrs	r1, r0
 704 0060 5161     		str	r1, [r2, #20]
 294:Src/stm32f0xx_hal_msp.c ****     /**TIM16 GPIO Configuration
 705              		.loc 1 294 5 view .LVU181
 706 0062 5369     		ldr	r3, [r2, #20]
 707 0064 0340     		ands	r3, r0
 708 0066 0293     		str	r3, [sp, #8]
 294:Src/stm32f0xx_hal_msp.c ****     /**TIM16 GPIO Configuration
 709              		.loc 1 294 5 view .LVU182
 710 0068 029B     		ldr	r3, [sp, #8]
 711              	.LBE11:
 294:Src/stm32f0xx_hal_msp.c ****     /**TIM16 GPIO Configuration
 712              		.loc 1 294 5 view .LVU183
 298:Src/stm32f0xx_hal_msp.c ****     GPIO_InitStruct.Mode = GPIO_MODE_AF_PP;
 713              		.loc 1 298 5 view .LVU184
 298:Src/stm32f0xx_hal_msp.c ****     GPIO_InitStruct.Mode = GPIO_MODE_AF_PP;
 714              		.loc 1 298 25 is_stmt 0 view .LVU185
 715 006a 8023     		movs	r3, #128
 716 006c 5B00     		lsls	r3, r3, #1
 717 006e 0393     		str	r3, [sp, #12]
 299:Src/stm32f0xx_hal_msp.c ****     GPIO_InitStruct.Pull = GPIO_NOPULL;
 718              		.loc 1 299 5 is_stmt 1 view .LVU186
 299:Src/stm32f0xx_hal_msp.c ****     GPIO_InitStruct.Pull = GPIO_NOPULL;
 719              		.loc 1 299 26 is_stmt 0 view .LVU187
 720 0070 FE3B     		subs	r3, r3, #254
 721 0072 0493     		str	r3, [sp, #16]
 300:Src/stm32f0xx_hal_msp.c ****     GPIO_InitStruct.Speed = GPIO_SPEED_FREQ_LOW;
 722              		.loc 1 300 5 is_stmt 1 view .LVU188
 300:Src/stm32f0xx_hal_msp.c ****     GPIO_InitStruct.Speed = GPIO_SPEED_FREQ_LOW;
ARM GAS  /tmp/ccUJMCfe.s 			page 21


 723              		.loc 1 300 26 is_stmt 0 view .LVU189
 724 0074 0022     		movs	r2, #0
 725 0076 0592     		str	r2, [sp, #20]
 301:Src/stm32f0xx_hal_msp.c ****     GPIO_InitStruct.Alternate = GPIO_AF2_TIM16;
 726              		.loc 1 301 5 is_stmt 1 view .LVU190
 301:Src/stm32f0xx_hal_msp.c ****     GPIO_InitStruct.Alternate = GPIO_AF2_TIM16;
 727              		.loc 1 301 27 is_stmt 0 view .LVU191
 728 0078 0692     		str	r2, [sp, #24]
 302:Src/stm32f0xx_hal_msp.c ****     HAL_GPIO_Init(IPS_PWM_GPIO_Port, &GPIO_InitStruct);
 729              		.loc 1 302 5 is_stmt 1 view .LVU192
 302:Src/stm32f0xx_hal_msp.c ****     HAL_GPIO_Init(IPS_PWM_GPIO_Port, &GPIO_InitStruct);
 730              		.loc 1 302 31 is_stmt 0 view .LVU193
 731 007a 0793     		str	r3, [sp, #28]
 303:Src/stm32f0xx_hal_msp.c **** 
 732              		.loc 1 303 5 is_stmt 1 view .LVU194
 733 007c 03A9     		add	r1, sp, #12
 734 007e 0548     		ldr	r0, .L38+12
 735 0080 FFF7FEFF 		bl	HAL_GPIO_Init
 736              	.LVL39:
 737              		.loc 1 310 1 is_stmt 0 view .LVU195
 738 0084 CBE7     		b	.L33
 739              	.L39:
 740 0086 C046     		.align	2
 741              	.L38:
 742 0088 002C0140 		.word	1073818624
 743 008c 00440140 		.word	1073824768
 744 0090 00100240 		.word	1073876992
 745 0094 00040048 		.word	1207960576
 746              		.cfi_endproc
 747              	.LFE46:
 749              		.section	.text.HAL_TIM_Base_MspDeInit,"ax",%progbits
 750              		.align	1
 751              		.global	HAL_TIM_Base_MspDeInit
 752              		.syntax unified
 753              		.code	16
 754              		.thumb_func
 755              		.fpu softvfp
 757              	HAL_TIM_Base_MspDeInit:
 758              	.LVL40:
 759              	.LFB47:
 311:Src/stm32f0xx_hal_msp.c **** /**
 312:Src/stm32f0xx_hal_msp.c **** * @brief TIM_Base MSP De-Initialization
 313:Src/stm32f0xx_hal_msp.c **** * This function freeze the hardware resources used in this example
 314:Src/stm32f0xx_hal_msp.c **** * @param htim_base: TIM_Base handle pointer
 315:Src/stm32f0xx_hal_msp.c **** * @retval None
 316:Src/stm32f0xx_hal_msp.c **** */
 317:Src/stm32f0xx_hal_msp.c **** void HAL_TIM_Base_MspDeInit(TIM_HandleTypeDef* htim_base)
 318:Src/stm32f0xx_hal_msp.c **** {
 760              		.loc 1 318 1 is_stmt 1 view -0
 761              		.cfi_startproc
 762              		@ args = 0, pretend = 0, frame = 0
 763              		@ frame_needed = 0, uses_anonymous_args = 0
 764              		@ link register save eliminated.
 319:Src/stm32f0xx_hal_msp.c ****   if(htim_base->Instance==TIM1)
 765              		.loc 1 319 3 view .LVU197
 766              		.loc 1 319 15 is_stmt 0 view .LVU198
 767 0000 0368     		ldr	r3, [r0]
ARM GAS  /tmp/ccUJMCfe.s 			page 22


 768              		.loc 1 319 5 view .LVU199
 769 0002 094A     		ldr	r2, .L45
 770 0004 9342     		cmp	r3, r2
 771 0006 03D0     		beq	.L43
 320:Src/stm32f0xx_hal_msp.c ****   {
 321:Src/stm32f0xx_hal_msp.c ****   /* USER CODE BEGIN TIM1_MspDeInit 0 */
 322:Src/stm32f0xx_hal_msp.c **** 
 323:Src/stm32f0xx_hal_msp.c ****   /* USER CODE END TIM1_MspDeInit 0 */
 324:Src/stm32f0xx_hal_msp.c ****     /* Peripheral clock disable */
 325:Src/stm32f0xx_hal_msp.c ****     __HAL_RCC_TIM1_CLK_DISABLE();
 326:Src/stm32f0xx_hal_msp.c ****   /* USER CODE BEGIN TIM1_MspDeInit 1 */
 327:Src/stm32f0xx_hal_msp.c **** 
 328:Src/stm32f0xx_hal_msp.c ****   /* USER CODE END TIM1_MspDeInit 1 */
 329:Src/stm32f0xx_hal_msp.c ****   }
 330:Src/stm32f0xx_hal_msp.c ****   else if(htim_base->Instance==TIM16)
 772              		.loc 1 330 8 is_stmt 1 view .LVU200
 773              		.loc 1 330 10 is_stmt 0 view .LVU201
 774 0008 084A     		ldr	r2, .L45+4
 775 000a 9342     		cmp	r3, r2
 776 000c 06D0     		beq	.L44
 777              	.L40:
 331:Src/stm32f0xx_hal_msp.c ****   {
 332:Src/stm32f0xx_hal_msp.c ****   /* USER CODE BEGIN TIM16_MspDeInit 0 */
 333:Src/stm32f0xx_hal_msp.c **** 
 334:Src/stm32f0xx_hal_msp.c ****   /* USER CODE END TIM16_MspDeInit 0 */
 335:Src/stm32f0xx_hal_msp.c ****     /* Peripheral clock disable */
 336:Src/stm32f0xx_hal_msp.c ****     __HAL_RCC_TIM16_CLK_DISABLE();
 337:Src/stm32f0xx_hal_msp.c ****   /* USER CODE BEGIN TIM16_MspDeInit 1 */
 338:Src/stm32f0xx_hal_msp.c **** 
 339:Src/stm32f0xx_hal_msp.c ****   /* USER CODE END TIM16_MspDeInit 1 */
 340:Src/stm32f0xx_hal_msp.c ****   }
 341:Src/stm32f0xx_hal_msp.c **** 
 342:Src/stm32f0xx_hal_msp.c **** }
 778              		.loc 1 342 1 view .LVU202
 779              		@ sp needed
 780 000e 7047     		bx	lr
 781              	.L43:
 325:Src/stm32f0xx_hal_msp.c ****   /* USER CODE BEGIN TIM1_MspDeInit 1 */
 782              		.loc 1 325 5 is_stmt 1 view .LVU203
 783 0010 074A     		ldr	r2, .L45+8
 784 0012 9369     		ldr	r3, [r2, #24]
 785 0014 0749     		ldr	r1, .L45+12
 786 0016 0B40     		ands	r3, r1
 787 0018 9361     		str	r3, [r2, #24]
 788 001a F8E7     		b	.L40
 789              	.L44:
 336:Src/stm32f0xx_hal_msp.c ****   /* USER CODE BEGIN TIM16_MspDeInit 1 */
 790              		.loc 1 336 5 view .LVU204
 791 001c 044A     		ldr	r2, .L45+8
 792 001e 9369     		ldr	r3, [r2, #24]
 793 0020 0549     		ldr	r1, .L45+16
 794 0022 0B40     		ands	r3, r1
 795 0024 9361     		str	r3, [r2, #24]
 796              		.loc 1 342 1 is_stmt 0 view .LVU205
 797 0026 F2E7     		b	.L40
 798              	.L46:
 799              		.align	2
ARM GAS  /tmp/ccUJMCfe.s 			page 23


 800              	.L45:
 801 0028 002C0140 		.word	1073818624
 802 002c 00440140 		.word	1073824768
 803 0030 00100240 		.word	1073876992
 804 0034 FFF7FFFF 		.word	-2049
 805 0038 FFFFFDFF 		.word	-131073
 806              		.cfi_endproc
 807              	.LFE47:
 809              		.section	.text.HAL_TSC_MspInit,"ax",%progbits
 810              		.align	1
 811              		.global	HAL_TSC_MspInit
 812              		.syntax unified
 813              		.code	16
 814              		.thumb_func
 815              		.fpu softvfp
 817              	HAL_TSC_MspInit:
 818              	.LVL41:
 819              	.LFB48:
 343:Src/stm32f0xx_hal_msp.c **** 
 344:Src/stm32f0xx_hal_msp.c **** /**
 345:Src/stm32f0xx_hal_msp.c **** * @brief TSC MSP Initialization
 346:Src/stm32f0xx_hal_msp.c **** * This function configures the hardware resources used in this example
 347:Src/stm32f0xx_hal_msp.c **** * @param htsc: TSC handle pointer
 348:Src/stm32f0xx_hal_msp.c **** * @retval None
 349:Src/stm32f0xx_hal_msp.c **** */
 350:Src/stm32f0xx_hal_msp.c **** void HAL_TSC_MspInit(TSC_HandleTypeDef* htsc)
 351:Src/stm32f0xx_hal_msp.c **** {
 820              		.loc 1 351 1 is_stmt 1 view -0
 821              		.cfi_startproc
 822              		@ args = 0, pretend = 0, frame = 32
 823              		@ frame_needed = 0, uses_anonymous_args = 0
 824              		.loc 1 351 1 is_stmt 0 view .LVU207
 825 0000 70B5     		push	{r4, r5, r6, lr}
 826              	.LCFI10:
 827              		.cfi_def_cfa_offset 16
 828              		.cfi_offset 4, -16
 829              		.cfi_offset 5, -12
 830              		.cfi_offset 6, -8
 831              		.cfi_offset 14, -4
 832 0002 88B0     		sub	sp, sp, #32
 833              	.LCFI11:
 834              		.cfi_def_cfa_offset 48
 835 0004 0400     		movs	r4, r0
 352:Src/stm32f0xx_hal_msp.c ****   GPIO_InitTypeDef GPIO_InitStruct = {0};
 836              		.loc 1 352 3 is_stmt 1 view .LVU208
 837              		.loc 1 352 20 is_stmt 0 view .LVU209
 838 0006 1422     		movs	r2, #20
 839 0008 0021     		movs	r1, #0
 840 000a 03A8     		add	r0, sp, #12
 841              	.LVL42:
 842              		.loc 1 352 20 view .LVU210
 843 000c FFF7FEFF 		bl	memset
 844              	.LVL43:
 353:Src/stm32f0xx_hal_msp.c ****   if(htsc->Instance==TSC)
 845              		.loc 1 353 3 is_stmt 1 view .LVU211
 846              		.loc 1 353 10 is_stmt 0 view .LVU212
 847 0010 2268     		ldr	r2, [r4]
ARM GAS  /tmp/ccUJMCfe.s 			page 24


 848              		.loc 1 353 5 view .LVU213
 849 0012 1D4B     		ldr	r3, .L50
 850 0014 9A42     		cmp	r2, r3
 851 0016 01D0     		beq	.L49
 852              	.LVL44:
 853              	.L47:
 354:Src/stm32f0xx_hal_msp.c ****   {
 355:Src/stm32f0xx_hal_msp.c ****   /* USER CODE BEGIN TSC_MspInit 0 */
 356:Src/stm32f0xx_hal_msp.c **** 
 357:Src/stm32f0xx_hal_msp.c ****   /* USER CODE END TSC_MspInit 0 */
 358:Src/stm32f0xx_hal_msp.c ****     /* Peripheral clock enable */
 359:Src/stm32f0xx_hal_msp.c ****     __HAL_RCC_TSC_CLK_ENABLE();
 360:Src/stm32f0xx_hal_msp.c **** 
 361:Src/stm32f0xx_hal_msp.c ****     __HAL_RCC_GPIOA_CLK_ENABLE();
 362:Src/stm32f0xx_hal_msp.c ****     /**TSC GPIO Configuration
 363:Src/stm32f0xx_hal_msp.c ****     PA0     ------> TSC_G1_IO1
 364:Src/stm32f0xx_hal_msp.c ****     PA1     ------> TSC_G1_IO2
 365:Src/stm32f0xx_hal_msp.c ****     PA2     ------> TSC_G1_IO3
 366:Src/stm32f0xx_hal_msp.c ****     */
 367:Src/stm32f0xx_hal_msp.c ****     GPIO_InitStruct.Pin = GPIO_PIN_0;
 368:Src/stm32f0xx_hal_msp.c ****     GPIO_InitStruct.Mode = GPIO_MODE_AF_OD;
 369:Src/stm32f0xx_hal_msp.c ****     GPIO_InitStruct.Pull = GPIO_NOPULL;
 370:Src/stm32f0xx_hal_msp.c ****     GPIO_InitStruct.Speed = GPIO_SPEED_FREQ_LOW;
 371:Src/stm32f0xx_hal_msp.c ****     GPIO_InitStruct.Alternate = GPIO_AF3_TSC;
 372:Src/stm32f0xx_hal_msp.c ****     HAL_GPIO_Init(GPIOA, &GPIO_InitStruct);
 373:Src/stm32f0xx_hal_msp.c **** 
 374:Src/stm32f0xx_hal_msp.c ****     GPIO_InitStruct.Pin = GPIO_PIN_1|GPIO_PIN_2;
 375:Src/stm32f0xx_hal_msp.c ****     GPIO_InitStruct.Mode = GPIO_MODE_AF_PP;
 376:Src/stm32f0xx_hal_msp.c ****     GPIO_InitStruct.Pull = GPIO_NOPULL;
 377:Src/stm32f0xx_hal_msp.c ****     GPIO_InitStruct.Speed = GPIO_SPEED_FREQ_LOW;
 378:Src/stm32f0xx_hal_msp.c ****     GPIO_InitStruct.Alternate = GPIO_AF3_TSC;
 379:Src/stm32f0xx_hal_msp.c ****     HAL_GPIO_Init(GPIOA, &GPIO_InitStruct);
 380:Src/stm32f0xx_hal_msp.c **** 
 381:Src/stm32f0xx_hal_msp.c ****     /* TSC interrupt Init */
 382:Src/stm32f0xx_hal_msp.c ****     HAL_NVIC_SetPriority(TSC_IRQn, 0, 0);
 383:Src/stm32f0xx_hal_msp.c ****     HAL_NVIC_EnableIRQ(TSC_IRQn);
 384:Src/stm32f0xx_hal_msp.c ****   /* USER CODE BEGIN TSC_MspInit 1 */
 385:Src/stm32f0xx_hal_msp.c **** 
 386:Src/stm32f0xx_hal_msp.c ****   /* USER CODE END TSC_MspInit 1 */
 387:Src/stm32f0xx_hal_msp.c ****   }
 388:Src/stm32f0xx_hal_msp.c **** 
 389:Src/stm32f0xx_hal_msp.c **** }
 854              		.loc 1 389 1 view .LVU214
 855 0018 08B0     		add	sp, sp, #32
 856              		@ sp needed
 857 001a 70BD     		pop	{r4, r5, r6, pc}
 858              	.LVL45:
 859              	.L49:
 359:Src/stm32f0xx_hal_msp.c **** 
 860              		.loc 1 359 5 is_stmt 1 view .LVU215
 861              	.LBB12:
 359:Src/stm32f0xx_hal_msp.c **** 
 862              		.loc 1 359 5 view .LVU216
 359:Src/stm32f0xx_hal_msp.c **** 
 863              		.loc 1 359 5 view .LVU217
 864 001c 1B4B     		ldr	r3, .L50+4
 865 001e 5969     		ldr	r1, [r3, #20]
ARM GAS  /tmp/ccUJMCfe.s 			page 25


 866 0020 8020     		movs	r0, #128
 867 0022 4004     		lsls	r0, r0, #17
 868 0024 0143     		orrs	r1, r0
 869 0026 5961     		str	r1, [r3, #20]
 359:Src/stm32f0xx_hal_msp.c **** 
 870              		.loc 1 359 5 view .LVU218
 871 0028 5A69     		ldr	r2, [r3, #20]
 872 002a 0240     		ands	r2, r0
 873 002c 0192     		str	r2, [sp, #4]
 359:Src/stm32f0xx_hal_msp.c **** 
 874              		.loc 1 359 5 view .LVU219
 875 002e 019A     		ldr	r2, [sp, #4]
 876              	.LBE12:
 359:Src/stm32f0xx_hal_msp.c **** 
 877              		.loc 1 359 5 view .LVU220
 361:Src/stm32f0xx_hal_msp.c ****     /**TSC GPIO Configuration
 878              		.loc 1 361 5 view .LVU221
 879              	.LBB13:
 361:Src/stm32f0xx_hal_msp.c ****     /**TSC GPIO Configuration
 880              		.loc 1 361 5 view .LVU222
 361:Src/stm32f0xx_hal_msp.c ****     /**TSC GPIO Configuration
 881              		.loc 1 361 5 view .LVU223
 882 0030 5A69     		ldr	r2, [r3, #20]
 883 0032 8021     		movs	r1, #128
 884 0034 8902     		lsls	r1, r1, #10
 885 0036 0A43     		orrs	r2, r1
 886 0038 5A61     		str	r2, [r3, #20]
 361:Src/stm32f0xx_hal_msp.c ****     /**TSC GPIO Configuration
 887              		.loc 1 361 5 view .LVU224
 888 003a 5B69     		ldr	r3, [r3, #20]
 889 003c 0B40     		ands	r3, r1
 890 003e 0293     		str	r3, [sp, #8]
 361:Src/stm32f0xx_hal_msp.c ****     /**TSC GPIO Configuration
 891              		.loc 1 361 5 view .LVU225
 892 0040 029B     		ldr	r3, [sp, #8]
 893              	.LBE13:
 361:Src/stm32f0xx_hal_msp.c ****     /**TSC GPIO Configuration
 894              		.loc 1 361 5 view .LVU226
 367:Src/stm32f0xx_hal_msp.c ****     GPIO_InitStruct.Mode = GPIO_MODE_AF_OD;
 895              		.loc 1 367 5 view .LVU227
 367:Src/stm32f0xx_hal_msp.c ****     GPIO_InitStruct.Mode = GPIO_MODE_AF_OD;
 896              		.loc 1 367 25 is_stmt 0 view .LVU228
 897 0042 0123     		movs	r3, #1
 898 0044 0393     		str	r3, [sp, #12]
 368:Src/stm32f0xx_hal_msp.c ****     GPIO_InitStruct.Pull = GPIO_NOPULL;
 899              		.loc 1 368 5 is_stmt 1 view .LVU229
 368:Src/stm32f0xx_hal_msp.c ****     GPIO_InitStruct.Pull = GPIO_NOPULL;
 900              		.loc 1 368 26 is_stmt 0 view .LVU230
 901 0046 1133     		adds	r3, r3, #17
 902 0048 0493     		str	r3, [sp, #16]
 369:Src/stm32f0xx_hal_msp.c ****     GPIO_InitStruct.Speed = GPIO_SPEED_FREQ_LOW;
 903              		.loc 1 369 5 is_stmt 1 view .LVU231
 369:Src/stm32f0xx_hal_msp.c ****     GPIO_InitStruct.Speed = GPIO_SPEED_FREQ_LOW;
 904              		.loc 1 369 26 is_stmt 0 view .LVU232
 905 004a 0024     		movs	r4, #0
 906              	.LVL46:
 369:Src/stm32f0xx_hal_msp.c ****     GPIO_InitStruct.Speed = GPIO_SPEED_FREQ_LOW;
ARM GAS  /tmp/ccUJMCfe.s 			page 26


 907              		.loc 1 369 26 view .LVU233
 908 004c 0594     		str	r4, [sp, #20]
 370:Src/stm32f0xx_hal_msp.c ****     GPIO_InitStruct.Alternate = GPIO_AF3_TSC;
 909              		.loc 1 370 5 is_stmt 1 view .LVU234
 370:Src/stm32f0xx_hal_msp.c ****     GPIO_InitStruct.Alternate = GPIO_AF3_TSC;
 910              		.loc 1 370 27 is_stmt 0 view .LVU235
 911 004e 0694     		str	r4, [sp, #24]
 371:Src/stm32f0xx_hal_msp.c ****     HAL_GPIO_Init(GPIOA, &GPIO_InitStruct);
 912              		.loc 1 371 5 is_stmt 1 view .LVU236
 371:Src/stm32f0xx_hal_msp.c ****     HAL_GPIO_Init(GPIOA, &GPIO_InitStruct);
 913              		.loc 1 371 31 is_stmt 0 view .LVU237
 914 0050 0326     		movs	r6, #3
 915 0052 0796     		str	r6, [sp, #28]
 372:Src/stm32f0xx_hal_msp.c **** 
 916              		.loc 1 372 5 is_stmt 1 view .LVU238
 917 0054 9025     		movs	r5, #144
 918 0056 ED05     		lsls	r5, r5, #23
 919 0058 03A9     		add	r1, sp, #12
 920 005a 2800     		movs	r0, r5
 921 005c FFF7FEFF 		bl	HAL_GPIO_Init
 922              	.LVL47:
 374:Src/stm32f0xx_hal_msp.c ****     GPIO_InitStruct.Mode = GPIO_MODE_AF_PP;
 923              		.loc 1 374 5 view .LVU239
 374:Src/stm32f0xx_hal_msp.c ****     GPIO_InitStruct.Mode = GPIO_MODE_AF_PP;
 924              		.loc 1 374 25 is_stmt 0 view .LVU240
 925 0060 0623     		movs	r3, #6
 926 0062 0393     		str	r3, [sp, #12]
 375:Src/stm32f0xx_hal_msp.c ****     GPIO_InitStruct.Pull = GPIO_NOPULL;
 927              		.loc 1 375 5 is_stmt 1 view .LVU241
 375:Src/stm32f0xx_hal_msp.c ****     GPIO_InitStruct.Pull = GPIO_NOPULL;
 928              		.loc 1 375 26 is_stmt 0 view .LVU242
 929 0064 043B     		subs	r3, r3, #4
 930 0066 0493     		str	r3, [sp, #16]
 376:Src/stm32f0xx_hal_msp.c ****     GPIO_InitStruct.Speed = GPIO_SPEED_FREQ_LOW;
 931              		.loc 1 376 5 is_stmt 1 view .LVU243
 376:Src/stm32f0xx_hal_msp.c ****     GPIO_InitStruct.Speed = GPIO_SPEED_FREQ_LOW;
 932              		.loc 1 376 26 is_stmt 0 view .LVU244
 933 0068 0594     		str	r4, [sp, #20]
 377:Src/stm32f0xx_hal_msp.c ****     GPIO_InitStruct.Alternate = GPIO_AF3_TSC;
 934              		.loc 1 377 5 is_stmt 1 view .LVU245
 377:Src/stm32f0xx_hal_msp.c ****     GPIO_InitStruct.Alternate = GPIO_AF3_TSC;
 935              		.loc 1 377 27 is_stmt 0 view .LVU246
 936 006a 0694     		str	r4, [sp, #24]
 378:Src/stm32f0xx_hal_msp.c ****     HAL_GPIO_Init(GPIOA, &GPIO_InitStruct);
 937              		.loc 1 378 5 is_stmt 1 view .LVU247
 378:Src/stm32f0xx_hal_msp.c ****     HAL_GPIO_Init(GPIOA, &GPIO_InitStruct);
 938              		.loc 1 378 31 is_stmt 0 view .LVU248
 939 006c 0796     		str	r6, [sp, #28]
 379:Src/stm32f0xx_hal_msp.c **** 
 940              		.loc 1 379 5 is_stmt 1 view .LVU249
 941 006e 03A9     		add	r1, sp, #12
 942 0070 2800     		movs	r0, r5
 943 0072 FFF7FEFF 		bl	HAL_GPIO_Init
 944              	.LVL48:
 382:Src/stm32f0xx_hal_msp.c ****     HAL_NVIC_EnableIRQ(TSC_IRQn);
 945              		.loc 1 382 5 view .LVU250
 946 0076 0022     		movs	r2, #0
ARM GAS  /tmp/ccUJMCfe.s 			page 27


 947 0078 0021     		movs	r1, #0
 948 007a 0820     		movs	r0, #8
 949 007c FFF7FEFF 		bl	HAL_NVIC_SetPriority
 950              	.LVL49:
 383:Src/stm32f0xx_hal_msp.c ****   /* USER CODE BEGIN TSC_MspInit 1 */
 951              		.loc 1 383 5 view .LVU251
 952 0080 0820     		movs	r0, #8
 953 0082 FFF7FEFF 		bl	HAL_NVIC_EnableIRQ
 954              	.LVL50:
 955              		.loc 1 389 1 is_stmt 0 view .LVU252
 956 0086 C7E7     		b	.L47
 957              	.L51:
 958              		.align	2
 959              	.L50:
 960 0088 00400240 		.word	1073889280
 961 008c 00100240 		.word	1073876992
 962              		.cfi_endproc
 963              	.LFE48:
 965              		.section	.text.HAL_TSC_MspDeInit,"ax",%progbits
 966              		.align	1
 967              		.global	HAL_TSC_MspDeInit
 968              		.syntax unified
 969              		.code	16
 970              		.thumb_func
 971              		.fpu softvfp
 973              	HAL_TSC_MspDeInit:
 974              	.LVL51:
 975              	.LFB49:
 390:Src/stm32f0xx_hal_msp.c **** 
 391:Src/stm32f0xx_hal_msp.c **** /**
 392:Src/stm32f0xx_hal_msp.c **** * @brief TSC MSP De-Initialization
 393:Src/stm32f0xx_hal_msp.c **** * This function freeze the hardware resources used in this example
 394:Src/stm32f0xx_hal_msp.c **** * @param htsc: TSC handle pointer
 395:Src/stm32f0xx_hal_msp.c **** * @retval None
 396:Src/stm32f0xx_hal_msp.c **** */
 397:Src/stm32f0xx_hal_msp.c **** void HAL_TSC_MspDeInit(TSC_HandleTypeDef* htsc)
 398:Src/stm32f0xx_hal_msp.c **** {
 976              		.loc 1 398 1 is_stmt 1 view -0
 977              		.cfi_startproc
 978              		@ args = 0, pretend = 0, frame = 0
 979              		@ frame_needed = 0, uses_anonymous_args = 0
 980              		.loc 1 398 1 is_stmt 0 view .LVU254
 981 0000 10B5     		push	{r4, lr}
 982              	.LCFI12:
 983              		.cfi_def_cfa_offset 8
 984              		.cfi_offset 4, -8
 985              		.cfi_offset 14, -4
 399:Src/stm32f0xx_hal_msp.c ****   if(htsc->Instance==TSC)
 986              		.loc 1 399 3 is_stmt 1 view .LVU255
 987              		.loc 1 399 10 is_stmt 0 view .LVU256
 988 0002 0268     		ldr	r2, [r0]
 989              		.loc 1 399 5 view .LVU257
 990 0004 084B     		ldr	r3, .L55
 991 0006 9A42     		cmp	r2, r3
 992 0008 00D0     		beq	.L54
 993              	.LVL52:
 994              	.L52:
ARM GAS  /tmp/ccUJMCfe.s 			page 28


 400:Src/stm32f0xx_hal_msp.c ****   {
 401:Src/stm32f0xx_hal_msp.c ****   /* USER CODE BEGIN TSC_MspDeInit 0 */
 402:Src/stm32f0xx_hal_msp.c **** 
 403:Src/stm32f0xx_hal_msp.c ****   /* USER CODE END TSC_MspDeInit 0 */
 404:Src/stm32f0xx_hal_msp.c ****     /* Peripheral clock disable */
 405:Src/stm32f0xx_hal_msp.c ****     __HAL_RCC_TSC_CLK_DISABLE();
 406:Src/stm32f0xx_hal_msp.c **** 
 407:Src/stm32f0xx_hal_msp.c ****     /**TSC GPIO Configuration
 408:Src/stm32f0xx_hal_msp.c ****     PA0     ------> TSC_G1_IO1
 409:Src/stm32f0xx_hal_msp.c ****     PA1     ------> TSC_G1_IO2
 410:Src/stm32f0xx_hal_msp.c ****     PA2     ------> TSC_G1_IO3
 411:Src/stm32f0xx_hal_msp.c ****     */
 412:Src/stm32f0xx_hal_msp.c ****     HAL_GPIO_DeInit(GPIOA, GPIO_PIN_0|GPIO_PIN_1|GPIO_PIN_2);
 413:Src/stm32f0xx_hal_msp.c **** 
 414:Src/stm32f0xx_hal_msp.c ****     /* TSC interrupt DeInit */
 415:Src/stm32f0xx_hal_msp.c ****     HAL_NVIC_DisableIRQ(TSC_IRQn);
 416:Src/stm32f0xx_hal_msp.c ****   /* USER CODE BEGIN TSC_MspDeInit 1 */
 417:Src/stm32f0xx_hal_msp.c **** 
 418:Src/stm32f0xx_hal_msp.c ****   /* USER CODE END TSC_MspDeInit 1 */
 419:Src/stm32f0xx_hal_msp.c ****   }
 420:Src/stm32f0xx_hal_msp.c **** 
 421:Src/stm32f0xx_hal_msp.c **** }
 995              		.loc 1 421 1 view .LVU258
 996              		@ sp needed
 997 000a 10BD     		pop	{r4, pc}
 998              	.LVL53:
 999              	.L54:
 405:Src/stm32f0xx_hal_msp.c **** 
 1000              		.loc 1 405 5 is_stmt 1 view .LVU259
 1001 000c 074A     		ldr	r2, .L55+4
 1002 000e 5369     		ldr	r3, [r2, #20]
 1003 0010 0749     		ldr	r1, .L55+8
 1004 0012 0B40     		ands	r3, r1
 1005 0014 5361     		str	r3, [r2, #20]
 412:Src/stm32f0xx_hal_msp.c **** 
 1006              		.loc 1 412 5 view .LVU260
 1007 0016 9020     		movs	r0, #144
 1008              	.LVL54:
 412:Src/stm32f0xx_hal_msp.c **** 
 1009              		.loc 1 412 5 is_stmt 0 view .LVU261
 1010 0018 0721     		movs	r1, #7
 1011 001a C005     		lsls	r0, r0, #23
 1012 001c FFF7FEFF 		bl	HAL_GPIO_DeInit
 1013              	.LVL55:
 415:Src/stm32f0xx_hal_msp.c ****   /* USER CODE BEGIN TSC_MspDeInit 1 */
 1014              		.loc 1 415 5 is_stmt 1 view .LVU262
 1015 0020 0820     		movs	r0, #8
 1016 0022 FFF7FEFF 		bl	HAL_NVIC_DisableIRQ
 1017              	.LVL56:
 1018              		.loc 1 421 1 is_stmt 0 view .LVU263
 1019 0026 F0E7     		b	.L52
 1020              	.L56:
 1021              		.align	2
 1022              	.L55:
 1023 0028 00400240 		.word	1073889280
 1024 002c 00100240 		.word	1073876992
 1025 0030 FFFFFFFE 		.word	-16777217
ARM GAS  /tmp/ccUJMCfe.s 			page 29


 1026              		.cfi_endproc
 1027              	.LFE49:
 1029              		.section	.text.HAL_PCD_MspInit,"ax",%progbits
 1030              		.align	1
 1031              		.global	HAL_PCD_MspInit
 1032              		.syntax unified
 1033              		.code	16
 1034              		.thumb_func
 1035              		.fpu softvfp
 1037              	HAL_PCD_MspInit:
 1038              	.LVL57:
 1039              	.LFB50:
 422:Src/stm32f0xx_hal_msp.c **** 
 423:Src/stm32f0xx_hal_msp.c **** /**
 424:Src/stm32f0xx_hal_msp.c **** * @brief PCD MSP Initialization
 425:Src/stm32f0xx_hal_msp.c **** * This function configures the hardware resources used in this example
 426:Src/stm32f0xx_hal_msp.c **** * @param hpcd: PCD handle pointer
 427:Src/stm32f0xx_hal_msp.c **** * @retval None
 428:Src/stm32f0xx_hal_msp.c **** */
 429:Src/stm32f0xx_hal_msp.c **** void HAL_PCD_MspInit(PCD_HandleTypeDef* hpcd)
 430:Src/stm32f0xx_hal_msp.c **** {
 1040              		.loc 1 430 1 is_stmt 1 view -0
 1041              		.cfi_startproc
 1042              		@ args = 0, pretend = 0, frame = 8
 1043              		@ frame_needed = 0, uses_anonymous_args = 0
 1044              		@ link register save eliminated.
 1045              		.loc 1 430 1 is_stmt 0 view .LVU265
 1046 0000 82B0     		sub	sp, sp, #8
 1047              	.LCFI13:
 1048              		.cfi_def_cfa_offset 8
 431:Src/stm32f0xx_hal_msp.c ****   if(hpcd->Instance==USB)
 1049              		.loc 1 431 3 is_stmt 1 view .LVU266
 1050              		.loc 1 431 10 is_stmt 0 view .LVU267
 1051 0002 0268     		ldr	r2, [r0]
 1052              		.loc 1 431 5 view .LVU268
 1053 0004 074B     		ldr	r3, .L60
 1054 0006 9A42     		cmp	r2, r3
 1055 0008 01D0     		beq	.L59
 1056              	.LVL58:
 1057              	.L57:
 432:Src/stm32f0xx_hal_msp.c ****   {
 433:Src/stm32f0xx_hal_msp.c ****   /* USER CODE BEGIN USB_MspInit 0 */
 434:Src/stm32f0xx_hal_msp.c **** 
 435:Src/stm32f0xx_hal_msp.c ****   /* USER CODE END USB_MspInit 0 */
 436:Src/stm32f0xx_hal_msp.c ****     /* Peripheral clock enable */
 437:Src/stm32f0xx_hal_msp.c ****     __HAL_RCC_USB_CLK_ENABLE();
 438:Src/stm32f0xx_hal_msp.c ****   /* USER CODE BEGIN USB_MspInit 1 */
 439:Src/stm32f0xx_hal_msp.c **** 
 440:Src/stm32f0xx_hal_msp.c ****   /* USER CODE END USB_MspInit 1 */
 441:Src/stm32f0xx_hal_msp.c ****   }
 442:Src/stm32f0xx_hal_msp.c **** 
 443:Src/stm32f0xx_hal_msp.c **** }
 1058              		.loc 1 443 1 view .LVU269
 1059 000a 02B0     		add	sp, sp, #8
 1060              		@ sp needed
 1061 000c 7047     		bx	lr
 1062              	.LVL59:
ARM GAS  /tmp/ccUJMCfe.s 			page 30


 1063              	.L59:
 437:Src/stm32f0xx_hal_msp.c ****   /* USER CODE BEGIN USB_MspInit 1 */
 1064              		.loc 1 437 5 is_stmt 1 view .LVU270
 1065              	.LBB14:
 437:Src/stm32f0xx_hal_msp.c ****   /* USER CODE BEGIN USB_MspInit 1 */
 1066              		.loc 1 437 5 view .LVU271
 437:Src/stm32f0xx_hal_msp.c ****   /* USER CODE BEGIN USB_MspInit 1 */
 1067              		.loc 1 437 5 view .LVU272
 1068 000e 064A     		ldr	r2, .L60+4
 1069 0010 D169     		ldr	r1, [r2, #28]
 1070 0012 8020     		movs	r0, #128
 1071              	.LVL60:
 437:Src/stm32f0xx_hal_msp.c ****   /* USER CODE BEGIN USB_MspInit 1 */
 1072              		.loc 1 437 5 is_stmt 0 view .LVU273
 1073 0014 0004     		lsls	r0, r0, #16
 1074 0016 0143     		orrs	r1, r0
 1075 0018 D161     		str	r1, [r2, #28]
 437:Src/stm32f0xx_hal_msp.c ****   /* USER CODE BEGIN USB_MspInit 1 */
 1076              		.loc 1 437 5 is_stmt 1 view .LVU274
 1077 001a D369     		ldr	r3, [r2, #28]
 1078 001c 0340     		ands	r3, r0
 1079 001e 0193     		str	r3, [sp, #4]
 437:Src/stm32f0xx_hal_msp.c ****   /* USER CODE BEGIN USB_MspInit 1 */
 1080              		.loc 1 437 5 view .LVU275
 1081 0020 019B     		ldr	r3, [sp, #4]
 1082              	.LBE14:
 437:Src/stm32f0xx_hal_msp.c ****   /* USER CODE BEGIN USB_MspInit 1 */
 1083              		.loc 1 437 5 view .LVU276
 1084              		.loc 1 443 1 is_stmt 0 view .LVU277
 1085 0022 F2E7     		b	.L57
 1086              	.L61:
 1087              		.align	2
 1088              	.L60:
 1089 0024 005C0040 		.word	1073765376
 1090 0028 00100240 		.word	1073876992
 1091              		.cfi_endproc
 1092              	.LFE50:
 1094              		.section	.text.HAL_PCD_MspDeInit,"ax",%progbits
 1095              		.align	1
 1096              		.global	HAL_PCD_MspDeInit
 1097              		.syntax unified
 1098              		.code	16
 1099              		.thumb_func
 1100              		.fpu softvfp
 1102              	HAL_PCD_MspDeInit:
 1103              	.LVL61:
 1104              	.LFB51:
 444:Src/stm32f0xx_hal_msp.c **** 
 445:Src/stm32f0xx_hal_msp.c **** /**
 446:Src/stm32f0xx_hal_msp.c **** * @brief PCD MSP De-Initialization
 447:Src/stm32f0xx_hal_msp.c **** * This function freeze the hardware resources used in this example
 448:Src/stm32f0xx_hal_msp.c **** * @param hpcd: PCD handle pointer
 449:Src/stm32f0xx_hal_msp.c **** * @retval None
 450:Src/stm32f0xx_hal_msp.c **** */
 451:Src/stm32f0xx_hal_msp.c **** void HAL_PCD_MspDeInit(PCD_HandleTypeDef* hpcd)
 452:Src/stm32f0xx_hal_msp.c **** {
 1105              		.loc 1 452 1 is_stmt 1 view -0
ARM GAS  /tmp/ccUJMCfe.s 			page 31


 1106              		.cfi_startproc
 1107              		@ args = 0, pretend = 0, frame = 0
 1108              		@ frame_needed = 0, uses_anonymous_args = 0
 1109              		@ link register save eliminated.
 453:Src/stm32f0xx_hal_msp.c ****   if(hpcd->Instance==USB)
 1110              		.loc 1 453 3 view .LVU279
 1111              		.loc 1 453 10 is_stmt 0 view .LVU280
 1112 0000 0268     		ldr	r2, [r0]
 1113              		.loc 1 453 5 view .LVU281
 1114 0002 054B     		ldr	r3, .L65
 1115 0004 9A42     		cmp	r2, r3
 1116 0006 00D0     		beq	.L64
 1117              	.L62:
 454:Src/stm32f0xx_hal_msp.c ****   {
 455:Src/stm32f0xx_hal_msp.c ****   /* USER CODE BEGIN USB_MspDeInit 0 */
 456:Src/stm32f0xx_hal_msp.c **** 
 457:Src/stm32f0xx_hal_msp.c ****   /* USER CODE END USB_MspDeInit 0 */
 458:Src/stm32f0xx_hal_msp.c ****     /* Peripheral clock disable */
 459:Src/stm32f0xx_hal_msp.c ****     __HAL_RCC_USB_CLK_DISABLE();
 460:Src/stm32f0xx_hal_msp.c ****   /* USER CODE BEGIN USB_MspDeInit 1 */
 461:Src/stm32f0xx_hal_msp.c **** 
 462:Src/stm32f0xx_hal_msp.c ****   /* USER CODE END USB_MspDeInit 1 */
 463:Src/stm32f0xx_hal_msp.c ****   }
 464:Src/stm32f0xx_hal_msp.c **** 
 465:Src/stm32f0xx_hal_msp.c **** }
 1118              		.loc 1 465 1 view .LVU282
 1119              		@ sp needed
 1120 0008 7047     		bx	lr
 1121              	.L64:
 459:Src/stm32f0xx_hal_msp.c ****   /* USER CODE BEGIN USB_MspDeInit 1 */
 1122              		.loc 1 459 5 is_stmt 1 view .LVU283
 1123 000a 044A     		ldr	r2, .L65+4
 1124 000c D369     		ldr	r3, [r2, #28]
 1125 000e 0449     		ldr	r1, .L65+8
 1126 0010 0B40     		ands	r3, r1
 1127 0012 D361     		str	r3, [r2, #28]
 1128              		.loc 1 465 1 is_stmt 0 view .LVU284
 1129 0014 F8E7     		b	.L62
 1130              	.L66:
 1131 0016 C046     		.align	2
 1132              	.L65:
 1133 0018 005C0040 		.word	1073765376
 1134 001c 00100240 		.word	1073876992
 1135 0020 FFFF7FFF 		.word	-8388609
 1136              		.cfi_endproc
 1137              	.LFE51:
 1139              		.text
 1140              	.Letext0:
 1141              		.file 2 "/usr/lib/gcc/arm-none-eabi/9.2.1/include/stdint.h"
 1142              		.file 3 "Drivers/CMSIS/Device/ST/STM32F0xx/Include/system_stm32f0xx.h"
 1143              		.file 4 "Drivers/CMSIS/Device/ST/STM32F0xx/Include/stm32f072xb.h"
 1144              		.file 5 "Drivers/CMSIS/Device/ST/STM32F0xx/Include/stm32f0xx.h"
 1145              		.file 6 "Drivers/STM32F0xx_HAL_Driver/Inc/stm32f0xx_hal_def.h"
 1146              		.file 7 "Drivers/STM32F0xx_HAL_Driver/Inc/stm32f0xx_hal_gpio.h"
 1147              		.file 8 "Drivers/STM32F0xx_HAL_Driver/Inc/stm32f0xx_hal_dma.h"
 1148              		.file 9 "Drivers/STM32F0xx_HAL_Driver/Inc/stm32f0xx_hal_i2c.h"
 1149              		.file 10 "Drivers/STM32F0xx_HAL_Driver/Inc/stm32f0xx_ll_usb.h"
ARM GAS  /tmp/ccUJMCfe.s 			page 32


 1150              		.file 11 "Drivers/STM32F0xx_HAL_Driver/Inc/stm32f0xx_hal_pcd.h"
 1151              		.file 12 "Drivers/STM32F0xx_HAL_Driver/Inc/stm32f0xx_hal_spi.h"
 1152              		.file 13 "Drivers/STM32F0xx_HAL_Driver/Inc/stm32f0xx_hal_tim.h"
 1153              		.file 14 "Drivers/STM32F0xx_HAL_Driver/Inc/stm32f0xx_hal_tsc.h"
 1154              		.file 15 "Drivers/STM32F0xx_HAL_Driver/Inc/stm32f0xx_hal.h"
 1155              		.file 16 "Drivers/STM32F0xx_HAL_Driver/Inc/stm32f0xx_hal_cortex.h"
 1156              		.file 17 "Inc/main.h"
 1157              		.file 18 "<built-in>"
ARM GAS  /tmp/ccUJMCfe.s 			page 33

